
Gotowe.elf:     file format elf32-avr

Sections:
Idx Name          Size      VMA       LMA       File off  Algn
  0 .text         00005d9e  00000000  00000000  00000094  2**1
                  CONTENTS, ALLOC, LOAD, READONLY, CODE
  1 .data         0000016a  00800060  00005d9e  00005e32  2**0
                  CONTENTS, ALLOC, LOAD, DATA
  2 .bss          0000028a  008001ca  008001ca  00005f9c  2**0
                  ALLOC

Disassembly of section .text:

00000000 <__vectors>:
       0:	0c 94 39 00 	jmp	0x72	; 0x72 <__ctors_end>
       4:	0c 94 56 00 	jmp	0xac	; 0xac <__bad_interrupt>
       8:	0c 94 56 00 	jmp	0xac	; 0xac <__bad_interrupt>
       c:	0c 94 56 00 	jmp	0xac	; 0xac <__bad_interrupt>
      10:	0c 94 4a 20 	jmp	0x4094	; 0x4094 <__vector_4>
      14:	0c 94 56 00 	jmp	0xac	; 0xac <__bad_interrupt>
      18:	0c 94 56 00 	jmp	0xac	; 0xac <__bad_interrupt>
      1c:	0c 94 07 0b 	jmp	0x160e	; 0x160e <__vector_7>
      20:	0c 94 56 00 	jmp	0xac	; 0xac <__bad_interrupt>
      24:	0c 94 56 00 	jmp	0xac	; 0xac <__bad_interrupt>
      28:	0c 94 ce 02 	jmp	0x59c	; 0x59c <__vector_10>
      2c:	0c 94 56 00 	jmp	0xac	; 0xac <__bad_interrupt>
      30:	0c 94 56 00 	jmp	0xac	; 0xac <__bad_interrupt>
      34:	0c 94 56 00 	jmp	0xac	; 0xac <__bad_interrupt>
      38:	0c 94 56 00 	jmp	0xac	; 0xac <__bad_interrupt>
      3c:	0c 94 56 00 	jmp	0xac	; 0xac <__bad_interrupt>
      40:	0c 94 56 00 	jmp	0xac	; 0xac <__bad_interrupt>
      44:	0c 94 56 00 	jmp	0xac	; 0xac <__bad_interrupt>
      48:	0c 94 56 00 	jmp	0xac	; 0xac <__bad_interrupt>
      4c:	0c 94 56 00 	jmp	0xac	; 0xac <__bad_interrupt>
      50:	0c 94 56 00 	jmp	0xac	; 0xac <__bad_interrupt>
      54:	05 a8       	ldd	r0, Z+53	; 0x35
      56:	4c cd       	rjmp	.-1384   	; 0xfffffaf0 <__eeprom_end+0xff7efaf0>
      58:	b2 d4       	rcall	.+2404   	; 0x9be <getMeasurementTimingBudget+0x70>
      5a:	4e b9       	out	0x0e, r20	; 14
      5c:	38 36       	cpi	r19, 0x68	; 104
      5e:	a9 02       	muls	r26, r25
      60:	0c 50       	subi	r16, 0x0C	; 12
      62:	b9 91       	ld	r27, Y+
      64:	86 88       	ldd	r8, Z+22	; 0x16
      66:	08 3c       	cpi	r16, 0xC8	; 200
      68:	a6 aa       	std	Z+54, r10	; 0x36
      6a:	aa 2a       	or	r10, r26
      6c:	be 00       	.word	0x00be	; ????
      6e:	00 00       	nop
      70:	80 3f       	cpi	r24, 0xF0	; 240

00000072 <__ctors_end>:
      72:	11 24       	eor	r1, r1
      74:	1f be       	out	0x3f, r1	; 63
      76:	cf e5       	ldi	r28, 0x5F	; 95
      78:	d8 e0       	ldi	r29, 0x08	; 8
      7a:	de bf       	out	0x3e, r29	; 62
      7c:	cd bf       	out	0x3d, r28	; 61

0000007e <__do_copy_data>:
      7e:	11 e0       	ldi	r17, 0x01	; 1
      80:	a0 e6       	ldi	r26, 0x60	; 96
      82:	b0 e0       	ldi	r27, 0x00	; 0
      84:	ee e9       	ldi	r30, 0x9E	; 158
      86:	fd e5       	ldi	r31, 0x5D	; 93
      88:	02 c0       	rjmp	.+4      	; 0x8e <.do_copy_data_start>

0000008a <.do_copy_data_loop>:
      8a:	05 90       	lpm	r0, Z+
      8c:	0d 92       	st	X+, r0

0000008e <.do_copy_data_start>:
      8e:	aa 3c       	cpi	r26, 0xCA	; 202
      90:	b1 07       	cpc	r27, r17
      92:	d9 f7       	brne	.-10     	; 0x8a <.do_copy_data_loop>

00000094 <__do_clear_bss>:
      94:	14 e0       	ldi	r17, 0x04	; 4
      96:	aa ec       	ldi	r26, 0xCA	; 202
      98:	b1 e0       	ldi	r27, 0x01	; 1
      9a:	01 c0       	rjmp	.+2      	; 0x9e <.do_clear_bss_start>

0000009c <.do_clear_bss_loop>:
      9c:	1d 92       	st	X+, r1

0000009e <.do_clear_bss_start>:
      9e:	a4 35       	cpi	r26, 0x54	; 84
      a0:	b1 07       	cpc	r27, r17
      a2:	e1 f7       	brne	.-8      	; 0x9c <.do_clear_bss_loop>
      a4:	0e 94 df 20 	call	0x41be	; 0x41be <main>
      a8:	0c 94 cd 2e 	jmp	0x5d9a	; 0x5d9a <_exit>

000000ac <__bad_interrupt>:
      ac:	0c 94 00 00 	jmp	0	; 0x0 <__vectors>

000000b0 <_LCD_OutNibble>:
      b0:	80 ff       	sbrs	r24, 0
      b2:	02 c0       	rjmp	.+4      	; 0xb8 <_LCD_OutNibble+0x8>
      b4:	d8 9a       	sbi	0x1b, 0	; 27
      b6:	01 c0       	rjmp	.+2      	; 0xba <_LCD_OutNibble+0xa>
      b8:	d8 98       	cbi	0x1b, 0	; 27
      ba:	81 ff       	sbrs	r24, 1
      bc:	02 c0       	rjmp	.+4      	; 0xc2 <_LCD_OutNibble+0x12>
      be:	d9 9a       	sbi	0x1b, 1	; 27
      c0:	01 c0       	rjmp	.+2      	; 0xc4 <_LCD_OutNibble+0x14>
      c2:	d9 98       	cbi	0x1b, 1	; 27
      c4:	82 ff       	sbrs	r24, 2
      c6:	02 c0       	rjmp	.+4      	; 0xcc <_LCD_OutNibble+0x1c>
      c8:	da 9a       	sbi	0x1b, 2	; 27
      ca:	01 c0       	rjmp	.+2      	; 0xce <_LCD_OutNibble+0x1e>
      cc:	da 98       	cbi	0x1b, 2	; 27
      ce:	83 ff       	sbrs	r24, 3
      d0:	02 c0       	rjmp	.+4      	; 0xd6 <_LCD_OutNibble+0x26>
      d2:	db 9a       	sbi	0x1b, 3	; 27
      d4:	08 95       	ret
      d6:	db 98       	cbi	0x1b, 3	; 27
      d8:	08 95       	ret

000000da <_LCD_Write>:
      da:	1f 93       	push	r17
      dc:	18 2f       	mov	r17, r24
      de:	c1 9a       	sbi	0x18, 1	; 24
      e0:	82 95       	swap	r24
      e2:	8f 70       	andi	r24, 0x0F	; 15
      e4:	0e 94 58 00 	call	0xb0	; 0xb0 <_LCD_OutNibble>
      e8:	c1 98       	cbi	0x18, 1	; 24
      ea:	c1 9a       	sbi	0x18, 1	; 24
      ec:	81 2f       	mov	r24, r17
      ee:	0e 94 58 00 	call	0xb0	; 0xb0 <_LCD_OutNibble>
      f2:	c1 98       	cbi	0x18, 1	; 24
      f4:	85 e8       	ldi	r24, 0x85	; 133
      f6:	8a 95       	dec	r24
      f8:	f1 f7       	brne	.-4      	; 0xf6 <_LCD_Write+0x1c>
      fa:	1f 91       	pop	r17
      fc:	08 95       	ret

000000fe <LCD_WriteCommand>:
      fe:	c0 98       	cbi	0x18, 0	; 24
     100:	0e 94 6d 00 	call	0xda	; 0xda <_LCD_Write>
     104:	08 95       	ret

00000106 <LCD_WriteData>:
     106:	c0 9a       	sbi	0x18, 0	; 24
     108:	0e 94 6d 00 	call	0xda	; 0xda <_LCD_Write>
     10c:	08 95       	ret

0000010e <LCD_WriteText>:
     10e:	cf 93       	push	r28
     110:	df 93       	push	r29
     112:	ec 01       	movw	r28, r24
     114:	03 c0       	rjmp	.+6      	; 0x11c <LCD_WriteText+0xe>
     116:	21 96       	adiw	r28, 0x01	; 1
     118:	0e 94 83 00 	call	0x106	; 0x106 <LCD_WriteData>
     11c:	88 81       	ld	r24, Y
     11e:	88 23       	and	r24, r24
     120:	d1 f7       	brne	.-12     	; 0x116 <LCD_WriteText+0x8>
     122:	df 91       	pop	r29
     124:	cf 91       	pop	r28
     126:	08 95       	ret

00000128 <LCD_GoTo>:
     128:	62 95       	swap	r22
     12a:	66 0f       	add	r22, r22
     12c:	66 0f       	add	r22, r22
     12e:	60 7c       	andi	r22, 0xC0	; 192
     130:	68 0f       	add	r22, r24
     132:	86 2f       	mov	r24, r22
     134:	80 68       	ori	r24, 0x80	; 128
     136:	0e 94 7f 00 	call	0xfe	; 0xfe <LCD_WriteCommand>
     13a:	08 95       	ret

0000013c <LCD_Clear>:
     13c:	81 e0       	ldi	r24, 0x01	; 1
     13e:	0e 94 7f 00 	call	0xfe	; 0xfe <LCD_WriteCommand>
     142:	80 ea       	ldi	r24, 0xA0	; 160
     144:	9f e0       	ldi	r25, 0x0F	; 15
     146:	01 97       	sbiw	r24, 0x01	; 1
     148:	f1 f7       	brne	.-4      	; 0x146 <LCD_Clear+0xa>
     14a:	08 95       	ret

0000014c <LCD_Home>:
     14c:	82 e0       	ldi	r24, 0x02	; 2
     14e:	0e 94 7f 00 	call	0xfe	; 0xfe <LCD_WriteCommand>
     152:	80 ea       	ldi	r24, 0xA0	; 160
     154:	9f e0       	ldi	r25, 0x0F	; 15
     156:	01 97       	sbiw	r24, 0x01	; 1
     158:	f1 f7       	brne	.-4      	; 0x156 <LCD_Home+0xa>
     15a:	08 95       	ret

0000015c <LCD_Initalize>:
     15c:	1f 93       	push	r17
     15e:	cf 93       	push	r28
     160:	df 93       	push	r29
     162:	d0 9a       	sbi	0x1a, 0	; 26
     164:	d1 9a       	sbi	0x1a, 1	; 26
     166:	d2 9a       	sbi	0x1a, 2	; 26
     168:	d3 9a       	sbi	0x1a, 3	; 26
     16a:	b9 9a       	sbi	0x17, 1	; 23
     16c:	b8 9a       	sbi	0x17, 0	; 23
     16e:	80 e3       	ldi	r24, 0x30	; 48
     170:	95 e7       	ldi	r25, 0x75	; 117
     172:	01 97       	sbiw	r24, 0x01	; 1
     174:	f1 f7       	brne	.-4      	; 0x172 <LCD_Initalize+0x16>
     176:	c0 98       	cbi	0x18, 0	; 24
     178:	c1 98       	cbi	0x18, 1	; 24
     17a:	10 e0       	ldi	r17, 0x00	; 0
     17c:	c0 e1       	ldi	r28, 0x10	; 16
     17e:	d7 e2       	ldi	r29, 0x27	; 39
     180:	c1 9a       	sbi	0x18, 1	; 24
     182:	83 e0       	ldi	r24, 0x03	; 3
     184:	0e 94 58 00 	call	0xb0	; 0xb0 <_LCD_OutNibble>
     188:	c1 98       	cbi	0x18, 1	; 24
     18a:	ce 01       	movw	r24, r28
     18c:	01 97       	sbiw	r24, 0x01	; 1
     18e:	f1 f7       	brne	.-4      	; 0x18c <LCD_Initalize+0x30>
     190:	1f 5f       	subi	r17, 0xFF	; 255
     192:	13 30       	cpi	r17, 0x03	; 3
     194:	a9 f7       	brne	.-22     	; 0x180 <LCD_Initalize+0x24>
     196:	c1 9a       	sbi	0x18, 1	; 24
     198:	82 e0       	ldi	r24, 0x02	; 2
     19a:	0e 94 58 00 	call	0xb0	; 0xb0 <_LCD_OutNibble>
     19e:	c1 98       	cbi	0x18, 1	; 24
     1a0:	80 ed       	ldi	r24, 0xD0	; 208
     1a2:	97 e0       	ldi	r25, 0x07	; 7
     1a4:	01 97       	sbiw	r24, 0x01	; 1
     1a6:	f1 f7       	brne	.-4      	; 0x1a4 <LCD_Initalize+0x48>
     1a8:	88 e2       	ldi	r24, 0x28	; 40
     1aa:	0e 94 7f 00 	call	0xfe	; 0xfe <LCD_WriteCommand>
     1ae:	88 e0       	ldi	r24, 0x08	; 8
     1b0:	0e 94 7f 00 	call	0xfe	; 0xfe <LCD_WriteCommand>
     1b4:	81 e0       	ldi	r24, 0x01	; 1
     1b6:	0e 94 7f 00 	call	0xfe	; 0xfe <LCD_WriteCommand>
     1ba:	80 ea       	ldi	r24, 0xA0	; 160
     1bc:	9f e0       	ldi	r25, 0x0F	; 15
     1be:	01 97       	sbiw	r24, 0x01	; 1
     1c0:	f1 f7       	brne	.-4      	; 0x1be <LCD_Initalize+0x62>
     1c2:	86 e0       	ldi	r24, 0x06	; 6
     1c4:	0e 94 7f 00 	call	0xfe	; 0xfe <LCD_WriteCommand>
     1c8:	8c e0       	ldi	r24, 0x0C	; 12
     1ca:	0e 94 7f 00 	call	0xfe	; 0xfe <LCD_WriteCommand>
     1ce:	df 91       	pop	r29
     1d0:	cf 91       	pop	r28
     1d2:	1f 91       	pop	r17
     1d4:	08 95       	ret

000001d6 <TimerInit_SM>:
     1d6:	83 b7       	in	r24, 0x33	; 51
     1d8:	88 60       	ori	r24, 0x08	; 8
     1da:	83 bf       	out	0x33, r24	; 51
     1dc:	83 b7       	in	r24, 0x33	; 51
     1de:	84 60       	ori	r24, 0x04	; 4
     1e0:	83 bf       	out	0x33, r24	; 51
     1e2:	82 e3       	ldi	r24, 0x32	; 50
     1e4:	8c bf       	out	0x3c, r24	; 60
     1e6:	89 b7       	in	r24, 0x39	; 57
     1e8:	82 60       	ori	r24, 0x02	; 2
     1ea:	89 bf       	out	0x39, r24	; 57
     1ec:	78 94       	sei
     1ee:	08 95       	ret

000001f0 <half_step_motor_left>:
     1f0:	cf 92       	push	r12
     1f2:	df 92       	push	r13
     1f4:	ef 92       	push	r14
     1f6:	ff 92       	push	r15
     1f8:	1f 93       	push	r17
     1fa:	6b 01       	movw	r12, r22
     1fc:	7c 01       	movw	r14, r24
     1fe:	14 2f       	mov	r17, r20
     200:	0e 94 eb 00 	call	0x1d6	; 0x1d6 <TimerInit_SM>
     204:	11 30       	cpi	r17, 0x01	; 1
     206:	09 f0       	breq	.+2      	; 0x20a <half_step_motor_left+0x1a>
     208:	42 c0       	rjmp	.+132    	; 0x28e <half_step_motor_left+0x9e>
     20a:	88 9a       	sbi	0x11, 0	; 17
     20c:	89 9a       	sbi	0x11, 1	; 17
     20e:	8a 9a       	sbi	0x11, 2	; 17
     210:	8b 9a       	sbi	0x11, 3	; 17
     212:	20 e0       	ldi	r18, 0x00	; 0
     214:	30 e0       	ldi	r19, 0x00	; 0
     216:	40 e0       	ldi	r20, 0x00	; 0
     218:	50 e0       	ldi	r21, 0x00	; 0
     21a:	80 91 ca 01 	lds	r24, 0x01CA
     21e:	88 23       	and	r24, r24
     220:	09 f4       	brne	.+2      	; 0x224 <half_step_motor_left+0x34>
     222:	93 98       	cbi	0x12, 3	; 18
     224:	80 91 ca 01 	lds	r24, 0x01CA
     228:	81 30       	cpi	r24, 0x01	; 1
     22a:	09 f4       	brne	.+2      	; 0x22e <half_step_motor_left+0x3e>
     22c:	91 9a       	sbi	0x12, 1	; 18
     22e:	80 91 ca 01 	lds	r24, 0x01CA
     232:	82 30       	cpi	r24, 0x02	; 2
     234:	09 f4       	brne	.+2      	; 0x238 <half_step_motor_left+0x48>
     236:	90 98       	cbi	0x12, 0	; 18
     238:	80 91 ca 01 	lds	r24, 0x01CA
     23c:	83 30       	cpi	r24, 0x03	; 3
     23e:	09 f4       	brne	.+2      	; 0x242 <half_step_motor_left+0x52>
     240:	92 9a       	sbi	0x12, 2	; 18
     242:	80 91 ca 01 	lds	r24, 0x01CA
     246:	84 30       	cpi	r24, 0x04	; 4
     248:	09 f4       	brne	.+2      	; 0x24c <half_step_motor_left+0x5c>
     24a:	91 98       	cbi	0x12, 1	; 18
     24c:	80 91 ca 01 	lds	r24, 0x01CA
     250:	85 30       	cpi	r24, 0x05	; 5
     252:	09 f4       	brne	.+2      	; 0x256 <half_step_motor_left+0x66>
     254:	93 9a       	sbi	0x12, 3	; 18
     256:	80 91 ca 01 	lds	r24, 0x01CA
     25a:	86 30       	cpi	r24, 0x06	; 6
     25c:	09 f4       	brne	.+2      	; 0x260 <half_step_motor_left+0x70>
     25e:	92 98       	cbi	0x12, 2	; 18
     260:	80 91 ca 01 	lds	r24, 0x01CA
     264:	87 30       	cpi	r24, 0x07	; 7
     266:	09 f4       	brne	.+2      	; 0x26a <half_step_motor_left+0x7a>
     268:	90 9a       	sbi	0x12, 0	; 18
     26a:	80 91 ca 01 	lds	r24, 0x01CA
     26e:	88 30       	cpi	r24, 0x08	; 8
     270:	a0 f2       	brcs	.-88     	; 0x21a <half_step_motor_left+0x2a>
     272:	10 92 ca 01 	sts	0x01CA, r1
     276:	2f 5f       	subi	r18, 0xFF	; 255
     278:	3f 4f       	sbci	r19, 0xFF	; 255
     27a:	4f 4f       	sbci	r20, 0xFF	; 255
     27c:	5f 4f       	sbci	r21, 0xFF	; 255
     27e:	c2 16       	cp	r12, r18
     280:	d3 06       	cpc	r13, r19
     282:	e4 06       	cpc	r14, r20
     284:	f5 06       	cpc	r15, r21
     286:	48 f6       	brcc	.-110    	; 0x21a <half_step_motor_left+0x2a>
     288:	90 98       	cbi	0x12, 0	; 18
     28a:	93 98       	cbi	0x12, 3	; 18
     28c:	44 c0       	rjmp	.+136    	; 0x316 <half_step_motor_left+0x126>
     28e:	12 30       	cpi	r17, 0x02	; 2
     290:	09 f0       	breq	.+2      	; 0x294 <half_step_motor_left+0xa4>
     292:	41 c0       	rjmp	.+130    	; 0x316 <half_step_motor_left+0x126>
     294:	a4 9a       	sbi	0x14, 4	; 20
     296:	a5 9a       	sbi	0x14, 5	; 20
     298:	a6 9a       	sbi	0x14, 6	; 20
     29a:	a7 9a       	sbi	0x14, 7	; 20
     29c:	20 e0       	ldi	r18, 0x00	; 0
     29e:	30 e0       	ldi	r19, 0x00	; 0
     2a0:	40 e0       	ldi	r20, 0x00	; 0
     2a2:	50 e0       	ldi	r21, 0x00	; 0
     2a4:	80 91 ca 01 	lds	r24, 0x01CA
     2a8:	88 23       	and	r24, r24
     2aa:	09 f4       	brne	.+2      	; 0x2ae <half_step_motor_left+0xbe>
     2ac:	af 98       	cbi	0x15, 7	; 21
     2ae:	80 91 ca 01 	lds	r24, 0x01CA
     2b2:	81 30       	cpi	r24, 0x01	; 1
     2b4:	09 f4       	brne	.+2      	; 0x2b8 <half_step_motor_left+0xc8>
     2b6:	ad 9a       	sbi	0x15, 5	; 21
     2b8:	80 91 ca 01 	lds	r24, 0x01CA
     2bc:	82 30       	cpi	r24, 0x02	; 2
     2be:	09 f4       	brne	.+2      	; 0x2c2 <half_step_motor_left+0xd2>
     2c0:	ac 98       	cbi	0x15, 4	; 21
     2c2:	80 91 ca 01 	lds	r24, 0x01CA
     2c6:	83 30       	cpi	r24, 0x03	; 3
     2c8:	09 f4       	brne	.+2      	; 0x2cc <half_step_motor_left+0xdc>
     2ca:	ae 9a       	sbi	0x15, 6	; 21
     2cc:	80 91 ca 01 	lds	r24, 0x01CA
     2d0:	84 30       	cpi	r24, 0x04	; 4
     2d2:	09 f4       	brne	.+2      	; 0x2d6 <half_step_motor_left+0xe6>
     2d4:	ad 98       	cbi	0x15, 5	; 21
     2d6:	80 91 ca 01 	lds	r24, 0x01CA
     2da:	85 30       	cpi	r24, 0x05	; 5
     2dc:	09 f4       	brne	.+2      	; 0x2e0 <half_step_motor_left+0xf0>
     2de:	af 9a       	sbi	0x15, 7	; 21
     2e0:	80 91 ca 01 	lds	r24, 0x01CA
     2e4:	86 30       	cpi	r24, 0x06	; 6
     2e6:	09 f4       	brne	.+2      	; 0x2ea <half_step_motor_left+0xfa>
     2e8:	ae 98       	cbi	0x15, 6	; 21
     2ea:	80 91 ca 01 	lds	r24, 0x01CA
     2ee:	87 30       	cpi	r24, 0x07	; 7
     2f0:	09 f4       	brne	.+2      	; 0x2f4 <half_step_motor_left+0x104>
     2f2:	ac 9a       	sbi	0x15, 4	; 21
     2f4:	80 91 ca 01 	lds	r24, 0x01CA
     2f8:	88 30       	cpi	r24, 0x08	; 8
     2fa:	a0 f2       	brcs	.-88     	; 0x2a4 <half_step_motor_left+0xb4>
     2fc:	10 92 ca 01 	sts	0x01CA, r1
     300:	2f 5f       	subi	r18, 0xFF	; 255
     302:	3f 4f       	sbci	r19, 0xFF	; 255
     304:	4f 4f       	sbci	r20, 0xFF	; 255
     306:	5f 4f       	sbci	r21, 0xFF	; 255
     308:	c2 16       	cp	r12, r18
     30a:	d3 06       	cpc	r13, r19
     30c:	e4 06       	cpc	r14, r20
     30e:	f5 06       	cpc	r15, r21
     310:	48 f6       	brcc	.-110    	; 0x2a4 <half_step_motor_left+0xb4>
     312:	ac 98       	cbi	0x15, 4	; 21
     314:	af 98       	cbi	0x15, 7	; 21
     316:	1f 91       	pop	r17
     318:	ff 90       	pop	r15
     31a:	ef 90       	pop	r14
     31c:	df 90       	pop	r13
     31e:	cf 90       	pop	r12
     320:	08 95       	ret

00000322 <half_step_motor_right>:
     322:	cf 92       	push	r12
     324:	df 92       	push	r13
     326:	ef 92       	push	r14
     328:	ff 92       	push	r15
     32a:	1f 93       	push	r17
     32c:	6b 01       	movw	r12, r22
     32e:	7c 01       	movw	r14, r24
     330:	14 2f       	mov	r17, r20
     332:	0e 94 eb 00 	call	0x1d6	; 0x1d6 <TimerInit_SM>
     336:	11 30       	cpi	r17, 0x01	; 1
     338:	09 f0       	breq	.+2      	; 0x33c <half_step_motor_right+0x1a>
     33a:	41 c0       	rjmp	.+130    	; 0x3be <half_step_motor_right+0x9c>
     33c:	88 9a       	sbi	0x11, 0	; 17
     33e:	89 9a       	sbi	0x11, 1	; 17
     340:	8a 9a       	sbi	0x11, 2	; 17
     342:	8b 9a       	sbi	0x11, 3	; 17
     344:	20 e0       	ldi	r18, 0x00	; 0
     346:	30 e0       	ldi	r19, 0x00	; 0
     348:	40 e0       	ldi	r20, 0x00	; 0
     34a:	50 e0       	ldi	r21, 0x00	; 0
     34c:	80 91 ca 01 	lds	r24, 0x01CA
     350:	88 23       	and	r24, r24
     352:	09 f4       	brne	.+2      	; 0x356 <half_step_motor_right+0x34>
     354:	90 98       	cbi	0x12, 0	; 18
     356:	80 91 ca 01 	lds	r24, 0x01CA
     35a:	81 30       	cpi	r24, 0x01	; 1
     35c:	09 f4       	brne	.+2      	; 0x360 <half_step_motor_right+0x3e>
     35e:	92 9a       	sbi	0x12, 2	; 18
     360:	80 91 ca 01 	lds	r24, 0x01CA
     364:	82 30       	cpi	r24, 0x02	; 2
     366:	09 f4       	brne	.+2      	; 0x36a <half_step_motor_right+0x48>
     368:	93 98       	cbi	0x12, 3	; 18
     36a:	80 91 ca 01 	lds	r24, 0x01CA
     36e:	83 30       	cpi	r24, 0x03	; 3
     370:	09 f4       	brne	.+2      	; 0x374 <half_step_motor_right+0x52>
     372:	91 9a       	sbi	0x12, 1	; 18
     374:	80 91 ca 01 	lds	r24, 0x01CA
     378:	84 30       	cpi	r24, 0x04	; 4
     37a:	09 f4       	brne	.+2      	; 0x37e <half_step_motor_right+0x5c>
     37c:	92 98       	cbi	0x12, 2	; 18
     37e:	80 91 ca 01 	lds	r24, 0x01CA
     382:	85 30       	cpi	r24, 0x05	; 5
     384:	09 f4       	brne	.+2      	; 0x388 <half_step_motor_right+0x66>
     386:	90 9a       	sbi	0x12, 0	; 18
     388:	80 91 ca 01 	lds	r24, 0x01CA
     38c:	86 30       	cpi	r24, 0x06	; 6
     38e:	09 f4       	brne	.+2      	; 0x392 <half_step_motor_right+0x70>
     390:	91 98       	cbi	0x12, 1	; 18
     392:	80 91 ca 01 	lds	r24, 0x01CA
     396:	87 30       	cpi	r24, 0x07	; 7
     398:	09 f4       	brne	.+2      	; 0x39c <half_step_motor_right+0x7a>
     39a:	93 9a       	sbi	0x12, 3	; 18
     39c:	80 91 ca 01 	lds	r24, 0x01CA
     3a0:	88 30       	cpi	r24, 0x08	; 8
     3a2:	a0 f2       	brcs	.-88     	; 0x34c <half_step_motor_right+0x2a>
     3a4:	10 92 ca 01 	sts	0x01CA, r1
     3a8:	2f 5f       	subi	r18, 0xFF	; 255
     3aa:	3f 4f       	sbci	r19, 0xFF	; 255
     3ac:	4f 4f       	sbci	r20, 0xFF	; 255
     3ae:	5f 4f       	sbci	r21, 0xFF	; 255
     3b0:	c2 16       	cp	r12, r18
     3b2:	d3 06       	cpc	r13, r19
     3b4:	e4 06       	cpc	r14, r20
     3b6:	f5 06       	cpc	r15, r21
     3b8:	48 f6       	brcc	.-110    	; 0x34c <half_step_motor_right+0x2a>
     3ba:	90 98       	cbi	0x12, 0	; 18
     3bc:	44 c0       	rjmp	.+136    	; 0x446 <half_step_motor_right+0x124>
     3be:	12 30       	cpi	r17, 0x02	; 2
     3c0:	09 f0       	breq	.+2      	; 0x3c4 <half_step_motor_right+0xa2>
     3c2:	41 c0       	rjmp	.+130    	; 0x446 <half_step_motor_right+0x124>
     3c4:	a4 9a       	sbi	0x14, 4	; 20
     3c6:	a5 9a       	sbi	0x14, 5	; 20
     3c8:	a6 9a       	sbi	0x14, 6	; 20
     3ca:	a7 9a       	sbi	0x14, 7	; 20
     3cc:	20 e0       	ldi	r18, 0x00	; 0
     3ce:	30 e0       	ldi	r19, 0x00	; 0
     3d0:	40 e0       	ldi	r20, 0x00	; 0
     3d2:	50 e0       	ldi	r21, 0x00	; 0
     3d4:	80 91 ca 01 	lds	r24, 0x01CA
     3d8:	88 23       	and	r24, r24
     3da:	09 f4       	brne	.+2      	; 0x3de <half_step_motor_right+0xbc>
     3dc:	ac 98       	cbi	0x15, 4	; 21
     3de:	80 91 ca 01 	lds	r24, 0x01CA
     3e2:	81 30       	cpi	r24, 0x01	; 1
     3e4:	09 f4       	brne	.+2      	; 0x3e8 <half_step_motor_right+0xc6>
     3e6:	ae 9a       	sbi	0x15, 6	; 21
     3e8:	80 91 ca 01 	lds	r24, 0x01CA
     3ec:	82 30       	cpi	r24, 0x02	; 2
     3ee:	09 f4       	brne	.+2      	; 0x3f2 <half_step_motor_right+0xd0>
     3f0:	af 98       	cbi	0x15, 7	; 21
     3f2:	80 91 ca 01 	lds	r24, 0x01CA
     3f6:	83 30       	cpi	r24, 0x03	; 3
     3f8:	09 f4       	brne	.+2      	; 0x3fc <half_step_motor_right+0xda>
     3fa:	ad 9a       	sbi	0x15, 5	; 21
     3fc:	80 91 ca 01 	lds	r24, 0x01CA
     400:	84 30       	cpi	r24, 0x04	; 4
     402:	09 f4       	brne	.+2      	; 0x406 <half_step_motor_right+0xe4>
     404:	ae 98       	cbi	0x15, 6	; 21
     406:	80 91 ca 01 	lds	r24, 0x01CA
     40a:	85 30       	cpi	r24, 0x05	; 5
     40c:	09 f4       	brne	.+2      	; 0x410 <half_step_motor_right+0xee>
     40e:	ac 9a       	sbi	0x15, 4	; 21
     410:	80 91 ca 01 	lds	r24, 0x01CA
     414:	86 30       	cpi	r24, 0x06	; 6
     416:	09 f4       	brne	.+2      	; 0x41a <half_step_motor_right+0xf8>
     418:	ad 98       	cbi	0x15, 5	; 21
     41a:	80 91 ca 01 	lds	r24, 0x01CA
     41e:	87 30       	cpi	r24, 0x07	; 7
     420:	09 f4       	brne	.+2      	; 0x424 <half_step_motor_right+0x102>
     422:	af 9a       	sbi	0x15, 7	; 21
     424:	80 91 ca 01 	lds	r24, 0x01CA
     428:	88 30       	cpi	r24, 0x08	; 8
     42a:	a0 f2       	brcs	.-88     	; 0x3d4 <half_step_motor_right+0xb2>
     42c:	10 92 ca 01 	sts	0x01CA, r1
     430:	2f 5f       	subi	r18, 0xFF	; 255
     432:	3f 4f       	sbci	r19, 0xFF	; 255
     434:	4f 4f       	sbci	r20, 0xFF	; 255
     436:	5f 4f       	sbci	r21, 0xFF	; 255
     438:	c2 16       	cp	r12, r18
     43a:	d3 06       	cpc	r13, r19
     43c:	e4 06       	cpc	r14, r20
     43e:	f5 06       	cpc	r15, r21
     440:	48 f6       	brcc	.-110    	; 0x3d4 <half_step_motor_right+0xb2>
     442:	ac 98       	cbi	0x15, 4	; 21
     444:	af 98       	cbi	0x15, 7	; 21
     446:	1f 91       	pop	r17
     448:	ff 90       	pop	r15
     44a:	ef 90       	pop	r14
     44c:	df 90       	pop	r13
     44e:	cf 90       	pop	r12
     450:	08 95       	ret

00000452 <full_step_motor_left>:
     452:	ef 92       	push	r14
     454:	ff 92       	push	r15
     456:	0f 93       	push	r16
     458:	1f 93       	push	r17
     45a:	7b 01       	movw	r14, r22
     45c:	8c 01       	movw	r16, r24
     45e:	0e 94 eb 00 	call	0x1d6	; 0x1d6 <TimerInit_SM>
     462:	d0 9a       	sbi	0x1a, 0	; 26
     464:	d1 9a       	sbi	0x1a, 1	; 26
     466:	d2 9a       	sbi	0x1a, 2	; 26
     468:	d3 9a       	sbi	0x1a, 3	; 26
     46a:	89 e0       	ldi	r24, 0x09	; 9
     46c:	ee 0c       	add	r14, r14
     46e:	ff 1c       	adc	r15, r15
     470:	00 1f       	adc	r16, r16
     472:	11 1f       	adc	r17, r17
     474:	8a 95       	dec	r24
     476:	d1 f7       	brne	.-12     	; 0x46c <full_step_motor_left+0x1a>
     478:	c8 01       	movw	r24, r16
     47a:	b7 01       	movw	r22, r14
     47c:	28 e6       	ldi	r18, 0x68	; 104
     47e:	31 e0       	ldi	r19, 0x01	; 1
     480:	40 e0       	ldi	r20, 0x00	; 0
     482:	50 e0       	ldi	r21, 0x00	; 0
     484:	0e 94 a4 2b 	call	0x5748	; 0x5748 <__udivmodsi4>
     488:	79 01       	movw	r14, r18
     48a:	8a 01       	movw	r16, r20
     48c:	20 e0       	ldi	r18, 0x00	; 0
     48e:	30 e0       	ldi	r19, 0x00	; 0
     490:	40 e0       	ldi	r20, 0x00	; 0
     492:	50 e0       	ldi	r21, 0x00	; 0
     494:	80 91 ca 01 	lds	r24, 0x01CA
     498:	88 23       	and	r24, r24
     49a:	11 f4       	brne	.+4      	; 0x4a0 <full_step_motor_left+0x4e>
     49c:	d8 9a       	sbi	0x1b, 0	; 27
     49e:	da 98       	cbi	0x1b, 2	; 27
     4a0:	80 91 ca 01 	lds	r24, 0x01CA
     4a4:	81 30       	cpi	r24, 0x01	; 1
     4a6:	11 f4       	brne	.+4      	; 0x4ac <full_step_motor_left+0x5a>
     4a8:	d9 9a       	sbi	0x1b, 1	; 27
     4aa:	db 98       	cbi	0x1b, 3	; 27
     4ac:	80 91 ca 01 	lds	r24, 0x01CA
     4b0:	82 30       	cpi	r24, 0x02	; 2
     4b2:	11 f4       	brne	.+4      	; 0x4b8 <full_step_motor_left+0x66>
     4b4:	da 9a       	sbi	0x1b, 2	; 27
     4b6:	d8 98       	cbi	0x1b, 0	; 27
     4b8:	80 91 ca 01 	lds	r24, 0x01CA
     4bc:	83 30       	cpi	r24, 0x03	; 3
     4be:	11 f4       	brne	.+4      	; 0x4c4 <full_step_motor_left+0x72>
     4c0:	db 9a       	sbi	0x1b, 3	; 27
     4c2:	d9 98       	cbi	0x1b, 1	; 27
     4c4:	80 91 ca 01 	lds	r24, 0x01CA
     4c8:	84 30       	cpi	r24, 0x04	; 4
     4ca:	20 f3       	brcs	.-56     	; 0x494 <full_step_motor_left+0x42>
     4cc:	10 92 ca 01 	sts	0x01CA, r1
     4d0:	2f 5f       	subi	r18, 0xFF	; 255
     4d2:	3f 4f       	sbci	r19, 0xFF	; 255
     4d4:	4f 4f       	sbci	r20, 0xFF	; 255
     4d6:	5f 4f       	sbci	r21, 0xFF	; 255
     4d8:	e2 16       	cp	r14, r18
     4da:	f3 06       	cpc	r15, r19
     4dc:	04 07       	cpc	r16, r20
     4de:	15 07       	cpc	r17, r21
     4e0:	c8 f6       	brcc	.-78     	; 0x494 <full_step_motor_left+0x42>
     4e2:	1f 91       	pop	r17
     4e4:	0f 91       	pop	r16
     4e6:	ff 90       	pop	r15
     4e8:	ef 90       	pop	r14
     4ea:	08 95       	ret

000004ec <full_step_motor_right>:
     4ec:	ef 92       	push	r14
     4ee:	ff 92       	push	r15
     4f0:	0f 93       	push	r16
     4f2:	1f 93       	push	r17
     4f4:	7b 01       	movw	r14, r22
     4f6:	8c 01       	movw	r16, r24
     4f8:	0e 94 eb 00 	call	0x1d6	; 0x1d6 <TimerInit_SM>
     4fc:	a4 9a       	sbi	0x14, 4	; 20
     4fe:	a5 9a       	sbi	0x14, 5	; 20
     500:	a6 9a       	sbi	0x14, 6	; 20
     502:	a7 9a       	sbi	0x14, 7	; 20
     504:	20 e0       	ldi	r18, 0x00	; 0
     506:	30 e0       	ldi	r19, 0x00	; 0
     508:	40 e0       	ldi	r20, 0x00	; 0
     50a:	50 e0       	ldi	r21, 0x00	; 0
     50c:	80 91 ca 01 	lds	r24, 0x01CA
     510:	88 23       	and	r24, r24
     512:	11 f4       	brne	.+4      	; 0x518 <full_step_motor_right+0x2c>
     514:	af 9a       	sbi	0x15, 7	; 21
     516:	ad 98       	cbi	0x15, 5	; 21
     518:	80 91 ca 01 	lds	r24, 0x01CA
     51c:	81 30       	cpi	r24, 0x01	; 1
     51e:	11 f4       	brne	.+4      	; 0x524 <full_step_motor_right+0x38>
     520:	ae 9a       	sbi	0x15, 6	; 21
     522:	ac 98       	cbi	0x15, 4	; 21
     524:	80 91 ca 01 	lds	r24, 0x01CA
     528:	82 30       	cpi	r24, 0x02	; 2
     52a:	11 f4       	brne	.+4      	; 0x530 <full_step_motor_right+0x44>
     52c:	ad 9a       	sbi	0x15, 5	; 21
     52e:	af 98       	cbi	0x15, 7	; 21
     530:	80 91 ca 01 	lds	r24, 0x01CA
     534:	83 30       	cpi	r24, 0x03	; 3
     536:	11 f4       	brne	.+4      	; 0x53c <full_step_motor_right+0x50>
     538:	ac 9a       	sbi	0x15, 4	; 21
     53a:	ae 98       	cbi	0x15, 6	; 21
     53c:	80 91 ca 01 	lds	r24, 0x01CA
     540:	84 30       	cpi	r24, 0x04	; 4
     542:	20 f3       	brcs	.-56     	; 0x50c <full_step_motor_right+0x20>
     544:	10 92 ca 01 	sts	0x01CA, r1
     548:	2f 5f       	subi	r18, 0xFF	; 255
     54a:	3f 4f       	sbci	r19, 0xFF	; 255
     54c:	4f 4f       	sbci	r20, 0xFF	; 255
     54e:	5f 4f       	sbci	r21, 0xFF	; 255
     550:	e2 16       	cp	r14, r18
     552:	f3 06       	cpc	r15, r19
     554:	04 07       	cpc	r16, r20
     556:	15 07       	cpc	r17, r21
     558:	c8 f6       	brcc	.-78     	; 0x50c <full_step_motor_right+0x20>
     55a:	1f 91       	pop	r17
     55c:	0f 91       	pop	r16
     55e:	ff 90       	pop	r15
     560:	ef 90       	pop	r14
     562:	08 95       	ret

00000564 <silnik>:
     564:	cf 93       	push	r28
     566:	df 93       	push	r29
     568:	c1 e0       	ldi	r28, 0x01	; 1
     56a:	d0 e0       	ldi	r29, 0x00	; 0
     56c:	62 e0       	ldi	r22, 0x02	; 2
     56e:	70 e0       	ldi	r23, 0x00	; 0
     570:	80 e0       	ldi	r24, 0x00	; 0
     572:	90 e0       	ldi	r25, 0x00	; 0
     574:	41 e0       	ldi	r20, 0x01	; 1
     576:	0e 94 f8 00 	call	0x1f0	; 0x1f0 <half_step_motor_left>
     57a:	62 e0       	ldi	r22, 0x02	; 2
     57c:	70 e0       	ldi	r23, 0x00	; 0
     57e:	80 e0       	ldi	r24, 0x00	; 0
     580:	90 e0       	ldi	r25, 0x00	; 0
     582:	42 e0       	ldi	r20, 0x02	; 2
     584:	0e 94 f8 00 	call	0x1f0	; 0x1f0 <half_step_motor_left>
     588:	21 96       	adiw	r28, 0x01	; 1
     58a:	81 e0       	ldi	r24, 0x01	; 1
     58c:	c1 30       	cpi	r28, 0x01	; 1
     58e:	d8 07       	cpc	r29, r24
     590:	69 f7       	brne	.-38     	; 0x56c <silnik+0x8>
     592:	80 e0       	ldi	r24, 0x00	; 0
     594:	90 e0       	ldi	r25, 0x00	; 0
     596:	df 91       	pop	r29
     598:	cf 91       	pop	r28
     59a:	08 95       	ret

0000059c <__vector_10>:
     59c:	1f 92       	push	r1
     59e:	0f 92       	push	r0
     5a0:	0f b6       	in	r0, 0x3f	; 63
     5a2:	0f 92       	push	r0
     5a4:	11 24       	eor	r1, r1
     5a6:	8f 93       	push	r24
     5a8:	80 91 ca 01 	lds	r24, 0x01CA
     5ac:	8f 5f       	subi	r24, 0xFF	; 255
     5ae:	80 93 ca 01 	sts	0x01CA, r24
     5b2:	8f 91       	pop	r24
     5b4:	0f 90       	pop	r0
     5b6:	0f be       	out	0x3f, r0	; 63
     5b8:	0f 90       	pop	r0
     5ba:	1f 90       	pop	r1
     5bc:	18 95       	reti

000005be <getAddress>:
     5be:	80 91 47 01 	lds	r24, 0x0147
     5c2:	08 95       	ret

000005c4 <timeoutOccurred>:
     5c4:	80 91 cd 01 	lds	r24, 0x01CD
     5c8:	10 92 cd 01 	sts	0x01CD, r1
     5cc:	08 95       	ret

000005ce <setTimeout>:
     5ce:	90 93 cc 01 	sts	0x01CC, r25
     5d2:	80 93 cb 01 	sts	0x01CB, r24
     5d6:	08 95       	ret

000005d8 <getTimeout>:
     5d8:	80 91 cb 01 	lds	r24, 0x01CB
     5dc:	90 91 cc 01 	lds	r25, 0x01CC
     5e0:	08 95       	ret

000005e2 <timeoutMclksToMicroseconds>:
     5e2:	af 92       	push	r10
     5e4:	bf 92       	push	r11
     5e6:	cf 92       	push	r12
     5e8:	df 92       	push	r13
     5ea:	ef 92       	push	r14
     5ec:	ff 92       	push	r15
     5ee:	0f 93       	push	r16
     5f0:	1f 93       	push	r17
     5f2:	5c 01       	movw	r10, r24
     5f4:	70 e0       	ldi	r23, 0x00	; 0
     5f6:	80 e0       	ldi	r24, 0x00	; 0
     5f8:	90 e0       	ldi	r25, 0x00	; 0
     5fa:	20 e0       	ldi	r18, 0x00	; 0
     5fc:	3f e2       	ldi	r19, 0x2F	; 47
     5fe:	4a e3       	ldi	r20, 0x3A	; 58
     600:	50 e0       	ldi	r21, 0x00	; 0
     602:	0e 94 71 2b 	call	0x56e2	; 0x56e2 <__mulsi3>
     606:	6c 50       	subi	r22, 0x0C	; 12
     608:	7e 4f       	sbci	r23, 0xFE	; 254
     60a:	8f 4f       	sbci	r24, 0xFF	; 255
     60c:	9f 4f       	sbci	r25, 0xFF	; 255
     60e:	28 ee       	ldi	r18, 0xE8	; 232
     610:	33 e0       	ldi	r19, 0x03	; 3
     612:	40 e0       	ldi	r20, 0x00	; 0
     614:	50 e0       	ldi	r21, 0x00	; 0
     616:	0e 94 a4 2b 	call	0x5748	; 0x5748 <__udivmodsi4>
     61a:	79 01       	movw	r14, r18
     61c:	8a 01       	movw	r16, r20
     61e:	cc 24       	eor	r12, r12
     620:	dd 24       	eor	r13, r13
     622:	c8 01       	movw	r24, r16
     624:	b7 01       	movw	r22, r14
     626:	a6 01       	movw	r20, r12
     628:	95 01       	movw	r18, r10
     62a:	0e 94 71 2b 	call	0x56e2	; 0x56e2 <__mulsi3>
     62e:	16 95       	lsr	r17
     630:	07 95       	ror	r16
     632:	f7 94       	ror	r15
     634:	e7 94       	ror	r14
     636:	6e 0d       	add	r22, r14
     638:	7f 1d       	adc	r23, r15
     63a:	80 1f       	adc	r24, r16
     63c:	91 1f       	adc	r25, r17
     63e:	28 ee       	ldi	r18, 0xE8	; 232
     640:	33 e0       	ldi	r19, 0x03	; 3
     642:	40 e0       	ldi	r20, 0x00	; 0
     644:	50 e0       	ldi	r21, 0x00	; 0
     646:	0e 94 a4 2b 	call	0x5748	; 0x5748 <__udivmodsi4>
     64a:	ca 01       	movw	r24, r20
     64c:	b9 01       	movw	r22, r18
     64e:	1f 91       	pop	r17
     650:	0f 91       	pop	r16
     652:	ff 90       	pop	r15
     654:	ef 90       	pop	r14
     656:	df 90       	pop	r13
     658:	cf 90       	pop	r12
     65a:	bf 90       	pop	r11
     65c:	af 90       	pop	r10
     65e:	08 95       	ret

00000660 <readMulti>:
     660:	ef 92       	push	r14
     662:	ff 92       	push	r15
     664:	0f 93       	push	r16
     666:	1f 93       	push	r17
     668:	cf 93       	push	r28
     66a:	df 93       	push	r29
     66c:	18 2f       	mov	r17, r24
     66e:	7b 01       	movw	r14, r22
     670:	04 2f       	mov	r16, r20
     672:	80 91 47 01 	lds	r24, 0x0147
     676:	0e 94 5b 0a 	call	0x14b6	; 0x14b6 <i2c_start>
     67a:	81 2f       	mov	r24, r17
     67c:	0e 94 b2 0a 	call	0x1564	; 0x1564 <i2c_write>
     680:	80 91 47 01 	lds	r24, 0x0147
     684:	81 60       	ori	r24, 0x01	; 1
     686:	0e 94 a4 0a 	call	0x1548	; 0x1548 <i2c_rep_start>
     68a:	e7 01       	movw	r28, r14
     68c:	0a c0       	rjmp	.+20     	; 0x6a2 <readMulti+0x42>
     68e:	02 30       	cpi	r16, 0x02	; 2
     690:	18 f0       	brcs	.+6      	; 0x698 <readMulti+0x38>
     692:	0e 94 c6 0a 	call	0x158c	; 0x158c <i2c_readAck>
     696:	02 c0       	rjmp	.+4      	; 0x69c <readMulti+0x3c>
     698:	0e 94 d4 0a 	call	0x15a8	; 0x15a8 <i2c_readNak>
     69c:	88 83       	st	Y, r24
     69e:	01 50       	subi	r16, 0x01	; 1
     6a0:	21 96       	adiw	r28, 0x01	; 1
     6a2:	00 23       	and	r16, r16
     6a4:	a1 f7       	brne	.-24     	; 0x68e <readMulti+0x2e>
     6a6:	0e 94 a7 0a 	call	0x154e	; 0x154e <i2c_stop>
     6aa:	df 91       	pop	r29
     6ac:	cf 91       	pop	r28
     6ae:	1f 91       	pop	r17
     6b0:	0f 91       	pop	r16
     6b2:	ff 90       	pop	r15
     6b4:	ef 90       	pop	r14
     6b6:	08 95       	ret

000006b8 <writeMulti>:
     6b8:	0f 93       	push	r16
     6ba:	1f 93       	push	r17
     6bc:	cf 93       	push	r28
     6be:	df 93       	push	r29
     6c0:	18 2f       	mov	r17, r24
     6c2:	eb 01       	movw	r28, r22
     6c4:	04 2f       	mov	r16, r20
     6c6:	80 91 47 01 	lds	r24, 0x0147
     6ca:	0e 94 5b 0a 	call	0x14b6	; 0x14b6 <i2c_start>
     6ce:	81 2f       	mov	r24, r17
     6d0:	0e 94 b2 0a 	call	0x1564	; 0x1564 <i2c_write>
     6d4:	04 c0       	rjmp	.+8      	; 0x6de <writeMulti+0x26>
     6d6:	89 91       	ld	r24, Y+
     6d8:	0e 94 b2 0a 	call	0x1564	; 0x1564 <i2c_write>
     6dc:	01 50       	subi	r16, 0x01	; 1
     6de:	00 23       	and	r16, r16
     6e0:	d1 f7       	brne	.-12     	; 0x6d6 <writeMulti+0x1e>
     6e2:	0e 94 a7 0a 	call	0x154e	; 0x154e <i2c_stop>
     6e6:	df 91       	pop	r29
     6e8:	cf 91       	pop	r28
     6ea:	1f 91       	pop	r17
     6ec:	0f 91       	pop	r16
     6ee:	08 95       	ret

000006f0 <readReg32Bit>:
     6f0:	6f 92       	push	r6
     6f2:	7f 92       	push	r7
     6f4:	8f 92       	push	r8
     6f6:	9f 92       	push	r9
     6f8:	af 92       	push	r10
     6fa:	bf 92       	push	r11
     6fc:	cf 92       	push	r12
     6fe:	df 92       	push	r13
     700:	ef 92       	push	r14
     702:	ff 92       	push	r15
     704:	0f 93       	push	r16
     706:	1f 93       	push	r17
     708:	18 2f       	mov	r17, r24
     70a:	80 91 47 01 	lds	r24, 0x0147
     70e:	0e 94 5b 0a 	call	0x14b6	; 0x14b6 <i2c_start>
     712:	81 2f       	mov	r24, r17
     714:	0e 94 b2 0a 	call	0x1564	; 0x1564 <i2c_write>
     718:	80 91 47 01 	lds	r24, 0x0147
     71c:	81 60       	ori	r24, 0x01	; 1
     71e:	0e 94 a4 0a 	call	0x1548	; 0x1548 <i2c_rep_start>
     722:	0e 94 c6 0a 	call	0x158c	; 0x158c <i2c_readAck>
     726:	68 2e       	mov	r6, r24
     728:	77 24       	eor	r7, r7
     72a:	88 24       	eor	r8, r8
     72c:	99 24       	eor	r9, r9
     72e:	96 2c       	mov	r9, r6
     730:	88 24       	eor	r8, r8
     732:	77 24       	eor	r7, r7
     734:	66 24       	eor	r6, r6
     736:	0e 94 c6 0a 	call	0x158c	; 0x158c <i2c_readAck>
     73a:	a8 2e       	mov	r10, r24
     73c:	0e 94 c6 0a 	call	0x158c	; 0x158c <i2c_readAck>
     740:	e8 2e       	mov	r14, r24
     742:	0e 94 d4 0a 	call	0x15a8	; 0x15a8 <i2c_readNak>
     746:	bb 24       	eor	r11, r11
     748:	cc 24       	eor	r12, r12
     74a:	dd 24       	eor	r13, r13
     74c:	65 01       	movw	r12, r10
     74e:	bb 24       	eor	r11, r11
     750:	aa 24       	eor	r10, r10
     752:	6a 28       	or	r6, r10
     754:	7b 28       	or	r7, r11
     756:	8c 28       	or	r8, r12
     758:	9d 28       	or	r9, r13
     75a:	90 e0       	ldi	r25, 0x00	; 0
     75c:	a0 e0       	ldi	r26, 0x00	; 0
     75e:	b0 e0       	ldi	r27, 0x00	; 0
     760:	68 2a       	or	r6, r24
     762:	79 2a       	or	r7, r25
     764:	8a 2a       	or	r8, r26
     766:	9b 2a       	or	r9, r27
     768:	0e 94 a7 0a 	call	0x154e	; 0x154e <i2c_stop>
     76c:	ff 24       	eor	r15, r15
     76e:	00 e0       	ldi	r16, 0x00	; 0
     770:	10 e0       	ldi	r17, 0x00	; 0
     772:	10 2f       	mov	r17, r16
     774:	0f 2d       	mov	r16, r15
     776:	fe 2c       	mov	r15, r14
     778:	ee 24       	eor	r14, r14
     77a:	e6 28       	or	r14, r6
     77c:	f7 28       	or	r15, r7
     77e:	08 29       	or	r16, r8
     780:	19 29       	or	r17, r9
     782:	b7 01       	movw	r22, r14
     784:	c8 01       	movw	r24, r16
     786:	1f 91       	pop	r17
     788:	0f 91       	pop	r16
     78a:	ff 90       	pop	r15
     78c:	ef 90       	pop	r14
     78e:	df 90       	pop	r13
     790:	cf 90       	pop	r12
     792:	bf 90       	pop	r11
     794:	af 90       	pop	r10
     796:	9f 90       	pop	r9
     798:	8f 90       	pop	r8
     79a:	7f 90       	pop	r7
     79c:	6f 90       	pop	r6
     79e:	08 95       	ret

000007a0 <readReg16Bit>:
     7a0:	ef 92       	push	r14
     7a2:	ff 92       	push	r15
     7a4:	0f 93       	push	r16
     7a6:	1f 93       	push	r17
     7a8:	18 2f       	mov	r17, r24
     7aa:	80 91 47 01 	lds	r24, 0x0147
     7ae:	0e 94 5b 0a 	call	0x14b6	; 0x14b6 <i2c_start>
     7b2:	81 2f       	mov	r24, r17
     7b4:	0e 94 b2 0a 	call	0x1564	; 0x1564 <i2c_write>
     7b8:	80 91 47 01 	lds	r24, 0x0147
     7bc:	81 60       	ori	r24, 0x01	; 1
     7be:	0e 94 a4 0a 	call	0x1548	; 0x1548 <i2c_rep_start>
     7c2:	0e 94 c6 0a 	call	0x158c	; 0x158c <i2c_readAck>
     7c6:	f8 2e       	mov	r15, r24
     7c8:	ee 24       	eor	r14, r14
     7ca:	0e 94 d4 0a 	call	0x15a8	; 0x15a8 <i2c_readNak>
     7ce:	08 2f       	mov	r16, r24
     7d0:	0e 94 a7 0a 	call	0x154e	; 0x154e <i2c_stop>
     7d4:	10 e0       	ldi	r17, 0x00	; 0
     7d6:	0e 29       	or	r16, r14
     7d8:	1f 29       	or	r17, r15
     7da:	c8 01       	movw	r24, r16
     7dc:	1f 91       	pop	r17
     7de:	0f 91       	pop	r16
     7e0:	ff 90       	pop	r15
     7e2:	ef 90       	pop	r14
     7e4:	08 95       	ret

000007e6 <getSignalRateLimit>:
     7e6:	84 e4       	ldi	r24, 0x44	; 68
     7e8:	0e 94 d0 03 	call	0x7a0	; 0x7a0 <readReg16Bit>
     7ec:	a0 e0       	ldi	r26, 0x00	; 0
     7ee:	b0 e0       	ldi	r27, 0x00	; 0
     7f0:	bc 01       	movw	r22, r24
     7f2:	cd 01       	movw	r24, r26
     7f4:	0e 94 75 29 	call	0x52ea	; 0x52ea <__floatunsisf>
     7f8:	20 e0       	ldi	r18, 0x00	; 0
     7fa:	30 e0       	ldi	r19, 0x00	; 0
     7fc:	40 e0       	ldi	r20, 0x00	; 0
     7fe:	5c e3       	ldi	r21, 0x3C	; 60
     800:	0e 94 3c 2a 	call	0x5478	; 0x5478 <__mulsf3>
     804:	08 95       	ret

00000806 <readReg>:
     806:	1f 93       	push	r17
     808:	18 2f       	mov	r17, r24
     80a:	80 91 47 01 	lds	r24, 0x0147
     80e:	0e 94 5b 0a 	call	0x14b6	; 0x14b6 <i2c_start>
     812:	81 2f       	mov	r24, r17
     814:	0e 94 b2 0a 	call	0x1564	; 0x1564 <i2c_write>
     818:	80 91 47 01 	lds	r24, 0x0147
     81c:	81 60       	ori	r24, 0x01	; 1
     81e:	0e 94 a4 0a 	call	0x1548	; 0x1548 <i2c_rep_start>
     822:	0e 94 d4 0a 	call	0x15a8	; 0x15a8 <i2c_readNak>
     826:	18 2f       	mov	r17, r24
     828:	0e 94 a7 0a 	call	0x154e	; 0x154e <i2c_stop>
     82c:	81 2f       	mov	r24, r17
     82e:	1f 91       	pop	r17
     830:	08 95       	ret

00000832 <getSequenceStepEnables>:
     832:	0f 93       	push	r16
     834:	1f 93       	push	r17
     836:	8c 01       	movw	r16, r24
     838:	81 e0       	ldi	r24, 0x01	; 1
     83a:	0e 94 03 04 	call	0x806	; 0x806 <readReg>
     83e:	98 2f       	mov	r25, r24
     840:	92 95       	swap	r25
     842:	91 70       	andi	r25, 0x01	; 1
     844:	f8 01       	movw	r30, r16
     846:	90 83       	st	Z, r25
     848:	98 2f       	mov	r25, r24
     84a:	96 95       	lsr	r25
     84c:	96 95       	lsr	r25
     84e:	96 95       	lsr	r25
     850:	91 70       	andi	r25, 0x01	; 1
     852:	92 83       	std	Z+2, r25	; 0x02
     854:	98 2f       	mov	r25, r24
     856:	96 95       	lsr	r25
     858:	96 95       	lsr	r25
     85a:	91 70       	andi	r25, 0x01	; 1
     85c:	91 83       	std	Z+1, r25	; 0x01
     85e:	82 95       	swap	r24
     860:	86 95       	lsr	r24
     862:	86 95       	lsr	r24
     864:	83 70       	andi	r24, 0x03	; 3
     866:	98 2f       	mov	r25, r24
     868:	91 70       	andi	r25, 0x01	; 1
     86a:	93 83       	std	Z+3, r25	; 0x03
     86c:	86 95       	lsr	r24
     86e:	84 83       	std	Z+4, r24	; 0x04
     870:	1f 91       	pop	r17
     872:	0f 91       	pop	r16
     874:	08 95       	ret

00000876 <getVcselPulsePeriod>:
     876:	88 23       	and	r24, r24
     878:	31 f4       	brne	.+12     	; 0x886 <getVcselPulsePeriod+0x10>
     87a:	80 e5       	ldi	r24, 0x50	; 80
     87c:	0e 94 03 04 	call	0x806	; 0x806 <readReg>
     880:	8f 5f       	subi	r24, 0xFF	; 255
     882:	88 0f       	add	r24, r24
     884:	08 95       	ret
     886:	81 30       	cpi	r24, 0x01	; 1
     888:	11 f0       	breq	.+4      	; 0x88e <getVcselPulsePeriod+0x18>
     88a:	8f ef       	ldi	r24, 0xFF	; 255
     88c:	08 95       	ret
     88e:	80 e7       	ldi	r24, 0x70	; 112
     890:	0e 94 03 04 	call	0x806	; 0x806 <readReg>
     894:	8f 5f       	subi	r24, 0xFF	; 255
     896:	88 0f       	add	r24, r24
     898:	08 95       	ret

0000089a <getSequenceStepTimeouts>:
     89a:	0f 93       	push	r16
     89c:	1f 93       	push	r17
     89e:	cf 93       	push	r28
     8a0:	df 93       	push	r29
     8a2:	8c 01       	movw	r16, r24
     8a4:	eb 01       	movw	r28, r22
     8a6:	80 e0       	ldi	r24, 0x00	; 0
     8a8:	0e 94 3b 04 	call	0x876	; 0x876 <getVcselPulsePeriod>
     8ac:	88 83       	st	Y, r24
     8ae:	19 82       	std	Y+1, r1	; 0x01
     8b0:	86 e4       	ldi	r24, 0x46	; 70
     8b2:	0e 94 03 04 	call	0x806	; 0x806 <readReg>
     8b6:	90 e0       	ldi	r25, 0x00	; 0
     8b8:	01 96       	adiw	r24, 0x01	; 1
     8ba:	9d 83       	std	Y+5, r25	; 0x05
     8bc:	8c 83       	std	Y+4, r24	; 0x04
     8be:	68 81       	ld	r22, Y
     8c0:	0e 94 f1 02 	call	0x5e2	; 0x5e2 <timeoutMclksToMicroseconds>
     8c4:	6a 87       	std	Y+10, r22	; 0x0a
     8c6:	7b 87       	std	Y+11, r23	; 0x0b
     8c8:	8c 87       	std	Y+12, r24	; 0x0c
     8ca:	9d 87       	std	Y+13, r25	; 0x0d
     8cc:	81 e5       	ldi	r24, 0x51	; 81
     8ce:	0e 94 d0 03 	call	0x7a0	; 0x7a0 <readReg16Bit>
     8d2:	28 2f       	mov	r18, r24
     8d4:	30 e0       	ldi	r19, 0x00	; 0
     8d6:	02 c0       	rjmp	.+4      	; 0x8dc <getSequenceStepTimeouts+0x42>
     8d8:	22 0f       	add	r18, r18
     8da:	33 1f       	adc	r19, r19
     8dc:	9a 95       	dec	r25
     8de:	e2 f7       	brpl	.-8      	; 0x8d8 <getSequenceStepTimeouts+0x3e>
     8e0:	2f 5f       	subi	r18, 0xFF	; 255
     8e2:	3f 4f       	sbci	r19, 0xFF	; 255
     8e4:	3f 83       	std	Y+7, r19	; 0x07
     8e6:	2e 83       	std	Y+6, r18	; 0x06
     8e8:	c9 01       	movw	r24, r18
     8ea:	68 81       	ld	r22, Y
     8ec:	0e 94 f1 02 	call	0x5e2	; 0x5e2 <timeoutMclksToMicroseconds>
     8f0:	6e 87       	std	Y+14, r22	; 0x0e
     8f2:	7f 87       	std	Y+15, r23	; 0x0f
     8f4:	88 8b       	std	Y+16, r24	; 0x10
     8f6:	99 8b       	std	Y+17, r25	; 0x11
     8f8:	81 e0       	ldi	r24, 0x01	; 1
     8fa:	0e 94 3b 04 	call	0x876	; 0x876 <getVcselPulsePeriod>
     8fe:	8a 83       	std	Y+2, r24	; 0x02
     900:	1b 82       	std	Y+3, r1	; 0x03
     902:	81 e7       	ldi	r24, 0x71	; 113
     904:	0e 94 d0 03 	call	0x7a0	; 0x7a0 <readReg16Bit>
     908:	28 2f       	mov	r18, r24
     90a:	30 e0       	ldi	r19, 0x00	; 0
     90c:	02 c0       	rjmp	.+4      	; 0x912 <getSequenceStepTimeouts+0x78>
     90e:	22 0f       	add	r18, r18
     910:	33 1f       	adc	r19, r19
     912:	9a 95       	dec	r25
     914:	e2 f7       	brpl	.-8      	; 0x90e <getSequenceStepTimeouts+0x74>
     916:	2f 5f       	subi	r18, 0xFF	; 255
     918:	3f 4f       	sbci	r19, 0xFF	; 255
     91a:	39 87       	std	Y+9, r19	; 0x09
     91c:	28 87       	std	Y+8, r18	; 0x08
     91e:	f8 01       	movw	r30, r16
     920:	83 81       	ldd	r24, Z+3	; 0x03
     922:	88 23       	and	r24, r24
     924:	31 f0       	breq	.+12     	; 0x932 <getSequenceStepTimeouts+0x98>
     926:	8e 81       	ldd	r24, Y+6	; 0x06
     928:	9f 81       	ldd	r25, Y+7	; 0x07
     92a:	28 1b       	sub	r18, r24
     92c:	39 0b       	sbc	r19, r25
     92e:	39 87       	std	Y+9, r19	; 0x09
     930:	28 87       	std	Y+8, r18	; 0x08
     932:	88 85       	ldd	r24, Y+8	; 0x08
     934:	99 85       	ldd	r25, Y+9	; 0x09
     936:	6a 81       	ldd	r22, Y+2	; 0x02
     938:	0e 94 f1 02 	call	0x5e2	; 0x5e2 <timeoutMclksToMicroseconds>
     93c:	6a 8b       	std	Y+18, r22	; 0x12
     93e:	7b 8b       	std	Y+19, r23	; 0x13
     940:	8c 8b       	std	Y+20, r24	; 0x14
     942:	9d 8b       	std	Y+21, r25	; 0x15
     944:	df 91       	pop	r29
     946:	cf 91       	pop	r28
     948:	1f 91       	pop	r17
     94a:	0f 91       	pop	r16
     94c:	08 95       	ret

0000094e <getMeasurementTimingBudget>:
     94e:	0f 93       	push	r16
     950:	1f 93       	push	r17
     952:	df 93       	push	r29
     954:	cf 93       	push	r28
     956:	cd b7       	in	r28, 0x3d	; 61
     958:	de b7       	in	r29, 0x3e	; 62
     95a:	6b 97       	sbiw	r28, 0x1b	; 27
     95c:	0f b6       	in	r0, 0x3f	; 63
     95e:	f8 94       	cli
     960:	de bf       	out	0x3e, r29	; 62
     962:	0f be       	out	0x3f, r0	; 63
     964:	cd bf       	out	0x3d, r28	; 61
     966:	8e 01       	movw	r16, r28
     968:	0f 5f       	subi	r16, 0xFF	; 255
     96a:	1f 4f       	sbci	r17, 0xFF	; 255
     96c:	c8 01       	movw	r24, r16
     96e:	0e 94 19 04 	call	0x832	; 0x832 <getSequenceStepEnables>
     972:	c8 01       	movw	r24, r16
     974:	be 01       	movw	r22, r28
     976:	6a 5f       	subi	r22, 0xFA	; 250
     978:	7f 4f       	sbci	r23, 0xFF	; 255
     97a:	0e 94 4d 04 	call	0x89a	; 0x89a <getSequenceStepTimeouts>
     97e:	89 81       	ldd	r24, Y+1	; 0x01
     980:	88 23       	and	r24, r24
     982:	29 f4       	brne	.+10     	; 0x98e <getMeasurementTimingBudget+0x40>
     984:	26 e3       	ldi	r18, 0x36	; 54
     986:	3b e0       	ldi	r19, 0x0B	; 11
     988:	40 e0       	ldi	r20, 0x00	; 0
     98a:	50 e0       	ldi	r21, 0x00	; 0
     98c:	08 c0       	rjmp	.+16     	; 0x99e <getMeasurementTimingBudget+0x50>
     98e:	28 89       	ldd	r18, Y+16	; 0x10
     990:	39 89       	ldd	r19, Y+17	; 0x11
     992:	4a 89       	ldd	r20, Y+18	; 0x12
     994:	5b 89       	ldd	r21, Y+19	; 0x13
     996:	2c 57       	subi	r18, 0x7C	; 124
     998:	32 4f       	sbci	r19, 0xF2	; 242
     99a:	4f 4f       	sbci	r20, 0xFF	; 255
     99c:	5f 4f       	sbci	r21, 0xFF	; 255
     99e:	8b 81       	ldd	r24, Y+3	; 0x03
     9a0:	88 23       	and	r24, r24
     9a2:	69 f0       	breq	.+26     	; 0x9be <getMeasurementTimingBudget+0x70>
     9a4:	88 89       	ldd	r24, Y+16	; 0x10
     9a6:	99 89       	ldd	r25, Y+17	; 0x11
     9a8:	aa 89       	ldd	r26, Y+18	; 0x12
     9aa:	bb 89       	ldd	r27, Y+19	; 0x13
     9ac:	8e 54       	subi	r24, 0x4E	; 78
     9ae:	9d 4f       	sbci	r25, 0xFD	; 253
     9b0:	af 4f       	sbci	r26, 0xFF	; 255
     9b2:	bf 4f       	sbci	r27, 0xFF	; 255
     9b4:	88 0f       	add	r24, r24
     9b6:	99 1f       	adc	r25, r25
     9b8:	aa 1f       	adc	r26, r26
     9ba:	bb 1f       	adc	r27, r27
     9bc:	0b c0       	rjmp	.+22     	; 0x9d4 <getMeasurementTimingBudget+0x86>
     9be:	8a 81       	ldd	r24, Y+2	; 0x02
     9c0:	88 23       	and	r24, r24
     9c2:	61 f0       	breq	.+24     	; 0x9dc <getMeasurementTimingBudget+0x8e>
     9c4:	88 89       	ldd	r24, Y+16	; 0x10
     9c6:	99 89       	ldd	r25, Y+17	; 0x11
     9c8:	aa 89       	ldd	r26, Y+18	; 0x12
     9ca:	bb 89       	ldd	r27, Y+19	; 0x13
     9cc:	8c 56       	subi	r24, 0x6C	; 108
     9ce:	9d 4f       	sbci	r25, 0xFD	; 253
     9d0:	af 4f       	sbci	r26, 0xFF	; 255
     9d2:	bf 4f       	sbci	r27, 0xFF	; 255
     9d4:	28 0f       	add	r18, r24
     9d6:	39 1f       	adc	r19, r25
     9d8:	4a 1f       	adc	r20, r26
     9da:	5b 1f       	adc	r21, r27
     9dc:	8c 81       	ldd	r24, Y+4	; 0x04
     9de:	88 23       	and	r24, r24
     9e0:	61 f0       	breq	.+24     	; 0x9fa <getMeasurementTimingBudget+0xac>
     9e2:	8c 89       	ldd	r24, Y+20	; 0x14
     9e4:	9d 89       	ldd	r25, Y+21	; 0x15
     9e6:	ae 89       	ldd	r26, Y+22	; 0x16
     9e8:	bf 89       	ldd	r27, Y+23	; 0x17
     9ea:	8c 56       	subi	r24, 0x6C	; 108
     9ec:	9d 4f       	sbci	r25, 0xFD	; 253
     9ee:	af 4f       	sbci	r26, 0xFF	; 255
     9f0:	bf 4f       	sbci	r27, 0xFF	; 255
     9f2:	28 0f       	add	r18, r24
     9f4:	39 1f       	adc	r19, r25
     9f6:	4a 1f       	adc	r20, r26
     9f8:	5b 1f       	adc	r21, r27
     9fa:	8d 81       	ldd	r24, Y+5	; 0x05
     9fc:	88 23       	and	r24, r24
     9fe:	61 f0       	breq	.+24     	; 0xa18 <getMeasurementTimingBudget+0xca>
     a00:	88 8d       	ldd	r24, Y+24	; 0x18
     a02:	99 8d       	ldd	r25, Y+25	; 0x19
     a04:	aa 8d       	ldd	r26, Y+26	; 0x1a
     a06:	bb 8d       	ldd	r27, Y+27	; 0x1b
     a08:	8a 5d       	subi	r24, 0xDA	; 218
     a0a:	9d 4f       	sbci	r25, 0xFD	; 253
     a0c:	af 4f       	sbci	r26, 0xFF	; 255
     a0e:	bf 4f       	sbci	r27, 0xFF	; 255
     a10:	28 0f       	add	r18, r24
     a12:	39 1f       	adc	r19, r25
     a14:	4a 1f       	adc	r20, r26
     a16:	5b 1f       	adc	r21, r27
     a18:	20 93 e1 01 	sts	0x01E1, r18
     a1c:	30 93 e2 01 	sts	0x01E2, r19
     a20:	40 93 e3 01 	sts	0x01E3, r20
     a24:	50 93 e4 01 	sts	0x01E4, r21
     a28:	b9 01       	movw	r22, r18
     a2a:	ca 01       	movw	r24, r20
     a2c:	6b 96       	adiw	r28, 0x1b	; 27
     a2e:	0f b6       	in	r0, 0x3f	; 63
     a30:	f8 94       	cli
     a32:	de bf       	out	0x3e, r29	; 62
     a34:	0f be       	out	0x3f, r0	; 63
     a36:	cd bf       	out	0x3d, r28	; 61
     a38:	cf 91       	pop	r28
     a3a:	df 91       	pop	r29
     a3c:	1f 91       	pop	r17
     a3e:	0f 91       	pop	r16
     a40:	08 95       	ret

00000a42 <writeReg32Bit>:
     a42:	df 92       	push	r13
     a44:	ef 92       	push	r14
     a46:	ff 92       	push	r15
     a48:	0f 93       	push	r16
     a4a:	1f 93       	push	r17
     a4c:	d8 2e       	mov	r13, r24
     a4e:	7a 01       	movw	r14, r20
     a50:	8b 01       	movw	r16, r22
     a52:	80 91 47 01 	lds	r24, 0x0147
     a56:	0e 94 5b 0a 	call	0x14b6	; 0x14b6 <i2c_start>
     a5a:	8d 2d       	mov	r24, r13
     a5c:	0e 94 b2 0a 	call	0x1564	; 0x1564 <i2c_write>
     a60:	81 2f       	mov	r24, r17
     a62:	99 27       	eor	r25, r25
     a64:	aa 27       	eor	r26, r26
     a66:	bb 27       	eor	r27, r27
     a68:	0e 94 b2 0a 	call	0x1564	; 0x1564 <i2c_write>
     a6c:	c8 01       	movw	r24, r16
     a6e:	aa 27       	eor	r26, r26
     a70:	bb 27       	eor	r27, r27
     a72:	0e 94 b2 0a 	call	0x1564	; 0x1564 <i2c_write>
     a76:	bb 27       	eor	r27, r27
     a78:	a1 2f       	mov	r26, r17
     a7a:	90 2f       	mov	r25, r16
     a7c:	8f 2d       	mov	r24, r15
     a7e:	0e 94 b2 0a 	call	0x1564	; 0x1564 <i2c_write>
     a82:	8e 2d       	mov	r24, r14
     a84:	0e 94 b2 0a 	call	0x1564	; 0x1564 <i2c_write>
     a88:	0e 94 a7 0a 	call	0x154e	; 0x154e <i2c_stop>
     a8c:	1f 91       	pop	r17
     a8e:	0f 91       	pop	r16
     a90:	ff 90       	pop	r15
     a92:	ef 90       	pop	r14
     a94:	df 90       	pop	r13
     a96:	08 95       	ret

00000a98 <writeReg16Bit>:
     a98:	ff 92       	push	r15
     a9a:	0f 93       	push	r16
     a9c:	1f 93       	push	r17
     a9e:	18 2f       	mov	r17, r24
     aa0:	f6 2e       	mov	r15, r22
     aa2:	07 2f       	mov	r16, r23
     aa4:	80 91 47 01 	lds	r24, 0x0147
     aa8:	0e 94 5b 0a 	call	0x14b6	; 0x14b6 <i2c_start>
     aac:	81 2f       	mov	r24, r17
     aae:	0e 94 b2 0a 	call	0x1564	; 0x1564 <i2c_write>
     ab2:	80 2f       	mov	r24, r16
     ab4:	0e 94 b2 0a 	call	0x1564	; 0x1564 <i2c_write>
     ab8:	8f 2d       	mov	r24, r15
     aba:	0e 94 b2 0a 	call	0x1564	; 0x1564 <i2c_write>
     abe:	0e 94 a7 0a 	call	0x154e	; 0x154e <i2c_stop>
     ac2:	1f 91       	pop	r17
     ac4:	0f 91       	pop	r16
     ac6:	ff 90       	pop	r15
     ac8:	08 95       	ret

00000aca <setMeasurementTimingBudget>:
     aca:	5f 92       	push	r5
     acc:	6f 92       	push	r6
     ace:	7f 92       	push	r7
     ad0:	8f 92       	push	r8
     ad2:	9f 92       	push	r9
     ad4:	af 92       	push	r10
     ad6:	bf 92       	push	r11
     ad8:	cf 92       	push	r12
     ada:	df 92       	push	r13
     adc:	ef 92       	push	r14
     ade:	ff 92       	push	r15
     ae0:	0f 93       	push	r16
     ae2:	1f 93       	push	r17
     ae4:	df 93       	push	r29
     ae6:	cf 93       	push	r28
     ae8:	cd b7       	in	r28, 0x3d	; 61
     aea:	de b7       	in	r29, 0x3e	; 62
     aec:	6b 97       	sbiw	r28, 0x1b	; 27
     aee:	0f b6       	in	r0, 0x3f	; 63
     af0:	f8 94       	cli
     af2:	de bf       	out	0x3e, r29	; 62
     af4:	0f be       	out	0x3f, r0	; 63
     af6:	cd bf       	out	0x3d, r28	; 61
     af8:	3b 01       	movw	r6, r22
     afa:	4c 01       	movw	r8, r24
     afc:	80 e2       	ldi	r24, 0x20	; 32
     afe:	68 16       	cp	r6, r24
     b00:	8e e4       	ldi	r24, 0x4E	; 78
     b02:	78 06       	cpc	r7, r24
     b04:	80 e0       	ldi	r24, 0x00	; 0
     b06:	88 06       	cpc	r8, r24
     b08:	80 e0       	ldi	r24, 0x00	; 0
     b0a:	98 06       	cpc	r9, r24
     b0c:	08 f4       	brcc	.+2      	; 0xb10 <setMeasurementTimingBudget+0x46>
     b0e:	c2 c0       	rjmp	.+388    	; 0xc94 <setMeasurementTimingBudget+0x1ca>
     b10:	8e 01       	movw	r16, r28
     b12:	0f 5f       	subi	r16, 0xFF	; 255
     b14:	1f 4f       	sbci	r17, 0xFF	; 255
     b16:	c8 01       	movw	r24, r16
     b18:	0e 94 19 04 	call	0x832	; 0x832 <getSequenceStepEnables>
     b1c:	c8 01       	movw	r24, r16
     b1e:	be 01       	movw	r22, r28
     b20:	6a 5f       	subi	r22, 0xFA	; 250
     b22:	7f 4f       	sbci	r23, 0xFF	; 255
     b24:	0e 94 4d 04 	call	0x89a	; 0x89a <getSequenceStepTimeouts>
     b28:	89 81       	ldd	r24, Y+1	; 0x01
     b2a:	88 23       	and	r24, r24
     b2c:	29 f4       	brne	.+10     	; 0xb38 <setMeasurementTimingBudget+0x6e>
     b2e:	28 ee       	ldi	r18, 0xE8	; 232
     b30:	38 e0       	ldi	r19, 0x08	; 8
     b32:	40 e0       	ldi	r20, 0x00	; 0
     b34:	50 e0       	ldi	r21, 0x00	; 0
     b36:	08 c0       	rjmp	.+16     	; 0xb48 <setMeasurementTimingBudget+0x7e>
     b38:	28 89       	ldd	r18, Y+16	; 0x10
     b3a:	39 89       	ldd	r19, Y+17	; 0x11
     b3c:	4a 89       	ldd	r20, Y+18	; 0x12
     b3e:	5b 89       	ldd	r21, Y+19	; 0x13
     b40:	2a 5c       	subi	r18, 0xCA	; 202
     b42:	34 4f       	sbci	r19, 0xF4	; 244
     b44:	4f 4f       	sbci	r20, 0xFF	; 255
     b46:	5f 4f       	sbci	r21, 0xFF	; 255
     b48:	8b 81       	ldd	r24, Y+3	; 0x03
     b4a:	88 23       	and	r24, r24
     b4c:	69 f0       	breq	.+26     	; 0xb68 <setMeasurementTimingBudget+0x9e>
     b4e:	88 89       	ldd	r24, Y+16	; 0x10
     b50:	99 89       	ldd	r25, Y+17	; 0x11
     b52:	aa 89       	ldd	r26, Y+18	; 0x12
     b54:	bb 89       	ldd	r27, Y+19	; 0x13
     b56:	8e 54       	subi	r24, 0x4E	; 78
     b58:	9d 4f       	sbci	r25, 0xFD	; 253
     b5a:	af 4f       	sbci	r26, 0xFF	; 255
     b5c:	bf 4f       	sbci	r27, 0xFF	; 255
     b5e:	88 0f       	add	r24, r24
     b60:	99 1f       	adc	r25, r25
     b62:	aa 1f       	adc	r26, r26
     b64:	bb 1f       	adc	r27, r27
     b66:	0b c0       	rjmp	.+22     	; 0xb7e <setMeasurementTimingBudget+0xb4>
     b68:	8a 81       	ldd	r24, Y+2	; 0x02
     b6a:	88 23       	and	r24, r24
     b6c:	61 f0       	breq	.+24     	; 0xb86 <setMeasurementTimingBudget+0xbc>
     b6e:	88 89       	ldd	r24, Y+16	; 0x10
     b70:	99 89       	ldd	r25, Y+17	; 0x11
     b72:	aa 89       	ldd	r26, Y+18	; 0x12
     b74:	bb 89       	ldd	r27, Y+19	; 0x13
     b76:	8c 56       	subi	r24, 0x6C	; 108
     b78:	9d 4f       	sbci	r25, 0xFD	; 253
     b7a:	af 4f       	sbci	r26, 0xFF	; 255
     b7c:	bf 4f       	sbci	r27, 0xFF	; 255
     b7e:	28 0f       	add	r18, r24
     b80:	39 1f       	adc	r19, r25
     b82:	4a 1f       	adc	r20, r26
     b84:	5b 1f       	adc	r21, r27
     b86:	5c 80       	ldd	r5, Y+4	; 0x04
     b88:	55 20       	and	r5, r5
     b8a:	61 f0       	breq	.+24     	; 0xba4 <setMeasurementTimingBudget+0xda>
     b8c:	8c 89       	ldd	r24, Y+20	; 0x14
     b8e:	9d 89       	ldd	r25, Y+21	; 0x15
     b90:	ae 89       	ldd	r26, Y+22	; 0x16
     b92:	bf 89       	ldd	r27, Y+23	; 0x17
     b94:	8c 56       	subi	r24, 0x6C	; 108
     b96:	9d 4f       	sbci	r25, 0xFD	; 253
     b98:	af 4f       	sbci	r26, 0xFF	; 255
     b9a:	bf 4f       	sbci	r27, 0xFF	; 255
     b9c:	28 0f       	add	r18, r24
     b9e:	39 1f       	adc	r19, r25
     ba0:	4a 1f       	adc	r20, r26
     ba2:	5b 1f       	adc	r21, r27
     ba4:	8d 81       	ldd	r24, Y+5	; 0x05
     ba6:	88 23       	and	r24, r24
     ba8:	09 f4       	brne	.+2      	; 0xbac <setMeasurementTimingBudget+0xe2>
     baa:	72 c0       	rjmp	.+228    	; 0xc90 <setMeasurementTimingBudget+0x1c6>
     bac:	f6 e2       	ldi	r31, 0x26	; 38
     bae:	af 2e       	mov	r10, r31
     bb0:	f2 e0       	ldi	r31, 0x02	; 2
     bb2:	bf 2e       	mov	r11, r31
     bb4:	c1 2c       	mov	r12, r1
     bb6:	d1 2c       	mov	r13, r1
     bb8:	a2 0e       	add	r10, r18
     bba:	b3 1e       	adc	r11, r19
     bbc:	c4 1e       	adc	r12, r20
     bbe:	d5 1e       	adc	r13, r21
     bc0:	6a 14       	cp	r6, r10
     bc2:	7b 04       	cpc	r7, r11
     bc4:	8c 04       	cpc	r8, r12
     bc6:	9d 04       	cpc	r9, r13
     bc8:	08 f4       	brcc	.+2      	; 0xbcc <setMeasurementTimingBudget+0x102>
     bca:	64 c0       	rjmp	.+200    	; 0xc94 <setMeasurementTimingBudget+0x1ca>
     bcc:	68 85       	ldd	r22, Y+8	; 0x08
     bce:	70 e0       	ldi	r23, 0x00	; 0
     bd0:	80 e0       	ldi	r24, 0x00	; 0
     bd2:	90 e0       	ldi	r25, 0x00	; 0
     bd4:	20 e0       	ldi	r18, 0x00	; 0
     bd6:	3f e2       	ldi	r19, 0x2F	; 47
     bd8:	4a e3       	ldi	r20, 0x3A	; 58
     bda:	50 e0       	ldi	r21, 0x00	; 0
     bdc:	0e 94 71 2b 	call	0x56e2	; 0x56e2 <__mulsi3>
     be0:	6c 50       	subi	r22, 0x0C	; 12
     be2:	7e 4f       	sbci	r23, 0xFE	; 254
     be4:	8f 4f       	sbci	r24, 0xFF	; 255
     be6:	9f 4f       	sbci	r25, 0xFF	; 255
     be8:	28 ee       	ldi	r18, 0xE8	; 232
     bea:	33 e0       	ldi	r19, 0x03	; 3
     bec:	40 e0       	ldi	r20, 0x00	; 0
     bee:	50 e0       	ldi	r21, 0x00	; 0
     bf0:	0e 94 a4 2b 	call	0x5748	; 0x5748 <__udivmodsi4>
     bf4:	79 01       	movw	r14, r18
     bf6:	8a 01       	movw	r16, r20
     bf8:	c4 01       	movw	r24, r8
     bfa:	b3 01       	movw	r22, r6
     bfc:	6a 19       	sub	r22, r10
     bfe:	7b 09       	sbc	r23, r11
     c00:	8c 09       	sbc	r24, r12
     c02:	9d 09       	sbc	r25, r13
     c04:	28 ee       	ldi	r18, 0xE8	; 232
     c06:	33 e0       	ldi	r19, 0x03	; 3
     c08:	40 e0       	ldi	r20, 0x00	; 0
     c0a:	50 e0       	ldi	r21, 0x00	; 0
     c0c:	0e 94 71 2b 	call	0x56e2	; 0x56e2 <__mulsi3>
     c10:	9b 01       	movw	r18, r22
     c12:	ac 01       	movw	r20, r24
     c14:	c8 01       	movw	r24, r16
     c16:	b7 01       	movw	r22, r14
     c18:	96 95       	lsr	r25
     c1a:	87 95       	ror	r24
     c1c:	77 95       	ror	r23
     c1e:	67 95       	ror	r22
     c20:	62 0f       	add	r22, r18
     c22:	73 1f       	adc	r23, r19
     c24:	84 1f       	adc	r24, r20
     c26:	95 1f       	adc	r25, r21
     c28:	a8 01       	movw	r20, r16
     c2a:	97 01       	movw	r18, r14
     c2c:	0e 94 a4 2b 	call	0x5748	; 0x5748 <__udivmodsi4>
     c30:	55 20       	and	r5, r5
     c32:	21 f0       	breq	.+8      	; 0xc3c <setMeasurementTimingBudget+0x172>
     c34:	8c 85       	ldd	r24, Y+12	; 0x0c
     c36:	9d 85       	ldd	r25, Y+13	; 0x0d
     c38:	28 0f       	add	r18, r24
     c3a:	39 1f       	adc	r19, r25
     c3c:	21 15       	cp	r18, r1
     c3e:	31 05       	cpc	r19, r1
     c40:	19 f4       	brne	.+6      	; 0xc48 <setMeasurementTimingBudget+0x17e>
     c42:	60 e0       	ldi	r22, 0x00	; 0
     c44:	70 e0       	ldi	r23, 0x00	; 0
     c46:	19 c0       	rjmp	.+50     	; 0xc7a <setMeasurementTimingBudget+0x1b0>
     c48:	21 50       	subi	r18, 0x01	; 1
     c4a:	30 40       	sbci	r19, 0x00	; 0
     c4c:	40 e0       	ldi	r20, 0x00	; 0
     c4e:	50 e0       	ldi	r21, 0x00	; 0
     c50:	e0 e0       	ldi	r30, 0x00	; 0
     c52:	f0 e0       	ldi	r31, 0x00	; 0
     c54:	05 c0       	rjmp	.+10     	; 0xc60 <setMeasurementTimingBudget+0x196>
     c56:	56 95       	lsr	r21
     c58:	47 95       	ror	r20
     c5a:	37 95       	ror	r19
     c5c:	27 95       	ror	r18
     c5e:	31 96       	adiw	r30, 0x01	; 1
     c60:	da 01       	movw	r26, r20
     c62:	c9 01       	movw	r24, r18
     c64:	80 70       	andi	r24, 0x00	; 0
     c66:	00 97       	sbiw	r24, 0x00	; 0
     c68:	a1 05       	cpc	r26, r1
     c6a:	b1 05       	cpc	r27, r1
     c6c:	a1 f7       	brne	.-24     	; 0xc56 <setMeasurementTimingBudget+0x18c>
     c6e:	b9 01       	movw	r22, r18
     c70:	70 70       	andi	r23, 0x00	; 0
     c72:	9e 2f       	mov	r25, r30
     c74:	88 27       	eor	r24, r24
     c76:	68 2b       	or	r22, r24
     c78:	79 2b       	or	r23, r25
     c7a:	81 e7       	ldi	r24, 0x71	; 113
     c7c:	0e 94 4c 05 	call	0xa98	; 0xa98 <writeReg16Bit>
     c80:	60 92 e1 01 	sts	0x01E1, r6
     c84:	70 92 e2 01 	sts	0x01E2, r7
     c88:	80 92 e3 01 	sts	0x01E3, r8
     c8c:	90 92 e4 01 	sts	0x01E4, r9
     c90:	81 e0       	ldi	r24, 0x01	; 1
     c92:	01 c0       	rjmp	.+2      	; 0xc96 <setMeasurementTimingBudget+0x1cc>
     c94:	80 e0       	ldi	r24, 0x00	; 0
     c96:	6b 96       	adiw	r28, 0x1b	; 27
     c98:	0f b6       	in	r0, 0x3f	; 63
     c9a:	f8 94       	cli
     c9c:	de bf       	out	0x3e, r29	; 62
     c9e:	0f be       	out	0x3f, r0	; 63
     ca0:	cd bf       	out	0x3d, r28	; 61
     ca2:	cf 91       	pop	r28
     ca4:	df 91       	pop	r29
     ca6:	1f 91       	pop	r17
     ca8:	0f 91       	pop	r16
     caa:	ff 90       	pop	r15
     cac:	ef 90       	pop	r14
     cae:	df 90       	pop	r13
     cb0:	cf 90       	pop	r12
     cb2:	bf 90       	pop	r11
     cb4:	af 90       	pop	r10
     cb6:	9f 90       	pop	r9
     cb8:	8f 90       	pop	r8
     cba:	7f 90       	pop	r7
     cbc:	6f 90       	pop	r6
     cbe:	5f 90       	pop	r5
     cc0:	08 95       	ret

00000cc2 <setSignalRateLimit>:
     cc2:	ef 92       	push	r14
     cc4:	ff 92       	push	r15
     cc6:	0f 93       	push	r16
     cc8:	1f 93       	push	r17
     cca:	7b 01       	movw	r14, r22
     ccc:	8c 01       	movw	r16, r24
     cce:	20 e0       	ldi	r18, 0x00	; 0
     cd0:	30 e0       	ldi	r19, 0x00	; 0
     cd2:	40 e0       	ldi	r20, 0x00	; 0
     cd4:	50 e0       	ldi	r21, 0x00	; 0
     cd6:	0e 94 42 29 	call	0x5284	; 0x5284 <__cmpsf2>
     cda:	87 fd       	sbrc	r24, 7
     cdc:	1c c0       	rjmp	.+56     	; 0xd16 <setSignalRateLimit+0x54>
     cde:	c8 01       	movw	r24, r16
     ce0:	b7 01       	movw	r22, r14
     ce2:	28 eb       	ldi	r18, 0xB8	; 184
     ce4:	3e ef       	ldi	r19, 0xFE	; 254
     ce6:	4f ef       	ldi	r20, 0xFF	; 255
     ce8:	53 e4       	ldi	r21, 0x43	; 67
     cea:	0e 94 38 2a 	call	0x5470	; 0x5470 <__gesf2>
     cee:	18 16       	cp	r1, r24
     cf0:	94 f0       	brlt	.+36     	; 0xd16 <setSignalRateLimit+0x54>
     cf2:	c8 01       	movw	r24, r16
     cf4:	b7 01       	movw	r22, r14
     cf6:	20 e0       	ldi	r18, 0x00	; 0
     cf8:	30 e0       	ldi	r19, 0x00	; 0
     cfa:	40 e0       	ldi	r20, 0x00	; 0
     cfc:	53 e4       	ldi	r21, 0x43	; 67
     cfe:	0e 94 3c 2a 	call	0x5478	; 0x5478 <__mulsf3>
     d02:	0e 94 49 29 	call	0x5292	; 0x5292 <__fixunssfsi>
     d06:	9b 01       	movw	r18, r22
     d08:	ac 01       	movw	r20, r24
     d0a:	84 e4       	ldi	r24, 0x44	; 68
     d0c:	b9 01       	movw	r22, r18
     d0e:	0e 94 4c 05 	call	0xa98	; 0xa98 <writeReg16Bit>
     d12:	81 e0       	ldi	r24, 0x01	; 1
     d14:	01 c0       	rjmp	.+2      	; 0xd18 <setSignalRateLimit+0x56>
     d16:	80 e0       	ldi	r24, 0x00	; 0
     d18:	1f 91       	pop	r17
     d1a:	0f 91       	pop	r16
     d1c:	ff 90       	pop	r15
     d1e:	ef 90       	pop	r14
     d20:	08 95       	ret

00000d22 <writeReg>:
     d22:	0f 93       	push	r16
     d24:	1f 93       	push	r17
     d26:	18 2f       	mov	r17, r24
     d28:	06 2f       	mov	r16, r22
     d2a:	80 91 47 01 	lds	r24, 0x0147
     d2e:	0e 94 5b 0a 	call	0x14b6	; 0x14b6 <i2c_start>
     d32:	81 2f       	mov	r24, r17
     d34:	0e 94 b2 0a 	call	0x1564	; 0x1564 <i2c_write>
     d38:	80 2f       	mov	r24, r16
     d3a:	0e 94 b2 0a 	call	0x1564	; 0x1564 <i2c_write>
     d3e:	0e 94 a7 0a 	call	0x154e	; 0x154e <i2c_stop>
     d42:	1f 91       	pop	r17
     d44:	0f 91       	pop	r16
     d46:	08 95       	ret

00000d48 <performSingleRefCalibration>:
     d48:	68 2f       	mov	r22, r24
     d4a:	61 60       	ori	r22, 0x01	; 1
     d4c:	80 e0       	ldi	r24, 0x00	; 0
     d4e:	0e 94 91 06 	call	0xd22	; 0xd22 <writeReg>
     d52:	0e 94 f9 0a 	call	0x15f2	; 0x15f2 <millis>
     d56:	70 93 df 01 	sts	0x01DF, r23
     d5a:	60 93 de 01 	sts	0x01DE, r22
     d5e:	17 c0       	rjmp	.+46     	; 0xd8e <performSingleRefCalibration+0x46>
     d60:	80 91 cb 01 	lds	r24, 0x01CB
     d64:	90 91 cc 01 	lds	r25, 0x01CC
     d68:	89 2b       	or	r24, r25
     d6a:	89 f0       	breq	.+34     	; 0xd8e <performSingleRefCalibration+0x46>
     d6c:	0e 94 f9 0a 	call	0x15f2	; 0x15f2 <millis>
     d70:	20 91 de 01 	lds	r18, 0x01DE
     d74:	30 91 df 01 	lds	r19, 0x01DF
     d78:	62 1b       	sub	r22, r18
     d7a:	73 0b       	sbc	r23, r19
     d7c:	20 91 cb 01 	lds	r18, 0x01CB
     d80:	30 91 cc 01 	lds	r19, 0x01CC
     d84:	26 17       	cp	r18, r22
     d86:	37 07       	cpc	r19, r23
     d88:	10 f4       	brcc	.+4      	; 0xd8e <performSingleRefCalibration+0x46>
     d8a:	80 e0       	ldi	r24, 0x00	; 0
     d8c:	08 95       	ret
     d8e:	83 e1       	ldi	r24, 0x13	; 19
     d90:	0e 94 03 04 	call	0x806	; 0x806 <readReg>
     d94:	90 e0       	ldi	r25, 0x00	; 0
     d96:	87 70       	andi	r24, 0x07	; 7
     d98:	90 70       	andi	r25, 0x00	; 0
     d9a:	89 2b       	or	r24, r25
     d9c:	09 f3       	breq	.-62     	; 0xd60 <performSingleRefCalibration+0x18>
     d9e:	8b e0       	ldi	r24, 0x0B	; 11
     da0:	61 e0       	ldi	r22, 0x01	; 1
     da2:	0e 94 91 06 	call	0xd22	; 0xd22 <writeReg>
     da6:	80 e0       	ldi	r24, 0x00	; 0
     da8:	60 e0       	ldi	r22, 0x00	; 0
     daa:	0e 94 91 06 	call	0xd22	; 0xd22 <writeReg>
     dae:	81 e0       	ldi	r24, 0x01	; 1
     db0:	08 95       	ret

00000db2 <getSpadInfo>:
     db2:	0f 93       	push	r16
     db4:	1f 93       	push	r17
     db6:	cf 93       	push	r28
     db8:	df 93       	push	r29
     dba:	ec 01       	movw	r28, r24
     dbc:	8b 01       	movw	r16, r22
     dbe:	80 e8       	ldi	r24, 0x80	; 128
     dc0:	61 e0       	ldi	r22, 0x01	; 1
     dc2:	0e 94 91 06 	call	0xd22	; 0xd22 <writeReg>
     dc6:	8f ef       	ldi	r24, 0xFF	; 255
     dc8:	61 e0       	ldi	r22, 0x01	; 1
     dca:	0e 94 91 06 	call	0xd22	; 0xd22 <writeReg>
     dce:	80 e0       	ldi	r24, 0x00	; 0
     dd0:	60 e0       	ldi	r22, 0x00	; 0
     dd2:	0e 94 91 06 	call	0xd22	; 0xd22 <writeReg>
     dd6:	8f ef       	ldi	r24, 0xFF	; 255
     dd8:	66 e0       	ldi	r22, 0x06	; 6
     dda:	0e 94 91 06 	call	0xd22	; 0xd22 <writeReg>
     dde:	83 e8       	ldi	r24, 0x83	; 131
     de0:	0e 94 03 04 	call	0x806	; 0x806 <readReg>
     de4:	68 2f       	mov	r22, r24
     de6:	64 60       	ori	r22, 0x04	; 4
     de8:	83 e8       	ldi	r24, 0x83	; 131
     dea:	0e 94 91 06 	call	0xd22	; 0xd22 <writeReg>
     dee:	8f ef       	ldi	r24, 0xFF	; 255
     df0:	67 e0       	ldi	r22, 0x07	; 7
     df2:	0e 94 91 06 	call	0xd22	; 0xd22 <writeReg>
     df6:	81 e8       	ldi	r24, 0x81	; 129
     df8:	61 e0       	ldi	r22, 0x01	; 1
     dfa:	0e 94 91 06 	call	0xd22	; 0xd22 <writeReg>
     dfe:	80 e8       	ldi	r24, 0x80	; 128
     e00:	61 e0       	ldi	r22, 0x01	; 1
     e02:	0e 94 91 06 	call	0xd22	; 0xd22 <writeReg>
     e06:	84 e9       	ldi	r24, 0x94	; 148
     e08:	6b e6       	ldi	r22, 0x6B	; 107
     e0a:	0e 94 91 06 	call	0xd22	; 0xd22 <writeReg>
     e0e:	83 e8       	ldi	r24, 0x83	; 131
     e10:	60 e0       	ldi	r22, 0x00	; 0
     e12:	0e 94 91 06 	call	0xd22	; 0xd22 <writeReg>
     e16:	0e 94 f9 0a 	call	0x15f2	; 0x15f2 <millis>
     e1a:	70 93 df 01 	sts	0x01DF, r23
     e1e:	60 93 de 01 	sts	0x01DE, r22
     e22:	17 c0       	rjmp	.+46     	; 0xe52 <getSpadInfo+0xa0>
     e24:	80 91 cb 01 	lds	r24, 0x01CB
     e28:	90 91 cc 01 	lds	r25, 0x01CC
     e2c:	89 2b       	or	r24, r25
     e2e:	89 f0       	breq	.+34     	; 0xe52 <getSpadInfo+0xa0>
     e30:	0e 94 f9 0a 	call	0x15f2	; 0x15f2 <millis>
     e34:	20 91 de 01 	lds	r18, 0x01DE
     e38:	30 91 df 01 	lds	r19, 0x01DF
     e3c:	62 1b       	sub	r22, r18
     e3e:	73 0b       	sbc	r23, r19
     e40:	20 91 cb 01 	lds	r18, 0x01CB
     e44:	30 91 cc 01 	lds	r19, 0x01CC
     e48:	26 17       	cp	r18, r22
     e4a:	37 07       	cpc	r19, r23
     e4c:	10 f4       	brcc	.+4      	; 0xe52 <getSpadInfo+0xa0>
     e4e:	80 e0       	ldi	r24, 0x00	; 0
     e50:	35 c0       	rjmp	.+106    	; 0xebc <getSpadInfo+0x10a>
     e52:	83 e8       	ldi	r24, 0x83	; 131
     e54:	0e 94 03 04 	call	0x806	; 0x806 <readReg>
     e58:	88 23       	and	r24, r24
     e5a:	21 f3       	breq	.-56     	; 0xe24 <getSpadInfo+0x72>
     e5c:	83 e8       	ldi	r24, 0x83	; 131
     e5e:	61 e0       	ldi	r22, 0x01	; 1
     e60:	0e 94 91 06 	call	0xd22	; 0xd22 <writeReg>
     e64:	82 e9       	ldi	r24, 0x92	; 146
     e66:	0e 94 03 04 	call	0x806	; 0x806 <readReg>
     e6a:	98 2f       	mov	r25, r24
     e6c:	9f 77       	andi	r25, 0x7F	; 127
     e6e:	98 83       	st	Y, r25
     e70:	88 1f       	adc	r24, r24
     e72:	88 27       	eor	r24, r24
     e74:	88 1f       	adc	r24, r24
     e76:	f8 01       	movw	r30, r16
     e78:	80 83       	st	Z, r24
     e7a:	81 e8       	ldi	r24, 0x81	; 129
     e7c:	60 e0       	ldi	r22, 0x00	; 0
     e7e:	0e 94 91 06 	call	0xd22	; 0xd22 <writeReg>
     e82:	8f ef       	ldi	r24, 0xFF	; 255
     e84:	66 e0       	ldi	r22, 0x06	; 6
     e86:	0e 94 91 06 	call	0xd22	; 0xd22 <writeReg>
     e8a:	83 e8       	ldi	r24, 0x83	; 131
     e8c:	0e 94 03 04 	call	0x806	; 0x806 <readReg>
     e90:	68 2f       	mov	r22, r24
     e92:	6b 7f       	andi	r22, 0xFB	; 251
     e94:	83 e8       	ldi	r24, 0x83	; 131
     e96:	0e 94 91 06 	call	0xd22	; 0xd22 <writeReg>
     e9a:	8f ef       	ldi	r24, 0xFF	; 255
     e9c:	61 e0       	ldi	r22, 0x01	; 1
     e9e:	0e 94 91 06 	call	0xd22	; 0xd22 <writeReg>
     ea2:	80 e0       	ldi	r24, 0x00	; 0
     ea4:	61 e0       	ldi	r22, 0x01	; 1
     ea6:	0e 94 91 06 	call	0xd22	; 0xd22 <writeReg>
     eaa:	8f ef       	ldi	r24, 0xFF	; 255
     eac:	60 e0       	ldi	r22, 0x00	; 0
     eae:	0e 94 91 06 	call	0xd22	; 0xd22 <writeReg>
     eb2:	80 e8       	ldi	r24, 0x80	; 128
     eb4:	60 e0       	ldi	r22, 0x00	; 0
     eb6:	0e 94 91 06 	call	0xd22	; 0xd22 <writeReg>
     eba:	81 e0       	ldi	r24, 0x01	; 1
     ebc:	df 91       	pop	r29
     ebe:	cf 91       	pop	r28
     ec0:	1f 91       	pop	r17
     ec2:	0f 91       	pop	r16
     ec4:	08 95       	ret

00000ec6 <readRangeSingleMillimeters>:
     ec6:	ef 92       	push	r14
     ec8:	ff 92       	push	r15
     eca:	0f 93       	push	r16
     ecc:	1f 93       	push	r17
     ece:	df 93       	push	r29
     ed0:	cf 93       	push	r28
     ed2:	cd b7       	in	r28, 0x3d	; 61
     ed4:	de b7       	in	r29, 0x3e	; 62
     ed6:	2c 97       	sbiw	r28, 0x0c	; 12
     ed8:	0f b6       	in	r0, 0x3f	; 63
     eda:	f8 94       	cli
     edc:	de bf       	out	0x3e, r29	; 62
     ede:	0f be       	out	0x3f, r0	; 63
     ee0:	cd bf       	out	0x3d, r28	; 61
     ee2:	7c 01       	movw	r14, r24
     ee4:	80 e8       	ldi	r24, 0x80	; 128
     ee6:	61 e0       	ldi	r22, 0x01	; 1
     ee8:	0e 94 91 06 	call	0xd22	; 0xd22 <writeReg>
     eec:	8f ef       	ldi	r24, 0xFF	; 255
     eee:	61 e0       	ldi	r22, 0x01	; 1
     ef0:	0e 94 91 06 	call	0xd22	; 0xd22 <writeReg>
     ef4:	80 e0       	ldi	r24, 0x00	; 0
     ef6:	60 e0       	ldi	r22, 0x00	; 0
     ef8:	0e 94 91 06 	call	0xd22	; 0xd22 <writeReg>
     efc:	81 e9       	ldi	r24, 0x91	; 145
     efe:	60 91 e0 01 	lds	r22, 0x01E0
     f02:	0e 94 91 06 	call	0xd22	; 0xd22 <writeReg>
     f06:	80 e0       	ldi	r24, 0x00	; 0
     f08:	61 e0       	ldi	r22, 0x01	; 1
     f0a:	0e 94 91 06 	call	0xd22	; 0xd22 <writeReg>
     f0e:	8f ef       	ldi	r24, 0xFF	; 255
     f10:	60 e0       	ldi	r22, 0x00	; 0
     f12:	0e 94 91 06 	call	0xd22	; 0xd22 <writeReg>
     f16:	80 e8       	ldi	r24, 0x80	; 128
     f18:	60 e0       	ldi	r22, 0x00	; 0
     f1a:	0e 94 91 06 	call	0xd22	; 0xd22 <writeReg>
     f1e:	80 e0       	ldi	r24, 0x00	; 0
     f20:	61 e0       	ldi	r22, 0x01	; 1
     f22:	0e 94 91 06 	call	0xd22	; 0xd22 <writeReg>
     f26:	0e 94 f9 0a 	call	0x15f2	; 0x15f2 <millis>
     f2a:	70 93 df 01 	sts	0x01DF, r23
     f2e:	60 93 de 01 	sts	0x01DE, r22
     f32:	1b c0       	rjmp	.+54     	; 0xf6a <readRangeSingleMillimeters+0xa4>
     f34:	80 91 cb 01 	lds	r24, 0x01CB
     f38:	90 91 cc 01 	lds	r25, 0x01CC
     f3c:	89 2b       	or	r24, r25
     f3e:	a9 f0       	breq	.+42     	; 0xf6a <readRangeSingleMillimeters+0xa4>
     f40:	0e 94 f9 0a 	call	0x15f2	; 0x15f2 <millis>
     f44:	20 91 de 01 	lds	r18, 0x01DE
     f48:	30 91 df 01 	lds	r19, 0x01DF
     f4c:	62 1b       	sub	r22, r18
     f4e:	73 0b       	sbc	r23, r19
     f50:	20 91 cb 01 	lds	r18, 0x01CB
     f54:	30 91 cc 01 	lds	r19, 0x01CC
     f58:	26 17       	cp	r18, r22
     f5a:	37 07       	cpc	r19, r23
     f5c:	30 f4       	brcc	.+12     	; 0xf6a <readRangeSingleMillimeters+0xa4>
     f5e:	81 e0       	ldi	r24, 0x01	; 1
     f60:	80 93 cd 01 	sts	0x01CD, r24
     f64:	0f ef       	ldi	r16, 0xFF	; 255
     f66:	1f ef       	ldi	r17, 0xFF	; 255
     f68:	3f c0       	rjmp	.+126    	; 0xfe8 <readRangeSingleMillimeters+0x122>
     f6a:	80 e0       	ldi	r24, 0x00	; 0
     f6c:	0e 94 03 04 	call	0x806	; 0x806 <readReg>
     f70:	80 fd       	sbrc	r24, 0
     f72:	e0 cf       	rjmp	.-64     	; 0xf34 <readRangeSingleMillimeters+0x6e>
     f74:	e1 14       	cp	r14, r1
     f76:	f1 04       	cpc	r15, r1
     f78:	29 f4       	brne	.+10     	; 0xf84 <readRangeSingleMillimeters+0xbe>
     f7a:	8e e1       	ldi	r24, 0x1E	; 30
     f7c:	0e 94 d0 03 	call	0x7a0	; 0x7a0 <readReg16Bit>
     f80:	8c 01       	movw	r16, r24
     f82:	2e c0       	rjmp	.+92     	; 0xfe0 <readRangeSingleMillimeters+0x11a>
     f84:	84 e1       	ldi	r24, 0x14	; 20
     f86:	be 01       	movw	r22, r28
     f88:	6f 5f       	subi	r22, 0xFF	; 255
     f8a:	7f 4f       	sbci	r23, 0xFF	; 255
     f8c:	4c e0       	ldi	r20, 0x0C	; 12
     f8e:	0e 94 30 03 	call	0x660	; 0x660 <readMulti>
     f92:	89 81       	ldd	r24, Y+1	; 0x01
     f94:	86 95       	lsr	r24
     f96:	86 95       	lsr	r24
     f98:	86 95       	lsr	r24
     f9a:	f7 01       	movw	r30, r14
     f9c:	80 87       	std	Z+8, r24	; 0x08
     f9e:	9b 81       	ldd	r25, Y+3	; 0x03
     fa0:	80 e0       	ldi	r24, 0x00	; 0
     fa2:	2c 81       	ldd	r18, Y+4	; 0x04
     fa4:	30 e0       	ldi	r19, 0x00	; 0
     fa6:	82 2b       	or	r24, r18
     fa8:	93 2b       	or	r25, r19
     faa:	97 83       	std	Z+7, r25	; 0x07
     fac:	86 83       	std	Z+6, r24	; 0x06
     fae:	9f 81       	ldd	r25, Y+7	; 0x07
     fb0:	80 e0       	ldi	r24, 0x00	; 0
     fb2:	28 85       	ldd	r18, Y+8	; 0x08
     fb4:	30 e0       	ldi	r19, 0x00	; 0
     fb6:	82 2b       	or	r24, r18
     fb8:	93 2b       	or	r25, r19
     fba:	93 83       	std	Z+3, r25	; 0x03
     fbc:	82 83       	std	Z+2, r24	; 0x02
     fbe:	99 85       	ldd	r25, Y+9	; 0x09
     fc0:	80 e0       	ldi	r24, 0x00	; 0
     fc2:	2a 85       	ldd	r18, Y+10	; 0x0a
     fc4:	30 e0       	ldi	r19, 0x00	; 0
     fc6:	82 2b       	or	r24, r18
     fc8:	93 2b       	or	r25, r19
     fca:	95 83       	std	Z+5, r25	; 0x05
     fcc:	84 83       	std	Z+4, r24	; 0x04
     fce:	9b 85       	ldd	r25, Y+11	; 0x0b
     fd0:	80 e0       	ldi	r24, 0x00	; 0
     fd2:	2c 85       	ldd	r18, Y+12	; 0x0c
     fd4:	02 2f       	mov	r16, r18
     fd6:	10 e0       	ldi	r17, 0x00	; 0
     fd8:	08 2b       	or	r16, r24
     fda:	19 2b       	or	r17, r25
     fdc:	11 83       	std	Z+1, r17	; 0x01
     fde:	00 83       	st	Z, r16
     fe0:	8b e0       	ldi	r24, 0x0B	; 11
     fe2:	61 e0       	ldi	r22, 0x01	; 1
     fe4:	0e 94 91 06 	call	0xd22	; 0xd22 <writeReg>
     fe8:	c8 01       	movw	r24, r16
     fea:	2c 96       	adiw	r28, 0x0c	; 12
     fec:	0f b6       	in	r0, 0x3f	; 63
     fee:	f8 94       	cli
     ff0:	de bf       	out	0x3e, r29	; 62
     ff2:	0f be       	out	0x3f, r0	; 63
     ff4:	cd bf       	out	0x3d, r28	; 61
     ff6:	cf 91       	pop	r28
     ff8:	df 91       	pop	r29
     ffa:	1f 91       	pop	r17
     ffc:	0f 91       	pop	r16
     ffe:	ff 90       	pop	r15
    1000:	ef 90       	pop	r14
    1002:	08 95       	ret

00001004 <initVL53L0X>:
    1004:	ff 92       	push	r15
    1006:	0f 93       	push	r16
    1008:	1f 93       	push	r17
    100a:	df 93       	push	r29
    100c:	cf 93       	push	r28
    100e:	cd b7       	in	r28, 0x3d	; 61
    1010:	de b7       	in	r29, 0x3e	; 62
    1012:	28 97       	sbiw	r28, 0x08	; 8
    1014:	0f b6       	in	r0, 0x3f	; 63
    1016:	f8 94       	cli
    1018:	de bf       	out	0x3e, r29	; 62
    101a:	0f be       	out	0x3f, r0	; 63
    101c:	cd bf       	out	0x3d, r28	; 61
    101e:	88 23       	and	r24, r24
    1020:	41 f0       	breq	.+16     	; 0x1032 <initVL53L0X+0x2e>
    1022:	89 e8       	ldi	r24, 0x89	; 137
    1024:	0e 94 03 04 	call	0x806	; 0x806 <readReg>
    1028:	68 2f       	mov	r22, r24
    102a:	61 60       	ori	r22, 0x01	; 1
    102c:	89 e8       	ldi	r24, 0x89	; 137
    102e:	0e 94 91 06 	call	0xd22	; 0xd22 <writeReg>
    1032:	88 e8       	ldi	r24, 0x88	; 136
    1034:	60 e0       	ldi	r22, 0x00	; 0
    1036:	0e 94 91 06 	call	0xd22	; 0xd22 <writeReg>
    103a:	80 e8       	ldi	r24, 0x80	; 128
    103c:	61 e0       	ldi	r22, 0x01	; 1
    103e:	0e 94 91 06 	call	0xd22	; 0xd22 <writeReg>
    1042:	8f ef       	ldi	r24, 0xFF	; 255
    1044:	61 e0       	ldi	r22, 0x01	; 1
    1046:	0e 94 91 06 	call	0xd22	; 0xd22 <writeReg>
    104a:	80 e0       	ldi	r24, 0x00	; 0
    104c:	60 e0       	ldi	r22, 0x00	; 0
    104e:	0e 94 91 06 	call	0xd22	; 0xd22 <writeReg>
    1052:	81 e9       	ldi	r24, 0x91	; 145
    1054:	0e 94 03 04 	call	0x806	; 0x806 <readReg>
    1058:	80 93 e0 01 	sts	0x01E0, r24
    105c:	80 e0       	ldi	r24, 0x00	; 0
    105e:	61 e0       	ldi	r22, 0x01	; 1
    1060:	0e 94 91 06 	call	0xd22	; 0xd22 <writeReg>
    1064:	8f ef       	ldi	r24, 0xFF	; 255
    1066:	60 e0       	ldi	r22, 0x00	; 0
    1068:	0e 94 91 06 	call	0xd22	; 0xd22 <writeReg>
    106c:	80 e8       	ldi	r24, 0x80	; 128
    106e:	60 e0       	ldi	r22, 0x00	; 0
    1070:	0e 94 91 06 	call	0xd22	; 0xd22 <writeReg>
    1074:	80 e6       	ldi	r24, 0x60	; 96
    1076:	0e 94 03 04 	call	0x806	; 0x806 <readReg>
    107a:	68 2f       	mov	r22, r24
    107c:	62 61       	ori	r22, 0x12	; 18
    107e:	80 e6       	ldi	r24, 0x60	; 96
    1080:	0e 94 91 06 	call	0xd22	; 0xd22 <writeReg>
    1084:	60 e0       	ldi	r22, 0x00	; 0
    1086:	70 e0       	ldi	r23, 0x00	; 0
    1088:	80 e8       	ldi	r24, 0x80	; 128
    108a:	9e e3       	ldi	r25, 0x3E	; 62
    108c:	0e 94 61 06 	call	0xcc2	; 0xcc2 <setSignalRateLimit>
    1090:	81 e0       	ldi	r24, 0x01	; 1
    1092:	6f ef       	ldi	r22, 0xFF	; 255
    1094:	0e 94 91 06 	call	0xd22	; 0xd22 <writeReg>
    1098:	ce 01       	movw	r24, r28
    109a:	01 96       	adiw	r24, 0x01	; 1
    109c:	be 01       	movw	r22, r28
    109e:	6e 5f       	subi	r22, 0xFE	; 254
    10a0:	7f 4f       	sbci	r23, 0xFF	; 255
    10a2:	0e 94 d9 06 	call	0xdb2	; 0xdb2 <getSpadInfo>
    10a6:	88 23       	and	r24, r24
    10a8:	09 f4       	brne	.+2      	; 0x10ac <initVL53L0X+0xa8>
    10aa:	e1 c1       	rjmp	.+962    	; 0x146e <initVL53L0X+0x46a>
    10ac:	80 eb       	ldi	r24, 0xB0	; 176
    10ae:	be 01       	movw	r22, r28
    10b0:	6d 5f       	subi	r22, 0xFD	; 253
    10b2:	7f 4f       	sbci	r23, 0xFF	; 255
    10b4:	46 e0       	ldi	r20, 0x06	; 6
    10b6:	0e 94 30 03 	call	0x660	; 0x660 <readMulti>
    10ba:	8f ef       	ldi	r24, 0xFF	; 255
    10bc:	61 e0       	ldi	r22, 0x01	; 1
    10be:	0e 94 91 06 	call	0xd22	; 0xd22 <writeReg>
    10c2:	8f e4       	ldi	r24, 0x4F	; 79
    10c4:	60 e0       	ldi	r22, 0x00	; 0
    10c6:	0e 94 91 06 	call	0xd22	; 0xd22 <writeReg>
    10ca:	8e e4       	ldi	r24, 0x4E	; 78
    10cc:	6c e2       	ldi	r22, 0x2C	; 44
    10ce:	0e 94 91 06 	call	0xd22	; 0xd22 <writeReg>
    10d2:	8f ef       	ldi	r24, 0xFF	; 255
    10d4:	60 e0       	ldi	r22, 0x00	; 0
    10d6:	0e 94 91 06 	call	0xd22	; 0xd22 <writeReg>
    10da:	86 eb       	ldi	r24, 0xB6	; 182
    10dc:	64 eb       	ldi	r22, 0xB4	; 180
    10de:	0e 94 91 06 	call	0xd22	; 0xd22 <writeReg>
    10e2:	8a 81       	ldd	r24, Y+2	; 0x02
    10e4:	88 23       	and	r24, r24
    10e6:	11 f4       	brne	.+4      	; 0x10ec <initVL53L0X+0xe8>
    10e8:	70 e0       	ldi	r23, 0x00	; 0
    10ea:	01 c0       	rjmp	.+2      	; 0x10ee <initVL53L0X+0xea>
    10ec:	7c e0       	ldi	r23, 0x0C	; 12
    10ee:	f9 80       	ldd	r15, Y+1	; 0x01
    10f0:	60 e0       	ldi	r22, 0x00	; 0
    10f2:	40 e0       	ldi	r20, 0x00	; 0
    10f4:	50 e0       	ldi	r21, 0x00	; 0
    10f6:	de 01       	movw	r26, r28
    10f8:	13 96       	adiw	r26, 0x03	; 3
    10fa:	01 e0       	ldi	r16, 0x01	; 1
    10fc:	10 e0       	ldi	r17, 0x00	; 0
    10fe:	84 2f       	mov	r24, r20
    1100:	47 17       	cp	r20, r23
    1102:	10 f0       	brcs	.+4      	; 0x1108 <initVL53L0X+0x104>
    1104:	6f 15       	cp	r22, r15
    1106:	a9 f4       	brne	.+42     	; 0x1132 <initVL53L0X+0x12e>
    1108:	86 95       	lsr	r24
    110a:	86 95       	lsr	r24
    110c:	86 95       	lsr	r24
    110e:	fd 01       	movw	r30, r26
    1110:	e8 0f       	add	r30, r24
    1112:	f1 1d       	adc	r31, r1
    1114:	ca 01       	movw	r24, r20
    1116:	87 70       	andi	r24, 0x07	; 7
    1118:	90 70       	andi	r25, 0x00	; 0
    111a:	98 01       	movw	r18, r16
    111c:	02 c0       	rjmp	.+4      	; 0x1122 <initVL53L0X+0x11e>
    111e:	22 0f       	add	r18, r18
    1120:	33 1f       	adc	r19, r19
    1122:	8a 95       	dec	r24
    1124:	e2 f7       	brpl	.-8      	; 0x111e <initVL53L0X+0x11a>
    1126:	c9 01       	movw	r24, r18
    1128:	80 95       	com	r24
    112a:	20 81       	ld	r18, Z
    112c:	82 23       	and	r24, r18
    112e:	80 83       	st	Z, r24
    1130:	12 c0       	rjmp	.+36     	; 0x1156 <initVL53L0X+0x152>
    1132:	86 95       	lsr	r24
    1134:	86 95       	lsr	r24
    1136:	86 95       	lsr	r24
    1138:	fd 01       	movw	r30, r26
    113a:	e8 0f       	add	r30, r24
    113c:	f1 1d       	adc	r31, r1
    113e:	80 81       	ld	r24, Z
    1140:	90 e0       	ldi	r25, 0x00	; 0
    1142:	9a 01       	movw	r18, r20
    1144:	27 70       	andi	r18, 0x07	; 7
    1146:	30 70       	andi	r19, 0x00	; 0
    1148:	02 c0       	rjmp	.+4      	; 0x114e <initVL53L0X+0x14a>
    114a:	95 95       	asr	r25
    114c:	87 95       	ror	r24
    114e:	2a 95       	dec	r18
    1150:	e2 f7       	brpl	.-8      	; 0x114a <initVL53L0X+0x146>
    1152:	80 fd       	sbrc	r24, 0
    1154:	6f 5f       	subi	r22, 0xFF	; 255
    1156:	4f 5f       	subi	r20, 0xFF	; 255
    1158:	5f 4f       	sbci	r21, 0xFF	; 255
    115a:	40 33       	cpi	r20, 0x30	; 48
    115c:	51 05       	cpc	r21, r1
    115e:	79 f6       	brne	.-98     	; 0x10fe <initVL53L0X+0xfa>
    1160:	80 eb       	ldi	r24, 0xB0	; 176
    1162:	be 01       	movw	r22, r28
    1164:	6d 5f       	subi	r22, 0xFD	; 253
    1166:	7f 4f       	sbci	r23, 0xFF	; 255
    1168:	46 e0       	ldi	r20, 0x06	; 6
    116a:	0e 94 5c 03 	call	0x6b8	; 0x6b8 <writeMulti>
    116e:	8f ef       	ldi	r24, 0xFF	; 255
    1170:	61 e0       	ldi	r22, 0x01	; 1
    1172:	0e 94 91 06 	call	0xd22	; 0xd22 <writeReg>
    1176:	80 e0       	ldi	r24, 0x00	; 0
    1178:	60 e0       	ldi	r22, 0x00	; 0
    117a:	0e 94 91 06 	call	0xd22	; 0xd22 <writeReg>
    117e:	8f ef       	ldi	r24, 0xFF	; 255
    1180:	60 e0       	ldi	r22, 0x00	; 0
    1182:	0e 94 91 06 	call	0xd22	; 0xd22 <writeReg>
    1186:	89 e0       	ldi	r24, 0x09	; 9
    1188:	60 e0       	ldi	r22, 0x00	; 0
    118a:	0e 94 91 06 	call	0xd22	; 0xd22 <writeReg>
    118e:	80 e1       	ldi	r24, 0x10	; 16
    1190:	60 e0       	ldi	r22, 0x00	; 0
    1192:	0e 94 91 06 	call	0xd22	; 0xd22 <writeReg>
    1196:	81 e1       	ldi	r24, 0x11	; 17
    1198:	60 e0       	ldi	r22, 0x00	; 0
    119a:	0e 94 91 06 	call	0xd22	; 0xd22 <writeReg>
    119e:	84 e2       	ldi	r24, 0x24	; 36
    11a0:	61 e0       	ldi	r22, 0x01	; 1
    11a2:	0e 94 91 06 	call	0xd22	; 0xd22 <writeReg>
    11a6:	85 e2       	ldi	r24, 0x25	; 37
    11a8:	6f ef       	ldi	r22, 0xFF	; 255
    11aa:	0e 94 91 06 	call	0xd22	; 0xd22 <writeReg>
    11ae:	85 e7       	ldi	r24, 0x75	; 117
    11b0:	60 e0       	ldi	r22, 0x00	; 0
    11b2:	0e 94 91 06 	call	0xd22	; 0xd22 <writeReg>
    11b6:	8f ef       	ldi	r24, 0xFF	; 255
    11b8:	61 e0       	ldi	r22, 0x01	; 1
    11ba:	0e 94 91 06 	call	0xd22	; 0xd22 <writeReg>
    11be:	8e e4       	ldi	r24, 0x4E	; 78
    11c0:	6c e2       	ldi	r22, 0x2C	; 44
    11c2:	0e 94 91 06 	call	0xd22	; 0xd22 <writeReg>
    11c6:	88 e4       	ldi	r24, 0x48	; 72
    11c8:	60 e0       	ldi	r22, 0x00	; 0
    11ca:	0e 94 91 06 	call	0xd22	; 0xd22 <writeReg>
    11ce:	80 e3       	ldi	r24, 0x30	; 48
    11d0:	60 e2       	ldi	r22, 0x20	; 32
    11d2:	0e 94 91 06 	call	0xd22	; 0xd22 <writeReg>
    11d6:	8f ef       	ldi	r24, 0xFF	; 255
    11d8:	60 e0       	ldi	r22, 0x00	; 0
    11da:	0e 94 91 06 	call	0xd22	; 0xd22 <writeReg>
    11de:	80 e3       	ldi	r24, 0x30	; 48
    11e0:	69 e0       	ldi	r22, 0x09	; 9
    11e2:	0e 94 91 06 	call	0xd22	; 0xd22 <writeReg>
    11e6:	84 e5       	ldi	r24, 0x54	; 84
    11e8:	60 e0       	ldi	r22, 0x00	; 0
    11ea:	0e 94 91 06 	call	0xd22	; 0xd22 <writeReg>
    11ee:	81 e3       	ldi	r24, 0x31	; 49
    11f0:	64 e0       	ldi	r22, 0x04	; 4
    11f2:	0e 94 91 06 	call	0xd22	; 0xd22 <writeReg>
    11f6:	82 e3       	ldi	r24, 0x32	; 50
    11f8:	63 e0       	ldi	r22, 0x03	; 3
    11fa:	0e 94 91 06 	call	0xd22	; 0xd22 <writeReg>
    11fe:	80 e4       	ldi	r24, 0x40	; 64
    1200:	63 e8       	ldi	r22, 0x83	; 131
    1202:	0e 94 91 06 	call	0xd22	; 0xd22 <writeReg>
    1206:	86 e4       	ldi	r24, 0x46	; 70
    1208:	65 e2       	ldi	r22, 0x25	; 37
    120a:	0e 94 91 06 	call	0xd22	; 0xd22 <writeReg>
    120e:	80 e6       	ldi	r24, 0x60	; 96
    1210:	60 e0       	ldi	r22, 0x00	; 0
    1212:	0e 94 91 06 	call	0xd22	; 0xd22 <writeReg>
    1216:	87 e2       	ldi	r24, 0x27	; 39
    1218:	60 e0       	ldi	r22, 0x00	; 0
    121a:	0e 94 91 06 	call	0xd22	; 0xd22 <writeReg>
    121e:	80 e5       	ldi	r24, 0x50	; 80
    1220:	66 e0       	ldi	r22, 0x06	; 6
    1222:	0e 94 91 06 	call	0xd22	; 0xd22 <writeReg>
    1226:	81 e5       	ldi	r24, 0x51	; 81
    1228:	60 e0       	ldi	r22, 0x00	; 0
    122a:	0e 94 91 06 	call	0xd22	; 0xd22 <writeReg>
    122e:	82 e5       	ldi	r24, 0x52	; 82
    1230:	66 e9       	ldi	r22, 0x96	; 150
    1232:	0e 94 91 06 	call	0xd22	; 0xd22 <writeReg>
    1236:	86 e5       	ldi	r24, 0x56	; 86
    1238:	68 e0       	ldi	r22, 0x08	; 8
    123a:	0e 94 91 06 	call	0xd22	; 0xd22 <writeReg>
    123e:	87 e5       	ldi	r24, 0x57	; 87
    1240:	60 e3       	ldi	r22, 0x30	; 48
    1242:	0e 94 91 06 	call	0xd22	; 0xd22 <writeReg>
    1246:	81 e6       	ldi	r24, 0x61	; 97
    1248:	60 e0       	ldi	r22, 0x00	; 0
    124a:	0e 94 91 06 	call	0xd22	; 0xd22 <writeReg>
    124e:	82 e6       	ldi	r24, 0x62	; 98
    1250:	60 e0       	ldi	r22, 0x00	; 0
    1252:	0e 94 91 06 	call	0xd22	; 0xd22 <writeReg>
    1256:	84 e6       	ldi	r24, 0x64	; 100
    1258:	60 e0       	ldi	r22, 0x00	; 0
    125a:	0e 94 91 06 	call	0xd22	; 0xd22 <writeReg>
    125e:	85 e6       	ldi	r24, 0x65	; 101
    1260:	60 e0       	ldi	r22, 0x00	; 0
    1262:	0e 94 91 06 	call	0xd22	; 0xd22 <writeReg>
    1266:	86 e6       	ldi	r24, 0x66	; 102
    1268:	60 ea       	ldi	r22, 0xA0	; 160
    126a:	0e 94 91 06 	call	0xd22	; 0xd22 <writeReg>
    126e:	8f ef       	ldi	r24, 0xFF	; 255
    1270:	61 e0       	ldi	r22, 0x01	; 1
    1272:	0e 94 91 06 	call	0xd22	; 0xd22 <writeReg>
    1276:	82 e2       	ldi	r24, 0x22	; 34
    1278:	62 e3       	ldi	r22, 0x32	; 50
    127a:	0e 94 91 06 	call	0xd22	; 0xd22 <writeReg>
    127e:	87 e4       	ldi	r24, 0x47	; 71
    1280:	64 e1       	ldi	r22, 0x14	; 20
    1282:	0e 94 91 06 	call	0xd22	; 0xd22 <writeReg>
    1286:	89 e4       	ldi	r24, 0x49	; 73
    1288:	6f ef       	ldi	r22, 0xFF	; 255
    128a:	0e 94 91 06 	call	0xd22	; 0xd22 <writeReg>
    128e:	8a e4       	ldi	r24, 0x4A	; 74
    1290:	60 e0       	ldi	r22, 0x00	; 0
    1292:	0e 94 91 06 	call	0xd22	; 0xd22 <writeReg>
    1296:	8f ef       	ldi	r24, 0xFF	; 255
    1298:	60 e0       	ldi	r22, 0x00	; 0
    129a:	0e 94 91 06 	call	0xd22	; 0xd22 <writeReg>
    129e:	8a e7       	ldi	r24, 0x7A	; 122
    12a0:	6a e0       	ldi	r22, 0x0A	; 10
    12a2:	0e 94 91 06 	call	0xd22	; 0xd22 <writeReg>
    12a6:	8b e7       	ldi	r24, 0x7B	; 123
    12a8:	60 e0       	ldi	r22, 0x00	; 0
    12aa:	0e 94 91 06 	call	0xd22	; 0xd22 <writeReg>
    12ae:	88 e7       	ldi	r24, 0x78	; 120
    12b0:	61 e2       	ldi	r22, 0x21	; 33
    12b2:	0e 94 91 06 	call	0xd22	; 0xd22 <writeReg>
    12b6:	8f ef       	ldi	r24, 0xFF	; 255
    12b8:	61 e0       	ldi	r22, 0x01	; 1
    12ba:	0e 94 91 06 	call	0xd22	; 0xd22 <writeReg>
    12be:	83 e2       	ldi	r24, 0x23	; 35
    12c0:	64 e3       	ldi	r22, 0x34	; 52
    12c2:	0e 94 91 06 	call	0xd22	; 0xd22 <writeReg>
    12c6:	82 e4       	ldi	r24, 0x42	; 66
    12c8:	60 e0       	ldi	r22, 0x00	; 0
    12ca:	0e 94 91 06 	call	0xd22	; 0xd22 <writeReg>
    12ce:	84 e4       	ldi	r24, 0x44	; 68
    12d0:	6f ef       	ldi	r22, 0xFF	; 255
    12d2:	0e 94 91 06 	call	0xd22	; 0xd22 <writeReg>
    12d6:	85 e4       	ldi	r24, 0x45	; 69
    12d8:	66 e2       	ldi	r22, 0x26	; 38
    12da:	0e 94 91 06 	call	0xd22	; 0xd22 <writeReg>
    12de:	86 e4       	ldi	r24, 0x46	; 70
    12e0:	65 e0       	ldi	r22, 0x05	; 5
    12e2:	0e 94 91 06 	call	0xd22	; 0xd22 <writeReg>
    12e6:	80 e4       	ldi	r24, 0x40	; 64
    12e8:	60 e4       	ldi	r22, 0x40	; 64
    12ea:	0e 94 91 06 	call	0xd22	; 0xd22 <writeReg>
    12ee:	8e e0       	ldi	r24, 0x0E	; 14
    12f0:	66 e0       	ldi	r22, 0x06	; 6
    12f2:	0e 94 91 06 	call	0xd22	; 0xd22 <writeReg>
    12f6:	80 e2       	ldi	r24, 0x20	; 32
    12f8:	6a e1       	ldi	r22, 0x1A	; 26
    12fa:	0e 94 91 06 	call	0xd22	; 0xd22 <writeReg>
    12fe:	83 e4       	ldi	r24, 0x43	; 67
    1300:	60 e4       	ldi	r22, 0x40	; 64
    1302:	0e 94 91 06 	call	0xd22	; 0xd22 <writeReg>
    1306:	8f ef       	ldi	r24, 0xFF	; 255
    1308:	60 e0       	ldi	r22, 0x00	; 0
    130a:	0e 94 91 06 	call	0xd22	; 0xd22 <writeReg>
    130e:	84 e3       	ldi	r24, 0x34	; 52
    1310:	63 e0       	ldi	r22, 0x03	; 3
    1312:	0e 94 91 06 	call	0xd22	; 0xd22 <writeReg>
    1316:	85 e3       	ldi	r24, 0x35	; 53
    1318:	64 e4       	ldi	r22, 0x44	; 68
    131a:	0e 94 91 06 	call	0xd22	; 0xd22 <writeReg>
    131e:	8f ef       	ldi	r24, 0xFF	; 255
    1320:	61 e0       	ldi	r22, 0x01	; 1
    1322:	0e 94 91 06 	call	0xd22	; 0xd22 <writeReg>
    1326:	81 e3       	ldi	r24, 0x31	; 49
    1328:	64 e0       	ldi	r22, 0x04	; 4
    132a:	0e 94 91 06 	call	0xd22	; 0xd22 <writeReg>
    132e:	8b e4       	ldi	r24, 0x4B	; 75
    1330:	69 e0       	ldi	r22, 0x09	; 9
    1332:	0e 94 91 06 	call	0xd22	; 0xd22 <writeReg>
    1336:	8c e4       	ldi	r24, 0x4C	; 76
    1338:	65 e0       	ldi	r22, 0x05	; 5
    133a:	0e 94 91 06 	call	0xd22	; 0xd22 <writeReg>
    133e:	8d e4       	ldi	r24, 0x4D	; 77
    1340:	64 e0       	ldi	r22, 0x04	; 4
    1342:	0e 94 91 06 	call	0xd22	; 0xd22 <writeReg>
    1346:	8f ef       	ldi	r24, 0xFF	; 255
    1348:	60 e0       	ldi	r22, 0x00	; 0
    134a:	0e 94 91 06 	call	0xd22	; 0xd22 <writeReg>
    134e:	84 e4       	ldi	r24, 0x44	; 68
    1350:	60 e0       	ldi	r22, 0x00	; 0
    1352:	0e 94 91 06 	call	0xd22	; 0xd22 <writeReg>
    1356:	85 e4       	ldi	r24, 0x45	; 69
    1358:	60 e2       	ldi	r22, 0x20	; 32
    135a:	0e 94 91 06 	call	0xd22	; 0xd22 <writeReg>
    135e:	87 e4       	ldi	r24, 0x47	; 71
    1360:	68 e0       	ldi	r22, 0x08	; 8
    1362:	0e 94 91 06 	call	0xd22	; 0xd22 <writeReg>
    1366:	88 e4       	ldi	r24, 0x48	; 72
    1368:	68 e2       	ldi	r22, 0x28	; 40
    136a:	0e 94 91 06 	call	0xd22	; 0xd22 <writeReg>
    136e:	87 e6       	ldi	r24, 0x67	; 103
    1370:	60 e0       	ldi	r22, 0x00	; 0
    1372:	0e 94 91 06 	call	0xd22	; 0xd22 <writeReg>
    1376:	80 e7       	ldi	r24, 0x70	; 112
    1378:	64 e0       	ldi	r22, 0x04	; 4
    137a:	0e 94 91 06 	call	0xd22	; 0xd22 <writeReg>
    137e:	81 e7       	ldi	r24, 0x71	; 113
    1380:	61 e0       	ldi	r22, 0x01	; 1
    1382:	0e 94 91 06 	call	0xd22	; 0xd22 <writeReg>
    1386:	82 e7       	ldi	r24, 0x72	; 114
    1388:	6e ef       	ldi	r22, 0xFE	; 254
    138a:	0e 94 91 06 	call	0xd22	; 0xd22 <writeReg>
    138e:	86 e7       	ldi	r24, 0x76	; 118
    1390:	60 e0       	ldi	r22, 0x00	; 0
    1392:	0e 94 91 06 	call	0xd22	; 0xd22 <writeReg>
    1396:	87 e7       	ldi	r24, 0x77	; 119
    1398:	60 e0       	ldi	r22, 0x00	; 0
    139a:	0e 94 91 06 	call	0xd22	; 0xd22 <writeReg>
    139e:	8f ef       	ldi	r24, 0xFF	; 255
    13a0:	61 e0       	ldi	r22, 0x01	; 1
    13a2:	0e 94 91 06 	call	0xd22	; 0xd22 <writeReg>
    13a6:	8d e0       	ldi	r24, 0x0D	; 13
    13a8:	61 e0       	ldi	r22, 0x01	; 1
    13aa:	0e 94 91 06 	call	0xd22	; 0xd22 <writeReg>
    13ae:	8f ef       	ldi	r24, 0xFF	; 255
    13b0:	60 e0       	ldi	r22, 0x00	; 0
    13b2:	0e 94 91 06 	call	0xd22	; 0xd22 <writeReg>
    13b6:	80 e8       	ldi	r24, 0x80	; 128
    13b8:	61 e0       	ldi	r22, 0x01	; 1
    13ba:	0e 94 91 06 	call	0xd22	; 0xd22 <writeReg>
    13be:	81 e0       	ldi	r24, 0x01	; 1
    13c0:	68 ef       	ldi	r22, 0xF8	; 248
    13c2:	0e 94 91 06 	call	0xd22	; 0xd22 <writeReg>
    13c6:	8f ef       	ldi	r24, 0xFF	; 255
    13c8:	61 e0       	ldi	r22, 0x01	; 1
    13ca:	0e 94 91 06 	call	0xd22	; 0xd22 <writeReg>
    13ce:	8e e8       	ldi	r24, 0x8E	; 142
    13d0:	61 e0       	ldi	r22, 0x01	; 1
    13d2:	0e 94 91 06 	call	0xd22	; 0xd22 <writeReg>
    13d6:	80 e0       	ldi	r24, 0x00	; 0
    13d8:	61 e0       	ldi	r22, 0x01	; 1
    13da:	0e 94 91 06 	call	0xd22	; 0xd22 <writeReg>
    13de:	8f ef       	ldi	r24, 0xFF	; 255
    13e0:	60 e0       	ldi	r22, 0x00	; 0
    13e2:	0e 94 91 06 	call	0xd22	; 0xd22 <writeReg>
    13e6:	80 e8       	ldi	r24, 0x80	; 128
    13e8:	60 e0       	ldi	r22, 0x00	; 0
    13ea:	0e 94 91 06 	call	0xd22	; 0xd22 <writeReg>
    13ee:	8a e0       	ldi	r24, 0x0A	; 10
    13f0:	64 e0       	ldi	r22, 0x04	; 4
    13f2:	0e 94 91 06 	call	0xd22	; 0xd22 <writeReg>
    13f6:	84 e8       	ldi	r24, 0x84	; 132
    13f8:	0e 94 03 04 	call	0x806	; 0x806 <readReg>
    13fc:	68 2f       	mov	r22, r24
    13fe:	6f 7e       	andi	r22, 0xEF	; 239
    1400:	84 e8       	ldi	r24, 0x84	; 132
    1402:	0e 94 91 06 	call	0xd22	; 0xd22 <writeReg>
    1406:	8b e0       	ldi	r24, 0x0B	; 11
    1408:	61 e0       	ldi	r22, 0x01	; 1
    140a:	0e 94 91 06 	call	0xd22	; 0xd22 <writeReg>
    140e:	0e 94 a7 04 	call	0x94e	; 0x94e <getMeasurementTimingBudget>
    1412:	60 93 e1 01 	sts	0x01E1, r22
    1416:	70 93 e2 01 	sts	0x01E2, r23
    141a:	80 93 e3 01 	sts	0x01E3, r24
    141e:	90 93 e4 01 	sts	0x01E4, r25
    1422:	81 e0       	ldi	r24, 0x01	; 1
    1424:	68 ee       	ldi	r22, 0xE8	; 232
    1426:	0e 94 91 06 	call	0xd22	; 0xd22 <writeReg>
    142a:	60 91 e1 01 	lds	r22, 0x01E1
    142e:	70 91 e2 01 	lds	r23, 0x01E2
    1432:	80 91 e3 01 	lds	r24, 0x01E3
    1436:	90 91 e4 01 	lds	r25, 0x01E4
    143a:	0e 94 65 05 	call	0xaca	; 0xaca <setMeasurementTimingBudget>
    143e:	81 e0       	ldi	r24, 0x01	; 1
    1440:	61 e0       	ldi	r22, 0x01	; 1
    1442:	0e 94 91 06 	call	0xd22	; 0xd22 <writeReg>
    1446:	80 e4       	ldi	r24, 0x40	; 64
    1448:	0e 94 a4 06 	call	0xd48	; 0xd48 <performSingleRefCalibration>
    144c:	88 23       	and	r24, r24
    144e:	79 f0       	breq	.+30     	; 0x146e <initVL53L0X+0x46a>
    1450:	81 e0       	ldi	r24, 0x01	; 1
    1452:	62 e0       	ldi	r22, 0x02	; 2
    1454:	0e 94 91 06 	call	0xd22	; 0xd22 <writeReg>
    1458:	80 e0       	ldi	r24, 0x00	; 0
    145a:	0e 94 a4 06 	call	0xd48	; 0xd48 <performSingleRefCalibration>
    145e:	88 23       	and	r24, r24
    1460:	31 f0       	breq	.+12     	; 0x146e <initVL53L0X+0x46a>
    1462:	81 e0       	ldi	r24, 0x01	; 1
    1464:	68 ee       	ldi	r22, 0xE8	; 232
    1466:	0e 94 91 06 	call	0xd22	; 0xd22 <writeReg>
    146a:	81 e0       	ldi	r24, 0x01	; 1
    146c:	01 c0       	rjmp	.+2      	; 0x1470 <initVL53L0X+0x46c>
    146e:	80 e0       	ldi	r24, 0x00	; 0
    1470:	28 96       	adiw	r28, 0x08	; 8
    1472:	0f b6       	in	r0, 0x3f	; 63
    1474:	f8 94       	cli
    1476:	de bf       	out	0x3e, r29	; 62
    1478:	0f be       	out	0x3f, r0	; 63
    147a:	cd bf       	out	0x3d, r28	; 61
    147c:	cf 91       	pop	r28
    147e:	df 91       	pop	r29
    1480:	1f 91       	pop	r17
    1482:	0f 91       	pop	r16
    1484:	ff 90       	pop	r15
    1486:	08 95       	ret

00001488 <setAddress>:
    1488:	1f 93       	push	r17
    148a:	18 2f       	mov	r17, r24
    148c:	68 2f       	mov	r22, r24
    148e:	66 95       	lsr	r22
    1490:	8a e8       	ldi	r24, 0x8A	; 138
    1492:	0e 94 91 06 	call	0xd22	; 0xd22 <writeReg>
    1496:	10 93 47 01 	sts	0x0147, r17
    149a:	1f 91       	pop	r17
    149c:	08 95       	ret

0000149e <init>:
    149e:	83 e0       	ldi	r24, 0x03	; 3
    14a0:	85 bb       	out	0x15, r24	; 21
    14a2:	0e 94 57 0a 	call	0x14ae	; 0x14ae <i2c_init>
    14a6:	0e 94 ef 0a 	call	0x15de	; 0x15de <initMillis>
    14aa:	78 94       	sei
    14ac:	08 95       	ret

000014ae <i2c_init>:
    14ae:	11 b8       	out	0x01, r1	; 1
    14b0:	82 e0       	ldi	r24, 0x02	; 2
    14b2:	80 b9       	out	0x00, r24	; 0
    14b4:	08 95       	ret

000014b6 <i2c_start>:
    14b6:	28 2f       	mov	r18, r24
    14b8:	84 ea       	ldi	r24, 0xA4	; 164
    14ba:	86 bf       	out	0x36, r24	; 54
    14bc:	8f ef       	ldi	r24, 0xFF	; 255
    14be:	9f ef       	ldi	r25, 0xFF	; 255
    14c0:	03 c0       	rjmp	.+6      	; 0x14c8 <i2c_start+0x12>
    14c2:	06 b6       	in	r0, 0x36	; 54
    14c4:	07 fc       	sbrc	r0, 7
    14c6:	03 c0       	rjmp	.+6      	; 0x14ce <i2c_start+0x18>
    14c8:	01 97       	sbiw	r24, 0x01	; 1
    14ca:	d9 f7       	brne	.-10     	; 0x14c2 <i2c_start+0xc>
    14cc:	1d c0       	rjmp	.+58     	; 0x1508 <i2c_start+0x52>
    14ce:	81 b1       	in	r24, 0x01	; 1
    14d0:	88 7f       	andi	r24, 0xF8	; 248
    14d2:	88 30       	cpi	r24, 0x08	; 8
    14d4:	11 f0       	breq	.+4      	; 0x14da <i2c_start+0x24>
    14d6:	80 31       	cpi	r24, 0x10	; 16
    14d8:	b9 f4       	brne	.+46     	; 0x1508 <i2c_start+0x52>
    14da:	23 b9       	out	0x03, r18	; 3
    14dc:	84 e8       	ldi	r24, 0x84	; 132
    14de:	86 bf       	out	0x36, r24	; 54
    14e0:	8f ef       	ldi	r24, 0xFF	; 255
    14e2:	9f ef       	ldi	r25, 0xFF	; 255
    14e4:	03 c0       	rjmp	.+6      	; 0x14ec <i2c_start+0x36>
    14e6:	06 b6       	in	r0, 0x36	; 54
    14e8:	07 fc       	sbrc	r0, 7
    14ea:	03 c0       	rjmp	.+6      	; 0x14f2 <i2c_start+0x3c>
    14ec:	01 97       	sbiw	r24, 0x01	; 1
    14ee:	d9 f7       	brne	.-10     	; 0x14e6 <i2c_start+0x30>
    14f0:	0b c0       	rjmp	.+22     	; 0x1508 <i2c_start+0x52>
    14f2:	91 b1       	in	r25, 0x01	; 1
    14f4:	98 7f       	andi	r25, 0xF8	; 248
    14f6:	98 31       	cpi	r25, 0x18	; 24
    14f8:	11 f4       	brne	.+4      	; 0x14fe <i2c_start+0x48>
    14fa:	80 e0       	ldi	r24, 0x00	; 0
    14fc:	08 95       	ret
    14fe:	80 e0       	ldi	r24, 0x00	; 0
    1500:	90 34       	cpi	r25, 0x40	; 64
    1502:	19 f0       	breq	.+6      	; 0x150a <i2c_start+0x54>
    1504:	81 e0       	ldi	r24, 0x01	; 1
    1506:	08 95       	ret
    1508:	81 e0       	ldi	r24, 0x01	; 1
    150a:	08 95       	ret

0000150c <i2c_start_wait>:
    150c:	44 ea       	ldi	r20, 0xA4	; 164
    150e:	34 e8       	ldi	r19, 0x84	; 132
    1510:	24 e9       	ldi	r18, 0x94	; 148
    1512:	46 bf       	out	0x36, r20	; 54
    1514:	06 b6       	in	r0, 0x36	; 54
    1516:	07 fe       	sbrs	r0, 7
    1518:	fd cf       	rjmp	.-6      	; 0x1514 <i2c_start_wait+0x8>
    151a:	91 b1       	in	r25, 0x01	; 1
    151c:	98 7f       	andi	r25, 0xF8	; 248
    151e:	98 30       	cpi	r25, 0x08	; 8
    1520:	11 f0       	breq	.+4      	; 0x1526 <i2c_start_wait+0x1a>
    1522:	90 31       	cpi	r25, 0x10	; 16
    1524:	b1 f7       	brne	.-20     	; 0x1512 <i2c_start_wait+0x6>
    1526:	83 b9       	out	0x03, r24	; 3
    1528:	36 bf       	out	0x36, r19	; 54
    152a:	06 b6       	in	r0, 0x36	; 54
    152c:	07 fe       	sbrs	r0, 7
    152e:	fd cf       	rjmp	.-6      	; 0x152a <i2c_start_wait+0x1e>
    1530:	91 b1       	in	r25, 0x01	; 1
    1532:	98 7f       	andi	r25, 0xF8	; 248
    1534:	90 32       	cpi	r25, 0x20	; 32
    1536:	11 f0       	breq	.+4      	; 0x153c <i2c_start_wait+0x30>
    1538:	98 35       	cpi	r25, 0x58	; 88
    153a:	29 f4       	brne	.+10     	; 0x1546 <i2c_start_wait+0x3a>
    153c:	26 bf       	out	0x36, r18	; 54
    153e:	06 b6       	in	r0, 0x36	; 54
    1540:	04 fc       	sbrc	r0, 4
    1542:	fd cf       	rjmp	.-6      	; 0x153e <i2c_start_wait+0x32>
    1544:	e6 cf       	rjmp	.-52     	; 0x1512 <i2c_start_wait+0x6>
    1546:	08 95       	ret

00001548 <i2c_rep_start>:
    1548:	0e 94 5b 0a 	call	0x14b6	; 0x14b6 <i2c_start>
    154c:	08 95       	ret

0000154e <i2c_stop>:
    154e:	84 e9       	ldi	r24, 0x94	; 148
    1550:	86 bf       	out	0x36, r24	; 54
    1552:	8f ef       	ldi	r24, 0xFF	; 255
    1554:	9f ef       	ldi	r25, 0xFF	; 255
    1556:	03 c0       	rjmp	.+6      	; 0x155e <i2c_stop+0x10>
    1558:	06 b6       	in	r0, 0x36	; 54
    155a:	04 fe       	sbrs	r0, 4
    155c:	02 c0       	rjmp	.+4      	; 0x1562 <i2c_stop+0x14>
    155e:	01 97       	sbiw	r24, 0x01	; 1
    1560:	d9 f7       	brne	.-10     	; 0x1558 <i2c_stop+0xa>
    1562:	08 95       	ret

00001564 <i2c_write>:
    1564:	83 b9       	out	0x03, r24	; 3
    1566:	84 e8       	ldi	r24, 0x84	; 132
    1568:	86 bf       	out	0x36, r24	; 54
    156a:	8f ef       	ldi	r24, 0xFF	; 255
    156c:	9f ef       	ldi	r25, 0xFF	; 255
    156e:	03 c0       	rjmp	.+6      	; 0x1576 <i2c_write+0x12>
    1570:	06 b6       	in	r0, 0x36	; 54
    1572:	07 fc       	sbrc	r0, 7
    1574:	03 c0       	rjmp	.+6      	; 0x157c <i2c_write+0x18>
    1576:	01 97       	sbiw	r24, 0x01	; 1
    1578:	d9 f7       	brne	.-10     	; 0x1570 <i2c_write+0xc>
    157a:	05 c0       	rjmp	.+10     	; 0x1586 <i2c_write+0x22>
    157c:	81 b1       	in	r24, 0x01	; 1
    157e:	90 e0       	ldi	r25, 0x00	; 0
    1580:	88 7f       	andi	r24, 0xF8	; 248
    1582:	88 32       	cpi	r24, 0x28	; 40
    1584:	09 f0       	breq	.+2      	; 0x1588 <i2c_write+0x24>
    1586:	91 e0       	ldi	r25, 0x01	; 1
    1588:	89 2f       	mov	r24, r25
    158a:	08 95       	ret

0000158c <i2c_readAck>:
    158c:	84 ec       	ldi	r24, 0xC4	; 196
    158e:	86 bf       	out	0x36, r24	; 54
    1590:	8f ef       	ldi	r24, 0xFF	; 255
    1592:	9f ef       	ldi	r25, 0xFF	; 255
    1594:	05 c0       	rjmp	.+10     	; 0x15a0 <i2c_readAck+0x14>
    1596:	06 b6       	in	r0, 0x36	; 54
    1598:	07 fe       	sbrs	r0, 7
    159a:	02 c0       	rjmp	.+4      	; 0x15a0 <i2c_readAck+0x14>
    159c:	83 b1       	in	r24, 0x03	; 3
    159e:	08 95       	ret
    15a0:	01 97       	sbiw	r24, 0x01	; 1
    15a2:	c9 f7       	brne	.-14     	; 0x1596 <i2c_readAck+0xa>
    15a4:	80 e0       	ldi	r24, 0x00	; 0
    15a6:	08 95       	ret

000015a8 <i2c_readNak>:
    15a8:	84 e8       	ldi	r24, 0x84	; 132
    15aa:	86 bf       	out	0x36, r24	; 54
    15ac:	8f ef       	ldi	r24, 0xFF	; 255
    15ae:	9f ef       	ldi	r25, 0xFF	; 255
    15b0:	05 c0       	rjmp	.+10     	; 0x15bc <i2c_readNak+0x14>
    15b2:	06 b6       	in	r0, 0x36	; 54
    15b4:	07 fe       	sbrs	r0, 7
    15b6:	02 c0       	rjmp	.+4      	; 0x15bc <i2c_readNak+0x14>
    15b8:	83 b1       	in	r24, 0x03	; 3
    15ba:	08 95       	ret
    15bc:	01 97       	sbiw	r24, 0x01	; 1
    15be:	c9 f7       	brne	.-14     	; 0x15b2 <i2c_readNak+0xa>
    15c0:	80 e0       	ldi	r24, 0x00	; 0
    15c2:	08 95       	ret

000015c4 <searchI2C>:
    15c4:	1f 93       	push	r17
    15c6:	10 e0       	ldi	r17, 0x00	; 0
    15c8:	81 2f       	mov	r24, r17
    15ca:	88 0f       	add	r24, r24
    15cc:	0e 94 5b 0a 	call	0x14b6	; 0x14b6 <i2c_start>
    15d0:	0e 94 a7 0a 	call	0x154e	; 0x154e <i2c_stop>
    15d4:	1f 5f       	subi	r17, 0xFF	; 255
    15d6:	10 38       	cpi	r17, 0x80	; 128
    15d8:	b9 f7       	brne	.-18     	; 0x15c8 <searchI2C+0x4>
    15da:	1f 91       	pop	r17
    15dc:	08 95       	ret

000015de <initMillis>:
    15de:	20 e1       	ldi	r18, 0x10	; 16
    15e0:	2f bd       	out	0x2f, r18	; 47
    15e2:	85 e0       	ldi	r24, 0x05	; 5
    15e4:	8e bd       	out	0x2e, r24	; 46
    15e6:	8a e7       	ldi	r24, 0x7A	; 122
    15e8:	90 e0       	ldi	r25, 0x00	; 0
    15ea:	9b bd       	out	0x2b, r25	; 43
    15ec:	8a bd       	out	0x2a, r24	; 42
    15ee:	29 bf       	out	0x39, r18	; 57
    15f0:	08 95       	ret

000015f2 <millis>:
    15f2:	8f b7       	in	r24, 0x3f	; 63
    15f4:	f8 94       	cli
    15f6:	20 91 ce 01 	lds	r18, 0x01CE
    15fa:	30 91 cf 01 	lds	r19, 0x01CF
    15fe:	40 91 d0 01 	lds	r20, 0x01D0
    1602:	50 91 d1 01 	lds	r21, 0x01D1
    1606:	8f bf       	out	0x3f, r24	; 63
    1608:	b9 01       	movw	r22, r18
    160a:	ca 01       	movw	r24, r20
    160c:	08 95       	ret

0000160e <__vector_7>:
    160e:	1f 92       	push	r1
    1610:	0f 92       	push	r0
    1612:	0f b6       	in	r0, 0x3f	; 63
    1614:	0f 92       	push	r0
    1616:	11 24       	eor	r1, r1
    1618:	8f 93       	push	r24
    161a:	9f 93       	push	r25
    161c:	af 93       	push	r26
    161e:	bf 93       	push	r27
    1620:	80 91 ce 01 	lds	r24, 0x01CE
    1624:	90 91 cf 01 	lds	r25, 0x01CF
    1628:	a0 91 d0 01 	lds	r26, 0x01D0
    162c:	b0 91 d1 01 	lds	r27, 0x01D1
    1630:	0f 96       	adiw	r24, 0x0f	; 15
    1632:	a1 1d       	adc	r26, r1
    1634:	b1 1d       	adc	r27, r1
    1636:	80 93 ce 01 	sts	0x01CE, r24
    163a:	90 93 cf 01 	sts	0x01CF, r25
    163e:	a0 93 d0 01 	sts	0x01D0, r26
    1642:	b0 93 d1 01 	sts	0x01D1, r27
    1646:	90 91 d2 01 	lds	r25, 0x01D2
    164a:	89 2f       	mov	r24, r25
    164c:	83 5a       	subi	r24, 0xA3	; 163
    164e:	80 93 d2 01 	sts	0x01D2, r24
    1652:	8d 37       	cpi	r24, 0x7D	; 125
    1654:	b0 f0       	brcs	.+44     	; 0x1682 <__vector_7+0x74>
    1656:	90 52       	subi	r25, 0x20	; 32
    1658:	90 93 d2 01 	sts	0x01D2, r25
    165c:	80 91 ce 01 	lds	r24, 0x01CE
    1660:	90 91 cf 01 	lds	r25, 0x01CF
    1664:	a0 91 d0 01 	lds	r26, 0x01D0
    1668:	b0 91 d1 01 	lds	r27, 0x01D1
    166c:	01 96       	adiw	r24, 0x01	; 1
    166e:	a1 1d       	adc	r26, r1
    1670:	b1 1d       	adc	r27, r1
    1672:	80 93 ce 01 	sts	0x01CE, r24
    1676:	90 93 cf 01 	sts	0x01CF, r25
    167a:	a0 93 d0 01 	sts	0x01D0, r26
    167e:	b0 93 d1 01 	sts	0x01D1, r27
    1682:	bf 91       	pop	r27
    1684:	af 91       	pop	r26
    1686:	9f 91       	pop	r25
    1688:	8f 91       	pop	r24
    168a:	0f 90       	pop	r0
    168c:	0f be       	out	0x3f, r0	; 63
    168e:	0f 90       	pop	r0
    1690:	1f 90       	pop	r1
    1692:	18 95       	reti

00001694 <disk_timerproc>:
    1694:	0e 94 2a 29 	call	0x5254	; 0x5254 <mmc_disk_timerproc>
    1698:	08 95       	ret

0000169a <disk_ioctl>:
    169a:	88 23       	and	r24, r24
    169c:	11 f0       	breq	.+4      	; 0x16a2 <disk_ioctl+0x8>
    169e:	84 e0       	ldi	r24, 0x04	; 4
    16a0:	08 95       	ret
    16a2:	86 2f       	mov	r24, r22
    16a4:	ba 01       	movw	r22, r20
    16a6:	0e 94 06 26 	call	0x4c0c	; 0x4c0c <mmc_disk_ioctl>
    16aa:	08 95       	ret

000016ac <disk_write>:
    16ac:	0f 93       	push	r16
    16ae:	1f 93       	push	r17
    16b0:	88 23       	and	r24, r24
    16b2:	11 f0       	breq	.+4      	; 0x16b8 <disk_write+0xc>
    16b4:	84 e0       	ldi	r24, 0x04	; 4
    16b6:	06 c0       	rjmp	.+12     	; 0x16c4 <disk_write+0x18>
    16b8:	cb 01       	movw	r24, r22
    16ba:	ba 01       	movw	r22, r20
    16bc:	a9 01       	movw	r20, r18
    16be:	98 01       	movw	r18, r16
    16c0:	0e 94 8f 25 	call	0x4b1e	; 0x4b1e <mmc_disk_write>
    16c4:	1f 91       	pop	r17
    16c6:	0f 91       	pop	r16
    16c8:	08 95       	ret

000016ca <disk_read>:
    16ca:	0f 93       	push	r16
    16cc:	1f 93       	push	r17
    16ce:	88 23       	and	r24, r24
    16d0:	11 f0       	breq	.+4      	; 0x16d6 <disk_read+0xc>
    16d2:	84 e0       	ldi	r24, 0x04	; 4
    16d4:	06 c0       	rjmp	.+12     	; 0x16e2 <disk_read+0x18>
    16d6:	cb 01       	movw	r24, r22
    16d8:	ba 01       	movw	r22, r20
    16da:	a9 01       	movw	r20, r18
    16dc:	98 01       	movw	r18, r16
    16de:	0e 94 3f 25 	call	0x4a7e	; 0x4a7e <mmc_disk_read>
    16e2:	1f 91       	pop	r17
    16e4:	0f 91       	pop	r16
    16e6:	08 95       	ret

000016e8 <disk_initialize>:
    16e8:	88 23       	and	r24, r24
    16ea:	11 f0       	breq	.+4      	; 0x16f0 <disk_initialize+0x8>
    16ec:	81 e0       	ldi	r24, 0x01	; 1
    16ee:	08 95       	ret
    16f0:	0e 94 5b 24 	call	0x48b6	; 0x48b6 <mmc_disk_initialize>
    16f4:	08 95       	ret

000016f6 <disk_status>:
    16f6:	88 23       	and	r24, r24
    16f8:	11 f0       	breq	.+4      	; 0x16fe <disk_status+0x8>
    16fa:	81 e0       	ldi	r24, 0x01	; 1
    16fc:	08 95       	ret
    16fe:	0e 94 3c 25 	call	0x4a78	; 0x4a78 <mmc_disk_status>
    1702:	08 95       	ret

00001704 <ld_dword>:
    1704:	fc 01       	movw	r30, r24
    1706:	23 81       	ldd	r18, Z+3	; 0x03
    1708:	30 e0       	ldi	r19, 0x00	; 0
    170a:	40 e0       	ldi	r20, 0x00	; 0
    170c:	50 e0       	ldi	r21, 0x00	; 0
    170e:	54 2f       	mov	r21, r20
    1710:	43 2f       	mov	r20, r19
    1712:	32 2f       	mov	r19, r18
    1714:	22 27       	eor	r18, r18
    1716:	82 81       	ldd	r24, Z+2	; 0x02
    1718:	90 e0       	ldi	r25, 0x00	; 0
    171a:	a0 e0       	ldi	r26, 0x00	; 0
    171c:	b0 e0       	ldi	r27, 0x00	; 0
    171e:	28 2b       	or	r18, r24
    1720:	39 2b       	or	r19, r25
    1722:	4a 2b       	or	r20, r26
    1724:	5b 2b       	or	r21, r27
    1726:	54 2f       	mov	r21, r20
    1728:	43 2f       	mov	r20, r19
    172a:	32 2f       	mov	r19, r18
    172c:	22 27       	eor	r18, r18
    172e:	81 81       	ldd	r24, Z+1	; 0x01
    1730:	90 e0       	ldi	r25, 0x00	; 0
    1732:	a0 e0       	ldi	r26, 0x00	; 0
    1734:	b0 e0       	ldi	r27, 0x00	; 0
    1736:	28 2b       	or	r18, r24
    1738:	39 2b       	or	r19, r25
    173a:	4a 2b       	or	r20, r26
    173c:	5b 2b       	or	r21, r27
    173e:	54 2f       	mov	r21, r20
    1740:	43 2f       	mov	r20, r19
    1742:	32 2f       	mov	r19, r18
    1744:	22 27       	eor	r18, r18
    1746:	80 81       	ld	r24, Z
    1748:	90 e0       	ldi	r25, 0x00	; 0
    174a:	a0 e0       	ldi	r26, 0x00	; 0
    174c:	b0 e0       	ldi	r27, 0x00	; 0
    174e:	28 2b       	or	r18, r24
    1750:	39 2b       	or	r19, r25
    1752:	4a 2b       	or	r20, r26
    1754:	5b 2b       	or	r21, r27
    1756:	b9 01       	movw	r22, r18
    1758:	ca 01       	movw	r24, r20
    175a:	08 95       	ret

0000175c <st_dword>:
    175c:	cf 93       	push	r28
    175e:	df 93       	push	r29
    1760:	9c 01       	movw	r18, r24
    1762:	fc 01       	movw	r30, r24
    1764:	41 93       	st	Z+, r20
    1766:	bb 27       	eor	r27, r27
    1768:	a7 2f       	mov	r26, r23
    176a:	96 2f       	mov	r25, r22
    176c:	85 2f       	mov	r24, r21
    176e:	e9 01       	movw	r28, r18
    1770:	89 83       	std	Y+1, r24	; 0x01
    1772:	cb 01       	movw	r24, r22
    1774:	aa 27       	eor	r26, r26
    1776:	bb 27       	eor	r27, r27
    1778:	81 83       	std	Z+1, r24	; 0x01
    177a:	47 2f       	mov	r20, r23
    177c:	55 27       	eor	r21, r21
    177e:	66 27       	eor	r22, r22
    1780:	77 27       	eor	r23, r23
    1782:	42 83       	std	Z+2, r20	; 0x02
    1784:	df 91       	pop	r29
    1786:	cf 91       	pop	r28
    1788:	08 95       	ret

0000178a <ld_clust>:
    178a:	ef 92       	push	r14
    178c:	ff 92       	push	r15
    178e:	0f 93       	push	r16
    1790:	1f 93       	push	r17
    1792:	fc 01       	movw	r30, r24
    1794:	db 01       	movw	r26, r22
    1796:	5b 96       	adiw	r26, 0x1b	; 27
    1798:	9c 91       	ld	r25, X
    179a:	5b 97       	sbiw	r26, 0x1b	; 27
    179c:	80 e0       	ldi	r24, 0x00	; 0
    179e:	5a 96       	adiw	r26, 0x1a	; 26
    17a0:	2c 91       	ld	r18, X
    17a2:	5a 97       	sbiw	r26, 0x1a	; 26
    17a4:	30 e0       	ldi	r19, 0x00	; 0
    17a6:	82 2b       	or	r24, r18
    17a8:	93 2b       	or	r25, r19
    17aa:	7c 01       	movw	r14, r24
    17ac:	00 e0       	ldi	r16, 0x00	; 0
    17ae:	10 e0       	ldi	r17, 0x00	; 0
    17b0:	80 81       	ld	r24, Z
    17b2:	83 30       	cpi	r24, 0x03	; 3
    17b4:	91 f4       	brne	.+36     	; 0x17da <ld_clust+0x50>
    17b6:	55 96       	adiw	r26, 0x15	; 21
    17b8:	9c 91       	ld	r25, X
    17ba:	55 97       	sbiw	r26, 0x15	; 21
    17bc:	80 e0       	ldi	r24, 0x00	; 0
    17be:	54 96       	adiw	r26, 0x14	; 20
    17c0:	2c 91       	ld	r18, X
    17c2:	30 e0       	ldi	r19, 0x00	; 0
    17c4:	82 2b       	or	r24, r18
    17c6:	93 2b       	or	r25, r19
    17c8:	a0 e0       	ldi	r26, 0x00	; 0
    17ca:	b0 e0       	ldi	r27, 0x00	; 0
    17cc:	dc 01       	movw	r26, r24
    17ce:	99 27       	eor	r25, r25
    17d0:	88 27       	eor	r24, r24
    17d2:	e8 2a       	or	r14, r24
    17d4:	f9 2a       	or	r15, r25
    17d6:	0a 2b       	or	r16, r26
    17d8:	1b 2b       	or	r17, r27
    17da:	b7 01       	movw	r22, r14
    17dc:	c8 01       	movw	r24, r16
    17de:	1f 91       	pop	r17
    17e0:	0f 91       	pop	r16
    17e2:	ff 90       	pop	r15
    17e4:	ef 90       	pop	r14
    17e6:	08 95       	ret

000017e8 <get_ldnumber>:
    17e8:	cf 93       	push	r28
    17ea:	df 93       	push	r29
    17ec:	ec 01       	movw	r28, r24
    17ee:	e8 81       	ld	r30, Y
    17f0:	f9 81       	ldd	r31, Y+1	; 0x01
    17f2:	30 97       	sbiw	r30, 0x00	; 0
    17f4:	f9 f0       	breq	.+62     	; 0x1834 <get_ldnumber+0x4c>
    17f6:	df 01       	movw	r26, r30
    17f8:	8c 91       	ld	r24, X
    17fa:	81 32       	cpi	r24, 0x21	; 33
    17fc:	b0 f0       	brcs	.+44     	; 0x182a <get_ldnumber+0x42>
    17fe:	11 96       	adiw	r26, 0x01	; 1
    1800:	8a 33       	cpi	r24, 0x3A	; 58
    1802:	d1 f7       	brne	.-12     	; 0x17f8 <get_ldnumber+0x10>
    1804:	90 81       	ld	r25, Z
    1806:	89 2f       	mov	r24, r25
    1808:	80 53       	subi	r24, 0x30	; 48
    180a:	8a 30       	cpi	r24, 0x0A	; 10
    180c:	98 f4       	brcc	.+38     	; 0x1834 <get_ldnumber+0x4c>
    180e:	32 96       	adiw	r30, 0x02	; 2
    1810:	ea 17       	cp	r30, r26
    1812:	fb 07       	cpc	r31, r27
    1814:	79 f4       	brne	.+30     	; 0x1834 <get_ldnumber+0x4c>
    1816:	89 2f       	mov	r24, r25
    1818:	90 e0       	ldi	r25, 0x00	; 0
    181a:	c0 97       	sbiw	r24, 0x30	; 48
    181c:	82 30       	cpi	r24, 0x02	; 2
    181e:	91 05       	cpc	r25, r1
    1820:	4c f4       	brge	.+18     	; 0x1834 <get_ldnumber+0x4c>
    1822:	b9 83       	std	Y+1, r27	; 0x01
    1824:	a8 83       	st	Y, r26
    1826:	9c 01       	movw	r18, r24
    1828:	07 c0       	rjmp	.+14     	; 0x1838 <get_ldnumber+0x50>
    182a:	80 91 d9 01 	lds	r24, 0x01D9
    182e:	28 2f       	mov	r18, r24
    1830:	30 e0       	ldi	r19, 0x00	; 0
    1832:	02 c0       	rjmp	.+4      	; 0x1838 <get_ldnumber+0x50>
    1834:	2f ef       	ldi	r18, 0xFF	; 255
    1836:	3f ef       	ldi	r19, 0xFF	; 255
    1838:	c9 01       	movw	r24, r18
    183a:	df 91       	pop	r29
    183c:	cf 91       	pop	r28
    183e:	08 95       	ret

00001840 <validate>:
    1840:	0f 93       	push	r16
    1842:	1f 93       	push	r17
    1844:	cf 93       	push	r28
    1846:	df 93       	push	r29
    1848:	ec 01       	movw	r28, r24
    184a:	8b 01       	movw	r16, r22
    184c:	00 97       	sbiw	r24, 0x00	; 0
    184e:	99 f0       	breq	.+38     	; 0x1876 <validate+0x36>
    1850:	e8 81       	ld	r30, Y
    1852:	f9 81       	ldd	r31, Y+1	; 0x01
    1854:	30 97       	sbiw	r30, 0x00	; 0
    1856:	79 f0       	breq	.+30     	; 0x1876 <validate+0x36>
    1858:	80 81       	ld	r24, Z
    185a:	88 23       	and	r24, r24
    185c:	61 f0       	breq	.+24     	; 0x1876 <validate+0x36>
    185e:	2a 81       	ldd	r18, Y+2	; 0x02
    1860:	3b 81       	ldd	r19, Y+3	; 0x03
    1862:	85 81       	ldd	r24, Z+5	; 0x05
    1864:	96 81       	ldd	r25, Z+6	; 0x06
    1866:	28 17       	cp	r18, r24
    1868:	39 07       	cpc	r19, r25
    186a:	29 f4       	brne	.+10     	; 0x1876 <validate+0x36>
    186c:	81 81       	ldd	r24, Z+1	; 0x01
    186e:	0e 94 7b 0b 	call	0x16f6	; 0x16f6 <disk_status>
    1872:	80 ff       	sbrs	r24, 0
    1874:	0c c0       	rjmp	.+24     	; 0x188e <validate+0x4e>
    1876:	80 e0       	ldi	r24, 0x00	; 0
    1878:	90 e0       	ldi	r25, 0x00	; 0
    187a:	29 e0       	ldi	r18, 0x09	; 9
    187c:	f8 01       	movw	r30, r16
    187e:	91 83       	std	Z+1, r25	; 0x01
    1880:	80 83       	st	Z, r24
    1882:	82 2f       	mov	r24, r18
    1884:	df 91       	pop	r29
    1886:	cf 91       	pop	r28
    1888:	1f 91       	pop	r17
    188a:	0f 91       	pop	r16
    188c:	08 95       	ret
    188e:	88 81       	ld	r24, Y
    1890:	99 81       	ldd	r25, Y+1	; 0x01
    1892:	20 e0       	ldi	r18, 0x00	; 0
    1894:	f3 cf       	rjmp	.-26     	; 0x187c <validate+0x3c>

00001896 <sync_window>:
    1896:	8f 92       	push	r8
    1898:	9f 92       	push	r9
    189a:	af 92       	push	r10
    189c:	bf 92       	push	r11
    189e:	cf 92       	push	r12
    18a0:	df 92       	push	r13
    18a2:	ef 92       	push	r14
    18a4:	ff 92       	push	r15
    18a6:	0f 93       	push	r16
    18a8:	1f 93       	push	r17
    18aa:	cf 93       	push	r28
    18ac:	df 93       	push	r29
    18ae:	ec 01       	movw	r28, r24
    18b0:	8b 81       	ldd	r24, Y+3	; 0x03
    18b2:	88 23       	and	r24, r24
    18b4:	c1 f1       	breq	.+112    	; 0x1926 <sync_window+0x90>
    18b6:	33 e3       	ldi	r19, 0x33	; 51
    18b8:	c3 2e       	mov	r12, r19
    18ba:	d1 2c       	mov	r13, r1
    18bc:	cc 0e       	add	r12, r28
    18be:	dd 1e       	adc	r13, r29
    18c0:	2f a5       	ldd	r18, Y+47	; 0x2f
    18c2:	38 a9       	ldd	r19, Y+48	; 0x30
    18c4:	49 a9       	ldd	r20, Y+49	; 0x31
    18c6:	5a a9       	ldd	r21, Y+50	; 0x32
    18c8:	89 81       	ldd	r24, Y+1	; 0x01
    18ca:	b6 01       	movw	r22, r12
    18cc:	01 e0       	ldi	r16, 0x01	; 1
    18ce:	10 e0       	ldi	r17, 0x00	; 0
    18d0:	0e 94 56 0b 	call	0x16ac	; 0x16ac <disk_write>
    18d4:	88 23       	and	r24, r24
    18d6:	11 f0       	breq	.+4      	; 0x18dc <sync_window+0x46>
    18d8:	81 e0       	ldi	r24, 0x01	; 1
    18da:	26 c0       	rjmp	.+76     	; 0x1928 <sync_window+0x92>
    18dc:	1b 82       	std	Y+3, r1	; 0x03
    18de:	ef a4       	ldd	r14, Y+47	; 0x2f
    18e0:	f8 a8       	ldd	r15, Y+48	; 0x30
    18e2:	09 a9       	ldd	r16, Y+49	; 0x31
    18e4:	1a a9       	ldd	r17, Y+50	; 0x32
    18e6:	2b 8d       	ldd	r18, Y+27	; 0x1b
    18e8:	3c 8d       	ldd	r19, Y+28	; 0x1c
    18ea:	4d 8d       	ldd	r20, Y+29	; 0x1d
    18ec:	5e 8d       	ldd	r21, Y+30	; 0x1e
    18ee:	8b a1       	ldd	r24, Y+35	; 0x23
    18f0:	9c a1       	ldd	r25, Y+36	; 0x24
    18f2:	ad a1       	ldd	r26, Y+37	; 0x25
    18f4:	be a1       	ldd	r27, Y+38	; 0x26
    18f6:	47 01       	movw	r8, r14
    18f8:	58 01       	movw	r10, r16
    18fa:	88 1a       	sub	r8, r24
    18fc:	99 0a       	sbc	r9, r25
    18fe:	aa 0a       	sbc	r10, r26
    1900:	bb 0a       	sbc	r11, r27
    1902:	82 16       	cp	r8, r18
    1904:	93 06       	cpc	r9, r19
    1906:	a4 06       	cpc	r10, r20
    1908:	b5 06       	cpc	r11, r21
    190a:	68 f4       	brcc	.+26     	; 0x1926 <sync_window+0x90>
    190c:	8a 81       	ldd	r24, Y+2	; 0x02
    190e:	82 30       	cpi	r24, 0x02	; 2
    1910:	51 f4       	brne	.+20     	; 0x1926 <sync_window+0x90>
    1912:	2e 0d       	add	r18, r14
    1914:	3f 1d       	adc	r19, r15
    1916:	40 1f       	adc	r20, r16
    1918:	51 1f       	adc	r21, r17
    191a:	89 81       	ldd	r24, Y+1	; 0x01
    191c:	b6 01       	movw	r22, r12
    191e:	01 e0       	ldi	r16, 0x01	; 1
    1920:	10 e0       	ldi	r17, 0x00	; 0
    1922:	0e 94 56 0b 	call	0x16ac	; 0x16ac <disk_write>
    1926:	80 e0       	ldi	r24, 0x00	; 0
    1928:	df 91       	pop	r29
    192a:	cf 91       	pop	r28
    192c:	1f 91       	pop	r17
    192e:	0f 91       	pop	r16
    1930:	ff 90       	pop	r15
    1932:	ef 90       	pop	r14
    1934:	df 90       	pop	r13
    1936:	cf 90       	pop	r12
    1938:	bf 90       	pop	r11
    193a:	af 90       	pop	r10
    193c:	9f 90       	pop	r9
    193e:	8f 90       	pop	r8
    1940:	08 95       	ret

00001942 <move_window>:
    1942:	af 92       	push	r10
    1944:	bf 92       	push	r11
    1946:	cf 92       	push	r12
    1948:	df 92       	push	r13
    194a:	ef 92       	push	r14
    194c:	ff 92       	push	r15
    194e:	0f 93       	push	r16
    1950:	1f 93       	push	r17
    1952:	df 93       	push	r29
    1954:	cf 93       	push	r28
    1956:	0f 92       	push	r0
    1958:	cd b7       	in	r28, 0x3d	; 61
    195a:	de b7       	in	r29, 0x3e	; 62
    195c:	5c 01       	movw	r10, r24
    195e:	6a 01       	movw	r12, r20
    1960:	7b 01       	movw	r14, r22
    1962:	fc 01       	movw	r30, r24
    1964:	87 a5       	ldd	r24, Z+47	; 0x2f
    1966:	90 a9       	ldd	r25, Z+48	; 0x30
    1968:	a1 a9       	ldd	r26, Z+49	; 0x31
    196a:	b2 a9       	ldd	r27, Z+50	; 0x32
    196c:	48 17       	cp	r20, r24
    196e:	59 07       	cpc	r21, r25
    1970:	6a 07       	cpc	r22, r26
    1972:	7b 07       	cpc	r23, r27
    1974:	11 f4       	brne	.+4      	; 0x197a <move_window+0x38>
    1976:	90 e0       	ldi	r25, 0x00	; 0
    1978:	1f c0       	rjmp	.+62     	; 0x19b8 <move_window+0x76>
    197a:	c5 01       	movw	r24, r10
    197c:	0e 94 4b 0c 	call	0x1896	; 0x1896 <sync_window>
    1980:	98 2f       	mov	r25, r24
    1982:	88 23       	and	r24, r24
    1984:	c9 f4       	brne	.+50     	; 0x19b8 <move_window+0x76>
    1986:	b5 01       	movw	r22, r10
    1988:	6d 5c       	subi	r22, 0xCD	; 205
    198a:	7f 4f       	sbci	r23, 0xFF	; 255
    198c:	f5 01       	movw	r30, r10
    198e:	81 81       	ldd	r24, Z+1	; 0x01
    1990:	a7 01       	movw	r20, r14
    1992:	96 01       	movw	r18, r12
    1994:	01 e0       	ldi	r16, 0x01	; 1
    1996:	10 e0       	ldi	r17, 0x00	; 0
    1998:	99 83       	std	Y+1, r25	; 0x01
    199a:	0e 94 65 0b 	call	0x16ca	; 0x16ca <disk_read>
    199e:	99 81       	ldd	r25, Y+1	; 0x01
    19a0:	88 23       	and	r24, r24
    19a2:	29 f0       	breq	.+10     	; 0x19ae <move_window+0x6c>
    19a4:	cc 24       	eor	r12, r12
    19a6:	ca 94       	dec	r12
    19a8:	dc 2c       	mov	r13, r12
    19aa:	76 01       	movw	r14, r12
    19ac:	91 e0       	ldi	r25, 0x01	; 1
    19ae:	f5 01       	movw	r30, r10
    19b0:	c7 a6       	std	Z+47, r12	; 0x2f
    19b2:	d0 aa       	std	Z+48, r13	; 0x30
    19b4:	e1 aa       	std	Z+49, r14	; 0x31
    19b6:	f2 aa       	std	Z+50, r15	; 0x32
    19b8:	89 2f       	mov	r24, r25
    19ba:	0f 90       	pop	r0
    19bc:	cf 91       	pop	r28
    19be:	df 91       	pop	r29
    19c0:	1f 91       	pop	r17
    19c2:	0f 91       	pop	r16
    19c4:	ff 90       	pop	r15
    19c6:	ef 90       	pop	r14
    19c8:	df 90       	pop	r13
    19ca:	cf 90       	pop	r12
    19cc:	bf 90       	pop	r11
    19ce:	af 90       	pop	r10
    19d0:	08 95       	ret

000019d2 <check_fs>:
    19d2:	0f 93       	push	r16
    19d4:	1f 93       	push	r17
    19d6:	cf 93       	push	r28
    19d8:	df 93       	push	r29
    19da:	ec 01       	movw	r28, r24
    19dc:	1b 82       	std	Y+3, r1	; 0x03
    19de:	8f ef       	ldi	r24, 0xFF	; 255
    19e0:	9f ef       	ldi	r25, 0xFF	; 255
    19e2:	af ef       	ldi	r26, 0xFF	; 255
    19e4:	bf ef       	ldi	r27, 0xFF	; 255
    19e6:	8f a7       	std	Y+47, r24	; 0x2f
    19e8:	98 ab       	std	Y+48, r25	; 0x30
    19ea:	a9 ab       	std	Y+49, r26	; 0x31
    19ec:	ba ab       	std	Y+50, r27	; 0x32
    19ee:	ce 01       	movw	r24, r28
    19f0:	0e 94 a1 0c 	call	0x1942	; 0x1942 <move_window>
    19f4:	88 23       	and	r24, r24
    19f6:	19 f0       	breq	.+6      	; 0x19fe <check_fs+0x2c>
    19f8:	24 e0       	ldi	r18, 0x04	; 4
    19fa:	30 e0       	ldi	r19, 0x00	; 0
    19fc:	98 c0       	rjmp	.+304    	; 0x1b2e <check_fs+0x15c>
    19fe:	ce 5c       	subi	r28, 0xCE	; 206
    1a00:	dd 4f       	sbci	r29, 0xFD	; 253
    1a02:	98 81       	ld	r25, Y
    1a04:	80 e0       	ldi	r24, 0x00	; 0
    1a06:	2a 91       	ld	r18, -Y
    1a08:	c1 53       	subi	r28, 0x31	; 49
    1a0a:	d2 40       	sbci	r29, 0x02	; 2
    1a0c:	02 2f       	mov	r16, r18
    1a0e:	10 e0       	ldi	r17, 0x00	; 0
    1a10:	08 2b       	or	r16, r24
    1a12:	19 2b       	or	r17, r25
    1a14:	8b a9       	ldd	r24, Y+51	; 0x33
    1a16:	8b 3e       	cpi	r24, 0xEB	; 235
    1a18:	29 f0       	breq	.+10     	; 0x1a24 <check_fs+0x52>
    1a1a:	89 3e       	cpi	r24, 0xE9	; 233
    1a1c:	19 f0       	breq	.+6      	; 0x1a24 <check_fs+0x52>
    1a1e:	88 3e       	cpi	r24, 0xE8	; 232
    1a20:	09 f0       	breq	.+2      	; 0x1a24 <check_fs+0x52>
    1a22:	7a c0       	rjmp	.+244    	; 0x1b18 <check_fs+0x146>
    1a24:	2a ea       	ldi	r18, 0xAA	; 170
    1a26:	05 35       	cpi	r16, 0x55	; 85
    1a28:	12 07       	cpc	r17, r18
    1a2a:	61 f4       	brne	.+24     	; 0x1a44 <check_fs+0x72>
    1a2c:	ce 01       	movw	r24, r28
    1a2e:	8b 57       	subi	r24, 0x7B	; 123
    1a30:	9f 4f       	sbci	r25, 0xFF	; 255
    1a32:	60 e6       	ldi	r22, 0x60	; 96
    1a34:	70 e0       	ldi	r23, 0x00	; 0
    1a36:	48 e0       	ldi	r20, 0x08	; 8
    1a38:	50 e0       	ldi	r21, 0x00	; 0
    1a3a:	0e 94 c6 2b 	call	0x578c	; 0x578c <memcmp>
    1a3e:	00 97       	sbiw	r24, 0x00	; 0
    1a40:	09 f4       	brne	.+2      	; 0x1a44 <check_fs+0x72>
    1a42:	73 c0       	rjmp	.+230    	; 0x1b2a <check_fs+0x158>
    1a44:	9f ad       	ldd	r25, Y+63	; 0x3f
    1a46:	80 e0       	ldi	r24, 0x00	; 0
    1a48:	2e ad       	ldd	r18, Y+62	; 0x3e
    1a4a:	42 2f       	mov	r20, r18
    1a4c:	50 e0       	ldi	r21, 0x00	; 0
    1a4e:	48 2b       	or	r20, r24
    1a50:	59 2b       	or	r21, r25
    1a52:	c0 5c       	subi	r28, 0xC0	; 192
    1a54:	df 4f       	sbci	r29, 0xFF	; 255
    1a56:	28 81       	ld	r18, Y
    1a58:	c0 54       	subi	r28, 0x40	; 64
    1a5a:	d0 40       	sbci	r29, 0x00	; 0
    1a5c:	ca 01       	movw	r24, r20
    1a5e:	01 97       	sbiw	r24, 0x01	; 1
    1a60:	84 23       	and	r24, r20
    1a62:	95 23       	and	r25, r21
    1a64:	89 2b       	or	r24, r25
    1a66:	09 f0       	breq	.+2      	; 0x1a6a <check_fs+0x98>
    1a68:	57 c0       	rjmp	.+174    	; 0x1b18 <check_fs+0x146>
    1a6a:	82 e0       	ldi	r24, 0x02	; 2
    1a6c:	40 30       	cpi	r20, 0x00	; 0
    1a6e:	58 07       	cpc	r21, r24
    1a70:	08 f4       	brcc	.+2      	; 0x1a74 <check_fs+0xa2>
    1a72:	52 c0       	rjmp	.+164    	; 0x1b18 <check_fs+0x146>
    1a74:	40 50       	subi	r20, 0x00	; 0
    1a76:	52 40       	sbci	r21, 0x02	; 2
    1a78:	09 f0       	breq	.+2      	; 0x1a7c <check_fs+0xaa>
    1a7a:	4e c0       	rjmp	.+156    	; 0x1b18 <check_fs+0x146>
    1a7c:	22 23       	and	r18, r18
    1a7e:	09 f4       	brne	.+2      	; 0x1a82 <check_fs+0xb0>
    1a80:	4b c0       	rjmp	.+150    	; 0x1b18 <check_fs+0x146>
    1a82:	30 e0       	ldi	r19, 0x00	; 0
    1a84:	c9 01       	movw	r24, r18
    1a86:	01 97       	sbiw	r24, 0x01	; 1
    1a88:	82 23       	and	r24, r18
    1a8a:	93 23       	and	r25, r19
    1a8c:	89 2b       	or	r24, r25
    1a8e:	09 f0       	breq	.+2      	; 0x1a92 <check_fs+0xc0>
    1a90:	43 c0       	rjmp	.+134    	; 0x1b18 <check_fs+0x146>
    1a92:	ce 5b       	subi	r28, 0xBE	; 190
    1a94:	df 4f       	sbci	r29, 0xFF	; 255
    1a96:	98 81       	ld	r25, Y
    1a98:	80 e0       	ldi	r24, 0x00	; 0
    1a9a:	2a 91       	ld	r18, -Y
    1a9c:	c1 54       	subi	r28, 0x41	; 65
    1a9e:	d0 40       	sbci	r29, 0x00	; 0
    1aa0:	30 e0       	ldi	r19, 0x00	; 0
    1aa2:	82 2b       	or	r24, r18
    1aa4:	93 2b       	or	r25, r19
    1aa6:	89 2b       	or	r24, r25
    1aa8:	b9 f1       	breq	.+110    	; 0x1b18 <check_fs+0x146>
    1aaa:	cd 5b       	subi	r28, 0xBD	; 189
    1aac:	df 4f       	sbci	r29, 0xFF	; 255
    1aae:	88 81       	ld	r24, Y
    1ab0:	c3 54       	subi	r28, 0x43	; 67
    1ab2:	d0 40       	sbci	r29, 0x00	; 0
    1ab4:	90 e0       	ldi	r25, 0x00	; 0
    1ab6:	01 97       	sbiw	r24, 0x01	; 1
    1ab8:	02 97       	sbiw	r24, 0x02	; 2
    1aba:	70 f5       	brcc	.+92     	; 0x1b18 <check_fs+0x146>
    1abc:	cb 5b       	subi	r28, 0xBB	; 187
    1abe:	df 4f       	sbci	r29, 0xFF	; 255
    1ac0:	98 81       	ld	r25, Y
    1ac2:	80 e0       	ldi	r24, 0x00	; 0
    1ac4:	2a 91       	ld	r18, -Y
    1ac6:	c4 54       	subi	r28, 0x44	; 68
    1ac8:	d0 40       	sbci	r29, 0x00	; 0
    1aca:	30 e0       	ldi	r19, 0x00	; 0
    1acc:	82 2b       	or	r24, r18
    1ace:	93 2b       	or	r25, r19
    1ad0:	89 2b       	or	r24, r25
    1ad2:	11 f1       	breq	.+68     	; 0x1b18 <check_fs+0x146>
    1ad4:	c9 5b       	subi	r28, 0xB9	; 185
    1ad6:	df 4f       	sbci	r29, 0xFF	; 255
    1ad8:	98 81       	ld	r25, Y
    1ada:	80 e0       	ldi	r24, 0x00	; 0
    1adc:	2a 91       	ld	r18, -Y
    1ade:	c6 54       	subi	r28, 0x46	; 70
    1ae0:	d0 40       	sbci	r29, 0x00	; 0
    1ae2:	30 e0       	ldi	r19, 0x00	; 0
    1ae4:	82 2b       	or	r24, r18
    1ae6:	93 2b       	or	r25, r19
    1ae8:	80 38       	cpi	r24, 0x80	; 128
    1aea:	91 05       	cpc	r25, r1
    1aec:	50 f4       	brcc	.+20     	; 0x1b02 <check_fs+0x130>
    1aee:	ce 01       	movw	r24, r28
    1af0:	8d 5a       	subi	r24, 0xAD	; 173
    1af2:	9f 4f       	sbci	r25, 0xFF	; 255
    1af4:	0e 94 82 0b 	call	0x1704	; 0x1704 <ld_dword>
    1af8:	60 50       	subi	r22, 0x00	; 0
    1afa:	70 40       	sbci	r23, 0x00	; 0
    1afc:	81 40       	sbci	r24, 0x01	; 1
    1afe:	90 40       	sbci	r25, 0x00	; 0
    1b00:	58 f0       	brcs	.+22     	; 0x1b18 <check_fs+0x146>
    1b02:	c6 5b       	subi	r28, 0xB6	; 182
    1b04:	df 4f       	sbci	r29, 0xFF	; 255
    1b06:	38 81       	ld	r19, Y
    1b08:	20 e0       	ldi	r18, 0x00	; 0
    1b0a:	fe 01       	movw	r30, r28
    1b0c:	82 91       	ld	r24, -Z
    1b0e:	90 e0       	ldi	r25, 0x00	; 0
    1b10:	28 2b       	or	r18, r24
    1b12:	39 2b       	or	r19, r25
    1b14:	23 2b       	or	r18, r19
    1b16:	49 f4       	brne	.+18     	; 0x1b2a <check_fs+0x158>
    1b18:	05 55       	subi	r16, 0x55	; 85
    1b1a:	1a 4a       	sbci	r17, 0xAA	; 170
    1b1c:	19 f0       	breq	.+6      	; 0x1b24 <check_fs+0x152>
    1b1e:	23 e0       	ldi	r18, 0x03	; 3
    1b20:	30 e0       	ldi	r19, 0x00	; 0
    1b22:	05 c0       	rjmp	.+10     	; 0x1b2e <check_fs+0x15c>
    1b24:	22 e0       	ldi	r18, 0x02	; 2
    1b26:	30 e0       	ldi	r19, 0x00	; 0
    1b28:	02 c0       	rjmp	.+4      	; 0x1b2e <check_fs+0x15c>
    1b2a:	20 e0       	ldi	r18, 0x00	; 0
    1b2c:	30 e0       	ldi	r19, 0x00	; 0
    1b2e:	c9 01       	movw	r24, r18
    1b30:	df 91       	pop	r29
    1b32:	cf 91       	pop	r28
    1b34:	1f 91       	pop	r17
    1b36:	0f 91       	pop	r16
    1b38:	08 95       	ret

00001b3a <mount_volume>:
    1b3a:	2f 92       	push	r2
    1b3c:	3f 92       	push	r3
    1b3e:	4f 92       	push	r4
    1b40:	5f 92       	push	r5
    1b42:	6f 92       	push	r6
    1b44:	7f 92       	push	r7
    1b46:	8f 92       	push	r8
    1b48:	9f 92       	push	r9
    1b4a:	af 92       	push	r10
    1b4c:	bf 92       	push	r11
    1b4e:	cf 92       	push	r12
    1b50:	df 92       	push	r13
    1b52:	ef 92       	push	r14
    1b54:	ff 92       	push	r15
    1b56:	0f 93       	push	r16
    1b58:	1f 93       	push	r17
    1b5a:	df 93       	push	r29
    1b5c:	cf 93       	push	r28
    1b5e:	cd b7       	in	r28, 0x3d	; 61
    1b60:	de b7       	in	r29, 0x3e	; 62
    1b62:	68 97       	sbiw	r28, 0x18	; 24
    1b64:	0f b6       	in	r0, 0x3f	; 63
    1b66:	f8 94       	cli
    1b68:	de bf       	out	0x3e, r29	; 62
    1b6a:	0f be       	out	0x3f, r0	; 63
    1b6c:	cd bf       	out	0x3d, r28	; 61
    1b6e:	6b 01       	movw	r12, r22
    1b70:	b4 2e       	mov	r11, r20
    1b72:	db 01       	movw	r26, r22
    1b74:	1d 92       	st	X+, r1
    1b76:	1c 92       	st	X, r1
    1b78:	0e 94 f4 0b 	call	0x17e8	; 0x17e8 <get_ldnumber>
    1b7c:	7c 01       	movw	r14, r24
    1b7e:	97 ff       	sbrs	r25, 7
    1b80:	02 c0       	rjmp	.+4      	; 0x1b86 <mount_volume+0x4c>
    1b82:	8b e0       	ldi	r24, 0x0B	; 11
    1b84:	c6 c2       	rjmp	.+1420   	; 0x2112 <mount_volume+0x5d8>
    1b86:	fc 01       	movw	r30, r24
    1b88:	ee 0f       	add	r30, r30
    1b8a:	ff 1f       	adc	r31, r31
    1b8c:	ed 52       	subi	r30, 0x2D	; 45
    1b8e:	fe 4f       	sbci	r31, 0xFE	; 254
    1b90:	00 81       	ld	r16, Z
    1b92:	11 81       	ldd	r17, Z+1	; 0x01
    1b94:	01 15       	cp	r16, r1
    1b96:	11 05       	cpc	r17, r1
    1b98:	11 f4       	brne	.+4      	; 0x1b9e <mount_volume+0x64>
    1b9a:	8c e0       	ldi	r24, 0x0C	; 12
    1b9c:	ba c2       	rjmp	.+1396   	; 0x2112 <mount_volume+0x5d8>
    1b9e:	f6 01       	movw	r30, r12
    1ba0:	11 83       	std	Z+1, r17	; 0x01
    1ba2:	00 83       	st	Z, r16
    1ba4:	be ef       	ldi	r27, 0xFE	; 254
    1ba6:	db 2e       	mov	r13, r27
    1ba8:	db 20       	and	r13, r11
    1baa:	d8 01       	movw	r26, r16
    1bac:	8c 91       	ld	r24, X
    1bae:	88 23       	and	r24, r24
    1bb0:	61 f0       	breq	.+24     	; 0x1bca <mount_volume+0x90>
    1bb2:	11 96       	adiw	r26, 0x01	; 1
    1bb4:	8c 91       	ld	r24, X
    1bb6:	0e 94 7b 0b 	call	0x16f6	; 0x16f6 <disk_status>
    1bba:	80 fd       	sbrc	r24, 0
    1bbc:	06 c0       	rjmp	.+12     	; 0x1bca <mount_volume+0x90>
    1bbe:	dd 20       	and	r13, r13
    1bc0:	09 f4       	brne	.+2      	; 0x1bc4 <mount_volume+0x8a>
    1bc2:	a4 c2       	rjmp	.+1352   	; 0x210c <mount_volume+0x5d2>
    1bc4:	82 fd       	sbrc	r24, 2
    1bc6:	a0 c2       	rjmp	.+1344   	; 0x2108 <mount_volume+0x5ce>
    1bc8:	a1 c2       	rjmp	.+1346   	; 0x210c <mount_volume+0x5d2>
    1bca:	f8 01       	movw	r30, r16
    1bcc:	10 82       	st	Z, r1
    1bce:	e1 82       	std	Z+1, r14	; 0x01
    1bd0:	8e 2d       	mov	r24, r14
    1bd2:	0e 94 74 0b 	call	0x16e8	; 0x16e8 <disk_initialize>
    1bd6:	80 ff       	sbrs	r24, 0
    1bd8:	02 c0       	rjmp	.+4      	; 0x1bde <mount_volume+0xa4>
    1bda:	83 e0       	ldi	r24, 0x03	; 3
    1bdc:	9a c2       	rjmp	.+1332   	; 0x2112 <mount_volume+0x5d8>
    1bde:	dd 20       	and	r13, r13
    1be0:	11 f0       	breq	.+4      	; 0x1be6 <mount_volume+0xac>
    1be2:	82 fd       	sbrc	r24, 2
    1be4:	91 c2       	rjmp	.+1314   	; 0x2108 <mount_volume+0x5ce>
    1be6:	c8 01       	movw	r24, r16
    1be8:	40 e0       	ldi	r20, 0x00	; 0
    1bea:	50 e0       	ldi	r21, 0x00	; 0
    1bec:	60 e0       	ldi	r22, 0x00	; 0
    1bee:	70 e0       	ldi	r23, 0x00	; 0
    1bf0:	0e 94 e9 0c 	call	0x19d2	; 0x19d2 <check_fs>
    1bf4:	82 30       	cpi	r24, 0x02	; 2
    1bf6:	91 05       	cpc	r25, r1
    1bf8:	09 f0       	breq	.+2      	; 0x1bfc <mount_volume+0xc2>
    1bfa:	40 c0       	rjmp	.+128    	; 0x1c7c <mount_volume+0x142>
    1bfc:	6e 01       	movw	r12, r28
    1bfe:	08 94       	sec
    1c00:	c1 1c       	adc	r12, r1
    1c02:	d1 1c       	adc	r13, r1
    1c04:	56 01       	movw	r10, r12
    1c06:	a6 ec       	ldi	r26, 0xC6	; 198
    1c08:	ea 2e       	mov	r14, r26
    1c0a:	a1 e0       	ldi	r26, 0x01	; 1
    1c0c:	fa 2e       	mov	r15, r26
    1c0e:	23 e3       	ldi	r18, 0x33	; 51
    1c10:	30 e0       	ldi	r19, 0x00	; 0
    1c12:	e2 0e       	add	r14, r18
    1c14:	f3 1e       	adc	r15, r19
    1c16:	c8 01       	movw	r24, r16
    1c18:	8e 0d       	add	r24, r14
    1c1a:	9f 1d       	adc	r25, r15
    1c1c:	0e 94 82 0b 	call	0x1704	; 0x1704 <ld_dword>
    1c20:	d5 01       	movw	r26, r10
    1c22:	6d 93       	st	X+, r22
    1c24:	7d 93       	st	X+, r23
    1c26:	8d 93       	st	X+, r24
    1c28:	9d 93       	st	X+, r25
    1c2a:	5d 01       	movw	r10, r26
    1c2c:	ed ed       	ldi	r30, 0xDD	; 221
    1c2e:	ff ef       	ldi	r31, 0xFF	; 255
    1c30:	ee 0e       	add	r14, r30
    1c32:	ff 1e       	adc	r15, r31
    1c34:	f6 e0       	ldi	r31, 0x06	; 6
    1c36:	ef 16       	cp	r14, r31
    1c38:	f2 e0       	ldi	r31, 0x02	; 2
    1c3a:	ff 06       	cpc	r15, r31
    1c3c:	41 f7       	brne	.-48     	; 0x1c0e <mount_volume+0xd4>
    1c3e:	f1 e1       	ldi	r31, 0x11	; 17
    1c40:	ef 2e       	mov	r14, r31
    1c42:	f1 2c       	mov	r15, r1
    1c44:	ec 0e       	add	r14, r28
    1c46:	fd 1e       	adc	r15, r29
    1c48:	d6 01       	movw	r26, r12
    1c4a:	4d 91       	ld	r20, X+
    1c4c:	5d 91       	ld	r21, X+
    1c4e:	6d 91       	ld	r22, X+
    1c50:	7c 91       	ld	r23, X
    1c52:	41 15       	cp	r20, r1
    1c54:	51 05       	cpc	r21, r1
    1c56:	61 05       	cpc	r22, r1
    1c58:	71 05       	cpc	r23, r1
    1c5a:	19 f4       	brne	.+6      	; 0x1c62 <mount_volume+0x128>
    1c5c:	83 e0       	ldi	r24, 0x03	; 3
    1c5e:	90 e0       	ldi	r25, 0x00	; 0
    1c60:	06 c0       	rjmp	.+12     	; 0x1c6e <mount_volume+0x134>
    1c62:	c8 01       	movw	r24, r16
    1c64:	0e 94 e9 0c 	call	0x19d2	; 0x19d2 <check_fs>
    1c68:	82 30       	cpi	r24, 0x02	; 2
    1c6a:	91 05       	cpc	r25, r1
    1c6c:	78 f0       	brcs	.+30     	; 0x1c8c <mount_volume+0x152>
    1c6e:	e4 e0       	ldi	r30, 0x04	; 4
    1c70:	f0 e0       	ldi	r31, 0x00	; 0
    1c72:	ce 0e       	add	r12, r30
    1c74:	df 1e       	adc	r13, r31
    1c76:	ce 14       	cp	r12, r14
    1c78:	df 04       	cpc	r13, r15
    1c7a:	31 f7       	brne	.-52     	; 0x1c48 <mount_volume+0x10e>
    1c7c:	84 30       	cpi	r24, 0x04	; 4
    1c7e:	91 05       	cpc	r25, r1
    1c80:	11 f4       	brne	.+4      	; 0x1c86 <mount_volume+0x14c>
    1c82:	81 e0       	ldi	r24, 0x01	; 1
    1c84:	46 c2       	rjmp	.+1164   	; 0x2112 <mount_volume+0x5d8>
    1c86:	02 97       	sbiw	r24, 0x02	; 2
    1c88:	08 f0       	brcs	.+2      	; 0x1c8c <mount_volume+0x152>
    1c8a:	42 c2       	rjmp	.+1156   	; 0x2110 <mount_volume+0x5d6>
    1c8c:	d8 01       	movw	r26, r16
    1c8e:	9f 96       	adiw	r26, 0x2f	; 47
    1c90:	8d 91       	ld	r24, X+
    1c92:	9d 91       	ld	r25, X+
    1c94:	0d 90       	ld	r0, X+
    1c96:	bc 91       	ld	r27, X
    1c98:	a0 2d       	mov	r26, r0
    1c9a:	8d 8b       	std	Y+21, r24	; 0x15
    1c9c:	9e 8b       	std	Y+22, r25	; 0x16
    1c9e:	af 8b       	std	Y+23, r26	; 0x17
    1ca0:	b8 8f       	std	Y+24, r27	; 0x18
    1ca2:	f8 01       	movw	r30, r16
    1ca4:	97 ad       	ldd	r25, Z+63	; 0x3f
    1ca6:	80 e0       	ldi	r24, 0x00	; 0
    1ca8:	26 ad       	ldd	r18, Z+62	; 0x3e
    1caa:	30 e0       	ldi	r19, 0x00	; 0
    1cac:	82 2b       	or	r24, r18
    1cae:	93 2b       	or	r25, r19
    1cb0:	80 50       	subi	r24, 0x00	; 0
    1cb2:	92 40       	sbci	r25, 0x02	; 2
    1cb4:	09 f0       	breq	.+2      	; 0x1cb8 <mount_volume+0x17e>
    1cb6:	2c c2       	rjmp	.+1112   	; 0x2110 <mount_volume+0x5d6>
    1cb8:	06 5b       	subi	r16, 0xB6	; 182
    1cba:	1f 4f       	sbci	r17, 0xFF	; 255
    1cbc:	d8 01       	movw	r26, r16
    1cbe:	9c 91       	ld	r25, X
    1cc0:	80 e0       	ldi	r24, 0x00	; 0
    1cc2:	f8 01       	movw	r30, r16
    1cc4:	22 91       	ld	r18, -Z
    1cc6:	8f 01       	movw	r16, r30
    1cc8:	09 54       	subi	r16, 0x49	; 73
    1cca:	10 40       	sbci	r17, 0x00	; 0
    1ccc:	30 e0       	ldi	r19, 0x00	; 0
    1cce:	82 2b       	or	r24, r18
    1cd0:	93 2b       	or	r25, r19
    1cd2:	2c 01       	movw	r4, r24
    1cd4:	66 24       	eor	r6, r6
    1cd6:	77 24       	eor	r7, r7
    1cd8:	41 14       	cp	r4, r1
    1cda:	51 04       	cpc	r5, r1
    1cdc:	61 04       	cpc	r6, r1
    1cde:	71 04       	cpc	r7, r1
    1ce0:	39 f4       	brne	.+14     	; 0x1cf0 <mount_volume+0x1b6>
    1ce2:	c8 01       	movw	r24, r16
    1ce4:	89 5a       	subi	r24, 0xA9	; 169
    1ce6:	9f 4f       	sbci	r25, 0xFF	; 255
    1ce8:	0e 94 82 0b 	call	0x1704	; 0x1704 <ld_dword>
    1cec:	2b 01       	movw	r4, r22
    1cee:	3c 01       	movw	r6, r24
    1cf0:	d8 01       	movw	r26, r16
    1cf2:	5b 96       	adiw	r26, 0x1b	; 27
    1cf4:	4d 92       	st	X+, r4
    1cf6:	5d 92       	st	X+, r5
    1cf8:	6d 92       	st	X+, r6
    1cfa:	7c 92       	st	X, r7
    1cfc:	5e 97       	sbiw	r26, 0x1e	; 30
    1cfe:	0d 5b       	subi	r16, 0xBD	; 189
    1d00:	1f 4f       	sbci	r17, 0xFF	; 255
    1d02:	f8 01       	movw	r30, r16
    1d04:	30 80       	ld	r3, Z
    1d06:	03 54       	subi	r16, 0x43	; 67
    1d08:	10 40       	sbci	r17, 0x00	; 0
    1d0a:	d8 01       	movw	r26, r16
    1d0c:	12 96       	adiw	r26, 0x02	; 2
    1d0e:	3c 92       	st	X, r3
    1d10:	83 2d       	mov	r24, r3
    1d12:	81 50       	subi	r24, 0x01	; 1
    1d14:	82 30       	cpi	r24, 0x02	; 2
    1d16:	08 f0       	brcs	.+2      	; 0x1d1a <mount_volume+0x1e0>
    1d18:	fb c1       	rjmp	.+1014   	; 0x2110 <mount_volume+0x5d6>
    1d1a:	00 5c       	subi	r16, 0xC0	; 192
    1d1c:	1f 4f       	sbci	r17, 0xFF	; 255
    1d1e:	f8 01       	movw	r30, r16
    1d20:	80 81       	ld	r24, Z
    1d22:	00 54       	subi	r16, 0x40	; 64
    1d24:	10 40       	sbci	r17, 0x00	; 0
    1d26:	28 2f       	mov	r18, r24
    1d28:	30 e0       	ldi	r19, 0x00	; 0
    1d2a:	d8 01       	movw	r26, r16
    1d2c:	1a 96       	adiw	r26, 0x0a	; 10
    1d2e:	3c 93       	st	X, r19
    1d30:	2e 93       	st	-X, r18
    1d32:	19 97       	sbiw	r26, 0x09	; 9
    1d34:	21 15       	cp	r18, r1
    1d36:	31 05       	cpc	r19, r1
    1d38:	09 f4       	brne	.+2      	; 0x1d3c <mount_volume+0x202>
    1d3a:	ea c1       	rjmp	.+980    	; 0x2110 <mount_volume+0x5d6>
    1d3c:	c9 01       	movw	r24, r18
    1d3e:	01 97       	sbiw	r24, 0x01	; 1
    1d40:	82 23       	and	r24, r18
    1d42:	93 23       	and	r25, r19
    1d44:	89 2b       	or	r24, r25
    1d46:	09 f0       	breq	.+2      	; 0x1d4a <mount_volume+0x210>
    1d48:	e3 c1       	rjmp	.+966    	; 0x2110 <mount_volume+0x5d6>
    1d4a:	0b 5b       	subi	r16, 0xBB	; 187
    1d4c:	1f 4f       	sbci	r17, 0xFF	; 255
    1d4e:	f8 01       	movw	r30, r16
    1d50:	90 81       	ld	r25, Z
    1d52:	80 e0       	ldi	r24, 0x00	; 0
    1d54:	d8 01       	movw	r26, r16
    1d56:	2e 91       	ld	r18, -X
    1d58:	8d 01       	movw	r16, r26
    1d5a:	04 54       	subi	r16, 0x44	; 68
    1d5c:	10 40       	sbci	r17, 0x00	; 0
    1d5e:	c2 2e       	mov	r12, r18
    1d60:	dd 24       	eor	r13, r13
    1d62:	c8 2a       	or	r12, r24
    1d64:	d9 2a       	or	r13, r25
    1d66:	f8 01       	movw	r30, r16
    1d68:	d0 86       	std	Z+8, r13	; 0x08
    1d6a:	c7 82       	std	Z+7, r12	; 0x07
    1d6c:	c6 01       	movw	r24, r12
    1d6e:	8f 70       	andi	r24, 0x0F	; 15
    1d70:	90 70       	andi	r25, 0x00	; 0
    1d72:	89 2b       	or	r24, r25
    1d74:	09 f0       	breq	.+2      	; 0x1d78 <mount_volume+0x23e>
    1d76:	cc c1       	rjmp	.+920    	; 0x2110 <mount_volume+0x5d6>
    1d78:	09 5b       	subi	r16, 0xB9	; 185
    1d7a:	1f 4f       	sbci	r17, 0xFF	; 255
    1d7c:	d8 01       	movw	r26, r16
    1d7e:	9c 91       	ld	r25, X
    1d80:	80 e0       	ldi	r24, 0x00	; 0
    1d82:	f8 01       	movw	r30, r16
    1d84:	22 91       	ld	r18, -Z
    1d86:	8f 01       	movw	r16, r30
    1d88:	06 54       	subi	r16, 0x46	; 70
    1d8a:	10 40       	sbci	r17, 0x00	; 0
    1d8c:	30 e0       	ldi	r19, 0x00	; 0
    1d8e:	82 2b       	or	r24, r18
    1d90:	93 2b       	or	r25, r19
    1d92:	4c 01       	movw	r8, r24
    1d94:	aa 24       	eor	r10, r10
    1d96:	bb 24       	eor	r11, r11
    1d98:	81 14       	cp	r8, r1
    1d9a:	91 04       	cpc	r9, r1
    1d9c:	a1 04       	cpc	r10, r1
    1d9e:	b1 04       	cpc	r11, r1
    1da0:	39 f4       	brne	.+14     	; 0x1db0 <mount_volume+0x276>
    1da2:	c8 01       	movw	r24, r16
    1da4:	8d 5a       	subi	r24, 0xAD	; 173
    1da6:	9f 4f       	sbci	r25, 0xFF	; 255
    1da8:	0e 94 82 0b 	call	0x1704	; 0x1704 <ld_dword>
    1dac:	4b 01       	movw	r8, r22
    1dae:	5c 01       	movw	r10, r24
    1db0:	0e 5b       	subi	r16, 0xBE	; 190
    1db2:	1f 4f       	sbci	r17, 0xFF	; 255
    1db4:	d8 01       	movw	r26, r16
    1db6:	9c 91       	ld	r25, X
    1db8:	80 e0       	ldi	r24, 0x00	; 0
    1dba:	f8 01       	movw	r30, r16
    1dbc:	22 91       	ld	r18, -Z
    1dbe:	8f 01       	movw	r16, r30
    1dc0:	01 54       	subi	r16, 0x41	; 65
    1dc2:	10 40       	sbci	r17, 0x00	; 0
    1dc4:	e2 2e       	mov	r14, r18
    1dc6:	ff 24       	eor	r15, r15
    1dc8:	e8 2a       	or	r14, r24
    1dca:	f9 2a       	or	r15, r25
    1dcc:	e1 14       	cp	r14, r1
    1dce:	f1 04       	cpc	r15, r1
    1dd0:	09 f4       	brne	.+2      	; 0x1dd4 <mount_volume+0x29a>
    1dd2:	9e c1       	rjmp	.+828    	; 0x2110 <mount_volume+0x5d6>
    1dd4:	23 2d       	mov	r18, r3
    1dd6:	30 e0       	ldi	r19, 0x00	; 0
    1dd8:	40 e0       	ldi	r20, 0x00	; 0
    1dda:	50 e0       	ldi	r21, 0x00	; 0
    1ddc:	c3 01       	movw	r24, r6
    1dde:	b2 01       	movw	r22, r4
    1de0:	0e 94 71 2b 	call	0x56e2	; 0x56e2 <__mulsi3>
    1de4:	69 8b       	std	Y+17, r22	; 0x11
    1de6:	7a 8b       	std	Y+18, r23	; 0x12
    1de8:	8b 8b       	std	Y+19, r24	; 0x13
    1dea:	9c 8b       	std	Y+20, r25	; 0x14
    1dec:	27 01       	movw	r4, r14
    1dee:	66 24       	eor	r6, r6
    1df0:	77 24       	eor	r7, r7
    1df2:	e4 e0       	ldi	r30, 0x04	; 4
    1df4:	d6 94       	lsr	r13
    1df6:	c7 94       	ror	r12
    1df8:	ea 95       	dec	r30
    1dfa:	e1 f7       	brne	.-8      	; 0x1df4 <mount_volume+0x2ba>
    1dfc:	ee 24       	eor	r14, r14
    1dfe:	ff 24       	eor	r15, r15
    1e00:	c4 0c       	add	r12, r4
    1e02:	d5 1c       	adc	r13, r5
    1e04:	e6 1c       	adc	r14, r6
    1e06:	f7 1c       	adc	r15, r7
    1e08:	c6 0e       	add	r12, r22
    1e0a:	d7 1e       	adc	r13, r23
    1e0c:	e8 1e       	adc	r14, r24
    1e0e:	f9 1e       	adc	r15, r25
    1e10:	8c 14       	cp	r8, r12
    1e12:	9d 04       	cpc	r9, r13
    1e14:	ae 04       	cpc	r10, r14
    1e16:	bf 04       	cpc	r11, r15
    1e18:	08 f4       	brcc	.+2      	; 0x1e1c <mount_volume+0x2e2>
    1e1a:	7a c1       	rjmp	.+756    	; 0x2110 <mount_volume+0x5d6>
    1e1c:	8c 18       	sub	r8, r12
    1e1e:	9d 08       	sbc	r9, r13
    1e20:	ae 08       	sbc	r10, r14
    1e22:	bf 08       	sbc	r11, r15
    1e24:	d8 01       	movw	r26, r16
    1e26:	19 96       	adiw	r26, 0x09	; 9
    1e28:	2d 91       	ld	r18, X+
    1e2a:	3c 91       	ld	r19, X
    1e2c:	1a 97       	sbiw	r26, 0x0a	; 10
    1e2e:	40 e0       	ldi	r20, 0x00	; 0
    1e30:	50 e0       	ldi	r21, 0x00	; 0
    1e32:	c5 01       	movw	r24, r10
    1e34:	b4 01       	movw	r22, r8
    1e36:	0e 94 a4 2b 	call	0x5748	; 0x5748 <__udivmodsi4>
    1e3a:	c9 01       	movw	r24, r18
    1e3c:	da 01       	movw	r26, r20
    1e3e:	00 97       	sbiw	r24, 0x00	; 0
    1e40:	a1 05       	cpc	r26, r1
    1e42:	b1 05       	cpc	r27, r1
    1e44:	09 f4       	brne	.+2      	; 0x1e48 <mount_volume+0x30e>
    1e46:	64 c1       	rjmp	.+712    	; 0x2110 <mount_volume+0x5d6>
    1e48:	86 3f       	cpi	r24, 0xF6	; 246
    1e4a:	ef ef       	ldi	r30, 0xFF	; 255
    1e4c:	9e 07       	cpc	r25, r30
    1e4e:	ef ef       	ldi	r30, 0xFF	; 255
    1e50:	ae 07       	cpc	r26, r30
    1e52:	ef e0       	ldi	r30, 0x0F	; 15
    1e54:	be 07       	cpc	r27, r30
    1e56:	08 f0       	brcs	.+2      	; 0x1e5a <mount_volume+0x320>
    1e58:	5b c1       	rjmp	.+694    	; 0x2110 <mount_volume+0x5d6>
    1e5a:	86 3f       	cpi	r24, 0xF6	; 246
    1e5c:	ff ef       	ldi	r31, 0xFF	; 255
    1e5e:	9f 07       	cpc	r25, r31
    1e60:	f0 e0       	ldi	r31, 0x00	; 0
    1e62:	af 07       	cpc	r26, r31
    1e64:	f0 e0       	ldi	r31, 0x00	; 0
    1e66:	bf 07       	cpc	r27, r31
    1e68:	20 f0       	brcs	.+8      	; 0x1e72 <mount_volume+0x338>
    1e6a:	53 e0       	ldi	r21, 0x03	; 3
    1e6c:	25 2e       	mov	r2, r21
    1e6e:	31 2c       	mov	r3, r1
    1e70:	0f c0       	rjmp	.+30     	; 0x1e90 <mount_volume+0x356>
    1e72:	86 3f       	cpi	r24, 0xF6	; 246
    1e74:	2f e0       	ldi	r18, 0x0F	; 15
    1e76:	92 07       	cpc	r25, r18
    1e78:	20 e0       	ldi	r18, 0x00	; 0
    1e7a:	a2 07       	cpc	r26, r18
    1e7c:	20 e0       	ldi	r18, 0x00	; 0
    1e7e:	b2 07       	cpc	r27, r18
    1e80:	20 f4       	brcc	.+8      	; 0x1e8a <mount_volume+0x350>
    1e82:	41 e0       	ldi	r20, 0x01	; 1
    1e84:	24 2e       	mov	r2, r20
    1e86:	31 2c       	mov	r3, r1
    1e88:	03 c0       	rjmp	.+6      	; 0x1e90 <mount_volume+0x356>
    1e8a:	32 e0       	ldi	r19, 0x02	; 2
    1e8c:	23 2e       	mov	r2, r19
    1e8e:	31 2c       	mov	r3, r1
    1e90:	22 e0       	ldi	r18, 0x02	; 2
    1e92:	82 2e       	mov	r8, r18
    1e94:	91 2c       	mov	r9, r1
    1e96:	a1 2c       	mov	r10, r1
    1e98:	b1 2c       	mov	r11, r1
    1e9a:	88 0e       	add	r8, r24
    1e9c:	99 1e       	adc	r9, r25
    1e9e:	aa 1e       	adc	r10, r26
    1ea0:	bb 1e       	adc	r11, r27
    1ea2:	d8 01       	movw	r26, r16
    1ea4:	57 96       	adiw	r26, 0x17	; 23
    1ea6:	8d 92       	st	X+, r8
    1ea8:	9d 92       	st	X+, r9
    1eaa:	ad 92       	st	X+, r10
    1eac:	bc 92       	st	X, r11
    1eae:	5a 97       	sbiw	r26, 0x1a	; 26
    1eb0:	8d 89       	ldd	r24, Y+21	; 0x15
    1eb2:	9e 89       	ldd	r25, Y+22	; 0x16
    1eb4:	af 89       	ldd	r26, Y+23	; 0x17
    1eb6:	b8 8d       	ldd	r27, Y+24	; 0x18
    1eb8:	f8 01       	movw	r30, r16
    1eba:	87 8f       	std	Z+31, r24	; 0x1f
    1ebc:	90 a3       	std	Z+32, r25	; 0x20
    1ebe:	a1 a3       	std	Z+33, r26	; 0x21
    1ec0:	b2 a3       	std	Z+34, r27	; 0x22
    1ec2:	9c 01       	movw	r18, r24
    1ec4:	ad 01       	movw	r20, r26
    1ec6:	24 0d       	add	r18, r4
    1ec8:	35 1d       	adc	r19, r5
    1eca:	46 1d       	adc	r20, r6
    1ecc:	57 1d       	adc	r21, r7
    1ece:	d8 01       	movw	r26, r16
    1ed0:	93 96       	adiw	r26, 0x23	; 35
    1ed2:	2d 93       	st	X+, r18
    1ed4:	3d 93       	st	X+, r19
    1ed6:	4d 93       	st	X+, r20
    1ed8:	5c 93       	st	X, r21
    1eda:	96 97       	sbiw	r26, 0x26	; 38
    1edc:	8d 89       	ldd	r24, Y+21	; 0x15
    1ede:	9e 89       	ldd	r25, Y+22	; 0x16
    1ee0:	af 89       	ldd	r26, Y+23	; 0x17
    1ee2:	b8 8d       	ldd	r27, Y+24	; 0x18
    1ee4:	c8 0e       	add	r12, r24
    1ee6:	d9 1e       	adc	r13, r25
    1ee8:	ea 1e       	adc	r14, r26
    1eea:	fb 1e       	adc	r15, r27
    1eec:	d8 01       	movw	r26, r16
    1eee:	9b 96       	adiw	r26, 0x2b	; 43
    1ef0:	cd 92       	st	X+, r12
    1ef2:	dd 92       	st	X+, r13
    1ef4:	ed 92       	st	X+, r14
    1ef6:	fc 92       	st	X, r15
    1ef8:	9e 97       	sbiw	r26, 0x2e	; 46
    1efa:	b3 e0       	ldi	r27, 0x03	; 3
    1efc:	2b 16       	cp	r2, r27
    1efe:	31 04       	cpc	r3, r1
    1f00:	61 f5       	brne	.+88     	; 0x1f5a <mount_volume+0x420>
    1f02:	02 5a       	subi	r16, 0xA2	; 162
    1f04:	1f 4f       	sbci	r17, 0xFF	; 255
    1f06:	f8 01       	movw	r30, r16
    1f08:	90 81       	ld	r25, Z
    1f0a:	80 e0       	ldi	r24, 0x00	; 0
    1f0c:	d8 01       	movw	r26, r16
    1f0e:	2e 91       	ld	r18, -X
    1f10:	8d 01       	movw	r16, r26
    1f12:	0d 55       	subi	r16, 0x5D	; 93
    1f14:	10 40       	sbci	r17, 0x00	; 0
    1f16:	30 e0       	ldi	r19, 0x00	; 0
    1f18:	82 2b       	or	r24, r18
    1f1a:	93 2b       	or	r25, r19
    1f1c:	89 2b       	or	r24, r25
    1f1e:	09 f0       	breq	.+2      	; 0x1f22 <mount_volume+0x3e8>
    1f20:	f7 c0       	rjmp	.+494    	; 0x2110 <mount_volume+0x5d6>
    1f22:	f8 01       	movw	r30, r16
    1f24:	87 81       	ldd	r24, Z+7	; 0x07
    1f26:	90 85       	ldd	r25, Z+8	; 0x08
    1f28:	89 2b       	or	r24, r25
    1f2a:	09 f0       	breq	.+2      	; 0x1f2e <mount_volume+0x3f4>
    1f2c:	f1 c0       	rjmp	.+482    	; 0x2110 <mount_volume+0x5d6>
    1f2e:	c8 01       	movw	r24, r16
    1f30:	81 5a       	subi	r24, 0xA1	; 161
    1f32:	9f 4f       	sbci	r25, 0xFF	; 255
    1f34:	0e 94 82 0b 	call	0x1704	; 0x1704 <ld_dword>
    1f38:	d8 01       	movw	r26, r16
    1f3a:	97 96       	adiw	r26, 0x27	; 39
    1f3c:	6d 93       	st	X+, r22
    1f3e:	7d 93       	st	X+, r23
    1f40:	8d 93       	st	X+, r24
    1f42:	9c 93       	st	X, r25
    1f44:	9a 97       	sbiw	r26, 0x2a	; 42
    1f46:	a5 01       	movw	r20, r10
    1f48:	94 01       	movw	r18, r8
    1f4a:	f2 e0       	ldi	r31, 0x02	; 2
    1f4c:	22 0f       	add	r18, r18
    1f4e:	33 1f       	adc	r19, r19
    1f50:	44 1f       	adc	r20, r20
    1f52:	55 1f       	adc	r21, r21
    1f54:	fa 95       	dec	r31
    1f56:	d1 f7       	brne	.-12     	; 0x1f4c <mount_volume+0x412>
    1f58:	38 c0       	rjmp	.+112    	; 0x1fca <mount_volume+0x490>
    1f5a:	f8 01       	movw	r30, r16
    1f5c:	87 81       	ldd	r24, Z+7	; 0x07
    1f5e:	90 85       	ldd	r25, Z+8	; 0x08
    1f60:	89 2b       	or	r24, r25
    1f62:	09 f4       	brne	.+2      	; 0x1f66 <mount_volume+0x42c>
    1f64:	d5 c0       	rjmp	.+426    	; 0x2110 <mount_volume+0x5d6>
    1f66:	89 89       	ldd	r24, Y+17	; 0x11
    1f68:	9a 89       	ldd	r25, Y+18	; 0x12
    1f6a:	ab 89       	ldd	r26, Y+19	; 0x13
    1f6c:	bc 89       	ldd	r27, Y+20	; 0x14
    1f6e:	28 0f       	add	r18, r24
    1f70:	39 1f       	adc	r19, r25
    1f72:	4a 1f       	adc	r20, r26
    1f74:	5b 1f       	adc	r21, r27
    1f76:	d8 01       	movw	r26, r16
    1f78:	97 96       	adiw	r26, 0x27	; 39
    1f7a:	2d 93       	st	X+, r18
    1f7c:	3d 93       	st	X+, r19
    1f7e:	4d 93       	st	X+, r20
    1f80:	5c 93       	st	X, r21
    1f82:	9a 97       	sbiw	r26, 0x2a	; 42
    1f84:	d5 01       	movw	r26, r10
    1f86:	c4 01       	movw	r24, r8
    1f88:	88 0f       	add	r24, r24
    1f8a:	99 1f       	adc	r25, r25
    1f8c:	aa 1f       	adc	r26, r26
    1f8e:	bb 1f       	adc	r27, r27
    1f90:	e2 e0       	ldi	r30, 0x02	; 2
    1f92:	2e 16       	cp	r2, r30
    1f94:	31 04       	cpc	r3, r1
    1f96:	19 f4       	brne	.+6      	; 0x1f9e <mount_volume+0x464>
    1f98:	9c 01       	movw	r18, r24
    1f9a:	ad 01       	movw	r20, r26
    1f9c:	16 c0       	rjmp	.+44     	; 0x1fca <mount_volume+0x490>
    1f9e:	9c 01       	movw	r18, r24
    1fa0:	ad 01       	movw	r20, r26
    1fa2:	28 0d       	add	r18, r8
    1fa4:	39 1d       	adc	r19, r9
    1fa6:	4a 1d       	adc	r20, r10
    1fa8:	5b 1d       	adc	r21, r11
    1faa:	56 95       	lsr	r21
    1fac:	47 95       	ror	r20
    1fae:	37 95       	ror	r19
    1fb0:	27 95       	ror	r18
    1fb2:	81 e0       	ldi	r24, 0x01	; 1
    1fb4:	90 e0       	ldi	r25, 0x00	; 0
    1fb6:	a0 e0       	ldi	r26, 0x00	; 0
    1fb8:	b0 e0       	ldi	r27, 0x00	; 0
    1fba:	88 22       	and	r8, r24
    1fbc:	99 22       	and	r9, r25
    1fbe:	aa 22       	and	r10, r26
    1fc0:	bb 22       	and	r11, r27
    1fc2:	28 0d       	add	r18, r8
    1fc4:	39 1d       	adc	r19, r9
    1fc6:	4a 1d       	adc	r20, r10
    1fc8:	5b 1d       	adc	r21, r11
    1fca:	21 50       	subi	r18, 0x01	; 1
    1fcc:	3e 4f       	sbci	r19, 0xFE	; 254
    1fce:	4f 4f       	sbci	r20, 0xFF	; 255
    1fd0:	5f 4f       	sbci	r21, 0xFF	; 255
    1fd2:	69 e0       	ldi	r22, 0x09	; 9
    1fd4:	56 95       	lsr	r21
    1fd6:	47 95       	ror	r20
    1fd8:	37 95       	ror	r19
    1fda:	27 95       	ror	r18
    1fdc:	6a 95       	dec	r22
    1fde:	d1 f7       	brne	.-12     	; 0x1fd4 <mount_volume+0x49a>
    1fe0:	f8 01       	movw	r30, r16
    1fe2:	83 8d       	ldd	r24, Z+27	; 0x1b
    1fe4:	94 8d       	ldd	r25, Z+28	; 0x1c
    1fe6:	a5 8d       	ldd	r26, Z+29	; 0x1d
    1fe8:	b6 8d       	ldd	r27, Z+30	; 0x1e
    1fea:	82 17       	cp	r24, r18
    1fec:	93 07       	cpc	r25, r19
    1fee:	a4 07       	cpc	r26, r20
    1ff0:	b5 07       	cpc	r27, r21
    1ff2:	08 f4       	brcc	.+2      	; 0x1ff6 <mount_volume+0x4bc>
    1ff4:	8d c0       	rjmp	.+282    	; 0x2110 <mount_volume+0x5d6>
    1ff6:	8f ef       	ldi	r24, 0xFF	; 255
    1ff8:	9f ef       	ldi	r25, 0xFF	; 255
    1ffa:	af ef       	ldi	r26, 0xFF	; 255
    1ffc:	bf ef       	ldi	r27, 0xFF	; 255
    1ffe:	87 87       	std	Z+15, r24	; 0x0f
    2000:	90 8b       	std	Z+16, r25	; 0x10
    2002:	a1 8b       	std	Z+17, r26	; 0x11
    2004:	b2 8b       	std	Z+18, r27	; 0x12
    2006:	83 87       	std	Z+11, r24	; 0x0b
    2008:	94 87       	std	Z+12, r25	; 0x0c
    200a:	a5 87       	std	Z+13, r26	; 0x0d
    200c:	b6 87       	std	Z+14, r27	; 0x0e
    200e:	80 e8       	ldi	r24, 0x80	; 128
    2010:	84 83       	std	Z+4, r24	; 0x04
    2012:	f3 e0       	ldi	r31, 0x03	; 3
    2014:	2f 16       	cp	r2, r31
    2016:	31 04       	cpc	r3, r1
    2018:	09 f0       	breq	.+2      	; 0x201c <mount_volume+0x4e2>
    201a:	61 c0       	rjmp	.+194    	; 0x20de <mount_volume+0x5a4>
    201c:	0c 59       	subi	r16, 0x9C	; 156
    201e:	1f 4f       	sbci	r17, 0xFF	; 255
    2020:	d8 01       	movw	r26, r16
    2022:	9c 91       	ld	r25, X
    2024:	80 e0       	ldi	r24, 0x00	; 0
    2026:	f8 01       	movw	r30, r16
    2028:	22 91       	ld	r18, -Z
    202a:	8f 01       	movw	r16, r30
    202c:	03 56       	subi	r16, 0x63	; 99
    202e:	10 40       	sbci	r17, 0x00	; 0
    2030:	30 e0       	ldi	r19, 0x00	; 0
    2032:	82 2b       	or	r24, r18
    2034:	93 2b       	or	r25, r19
    2036:	01 97       	sbiw	r24, 0x01	; 1
    2038:	09 f0       	breq	.+2      	; 0x203c <mount_volume+0x502>
    203a:	51 c0       	rjmp	.+162    	; 0x20de <mount_volume+0x5a4>
    203c:	8d 89       	ldd	r24, Y+21	; 0x15
    203e:	9e 89       	ldd	r25, Y+22	; 0x16
    2040:	af 89       	ldd	r26, Y+23	; 0x17
    2042:	b8 8d       	ldd	r27, Y+24	; 0x18
    2044:	01 96       	adiw	r24, 0x01	; 1
    2046:	a1 1d       	adc	r26, r1
    2048:	b1 1d       	adc	r27, r1
    204a:	8d 8b       	std	Y+21, r24	; 0x15
    204c:	9e 8b       	std	Y+22, r25	; 0x16
    204e:	af 8b       	std	Y+23, r26	; 0x17
    2050:	b8 8f       	std	Y+24, r27	; 0x18
    2052:	c8 01       	movw	r24, r16
    2054:	4d 89       	ldd	r20, Y+21	; 0x15
    2056:	5e 89       	ldd	r21, Y+22	; 0x16
    2058:	6f 89       	ldd	r22, Y+23	; 0x17
    205a:	78 8d       	ldd	r23, Y+24	; 0x18
    205c:	0e 94 a1 0c 	call	0x1942	; 0x1942 <move_window>
    2060:	88 23       	and	r24, r24
    2062:	09 f0       	breq	.+2      	; 0x2066 <mount_volume+0x52c>
    2064:	3c c0       	rjmp	.+120    	; 0x20de <mount_volume+0x5a4>
    2066:	d8 01       	movw	r26, r16
    2068:	14 96       	adiw	r26, 0x04	; 4
    206a:	1c 92       	st	X, r1
    206c:	0e 5c       	subi	r16, 0xCE	; 206
    206e:	1d 4f       	sbci	r17, 0xFD	; 253
    2070:	f8 01       	movw	r30, r16
    2072:	90 81       	ld	r25, Z
    2074:	80 e0       	ldi	r24, 0x00	; 0
    2076:	d8 01       	movw	r26, r16
    2078:	2e 91       	ld	r18, -X
    207a:	8d 01       	movw	r16, r26
    207c:	01 53       	subi	r16, 0x31	; 49
    207e:	12 40       	sbci	r17, 0x02	; 2
    2080:	30 e0       	ldi	r19, 0x00	; 0
    2082:	82 2b       	or	r24, r18
    2084:	93 2b       	or	r25, r19
    2086:	85 55       	subi	r24, 0x55	; 85
    2088:	9a 4a       	sbci	r25, 0xAA	; 170
    208a:	49 f5       	brne	.+82     	; 0x20de <mount_volume+0x5a4>
    208c:	c8 01       	movw	r24, r16
    208e:	c3 96       	adiw	r24, 0x33	; 51
    2090:	0e 94 82 0b 	call	0x1704	; 0x1704 <ld_dword>
    2094:	62 55       	subi	r22, 0x52	; 82
    2096:	72 45       	sbci	r23, 0x52	; 82
    2098:	81 46       	sbci	r24, 0x61	; 97
    209a:	91 44       	sbci	r25, 0x41	; 65
    209c:	01 f5       	brne	.+64     	; 0x20de <mount_volume+0x5a4>
    209e:	c8 01       	movw	r24, r16
    20a0:	89 5e       	subi	r24, 0xE9	; 233
    20a2:	9d 4f       	sbci	r25, 0xFD	; 253
    20a4:	0e 94 82 0b 	call	0x1704	; 0x1704 <ld_dword>
    20a8:	62 57       	subi	r22, 0x72	; 114
    20aa:	72 47       	sbci	r23, 0x72	; 114
    20ac:	81 44       	sbci	r24, 0x41	; 65
    20ae:	91 46       	sbci	r25, 0x61	; 97
    20b0:	b1 f4       	brne	.+44     	; 0x20de <mount_volume+0x5a4>
    20b2:	c8 01       	movw	r24, r16
    20b4:	85 5e       	subi	r24, 0xE5	; 229
    20b6:	9d 4f       	sbci	r25, 0xFD	; 253
    20b8:	0e 94 82 0b 	call	0x1704	; 0x1704 <ld_dword>
    20bc:	d8 01       	movw	r26, r16
    20be:	1f 96       	adiw	r26, 0x0f	; 15
    20c0:	6d 93       	st	X+, r22
    20c2:	7d 93       	st	X+, r23
    20c4:	8d 93       	st	X+, r24
    20c6:	9c 93       	st	X, r25
    20c8:	52 97       	sbiw	r26, 0x12	; 18
    20ca:	c8 01       	movw	r24, r16
    20cc:	81 5e       	subi	r24, 0xE1	; 225
    20ce:	9d 4f       	sbci	r25, 0xFD	; 253
    20d0:	0e 94 82 0b 	call	0x1704	; 0x1704 <ld_dword>
    20d4:	f8 01       	movw	r30, r16
    20d6:	63 87       	std	Z+11, r22	; 0x0b
    20d8:	74 87       	std	Z+12, r23	; 0x0c
    20da:	85 87       	std	Z+13, r24	; 0x0d
    20dc:	96 87       	std	Z+14, r25	; 0x0e
    20de:	d8 01       	movw	r26, r16
    20e0:	2c 92       	st	X, r2
    20e2:	80 91 d7 01 	lds	r24, 0x01D7
    20e6:	90 91 d8 01 	lds	r25, 0x01D8
    20ea:	01 96       	adiw	r24, 0x01	; 1
    20ec:	90 93 d8 01 	sts	0x01D8, r25
    20f0:	80 93 d7 01 	sts	0x01D7, r24
    20f4:	16 96       	adiw	r26, 0x06	; 6
    20f6:	9c 93       	st	X, r25
    20f8:	8e 93       	st	-X, r24
    20fa:	15 97       	sbiw	r26, 0x05	; 5
    20fc:	f8 01       	movw	r30, r16
    20fe:	13 8a       	std	Z+19, r1	; 0x13
    2100:	14 8a       	std	Z+20, r1	; 0x14
    2102:	15 8a       	std	Z+21, r1	; 0x15
    2104:	16 8a       	std	Z+22, r1	; 0x16
    2106:	02 c0       	rjmp	.+4      	; 0x210c <mount_volume+0x5d2>
    2108:	8a e0       	ldi	r24, 0x0A	; 10
    210a:	03 c0       	rjmp	.+6      	; 0x2112 <mount_volume+0x5d8>
    210c:	80 e0       	ldi	r24, 0x00	; 0
    210e:	01 c0       	rjmp	.+2      	; 0x2112 <mount_volume+0x5d8>
    2110:	8d e0       	ldi	r24, 0x0D	; 13
    2112:	68 96       	adiw	r28, 0x18	; 24
    2114:	0f b6       	in	r0, 0x3f	; 63
    2116:	f8 94       	cli
    2118:	de bf       	out	0x3e, r29	; 62
    211a:	0f be       	out	0x3f, r0	; 63
    211c:	cd bf       	out	0x3d, r28	; 61
    211e:	cf 91       	pop	r28
    2120:	df 91       	pop	r29
    2122:	1f 91       	pop	r17
    2124:	0f 91       	pop	r16
    2126:	ff 90       	pop	r15
    2128:	ef 90       	pop	r14
    212a:	df 90       	pop	r13
    212c:	cf 90       	pop	r12
    212e:	bf 90       	pop	r11
    2130:	af 90       	pop	r10
    2132:	9f 90       	pop	r9
    2134:	8f 90       	pop	r8
    2136:	7f 90       	pop	r7
    2138:	6f 90       	pop	r6
    213a:	5f 90       	pop	r5
    213c:	4f 90       	pop	r4
    213e:	3f 90       	pop	r3
    2140:	2f 90       	pop	r2
    2142:	08 95       	ret

00002144 <f_mount>:
    2144:	1f 93       	push	r17
    2146:	df 93       	push	r29
    2148:	cf 93       	push	r28
    214a:	00 d0       	rcall	.+0      	; 0x214c <f_mount+0x8>
    214c:	00 d0       	rcall	.+0      	; 0x214e <f_mount+0xa>
    214e:	00 d0       	rcall	.+0      	; 0x2150 <f_mount+0xc>
    2150:	cd b7       	in	r28, 0x3d	; 61
    2152:	de b7       	in	r29, 0x3e	; 62
    2154:	9c 83       	std	Y+4, r25	; 0x04
    2156:	8b 83       	std	Y+3, r24	; 0x03
    2158:	7e 83       	std	Y+6, r23	; 0x06
    215a:	6d 83       	std	Y+5, r22	; 0x05
    215c:	14 2f       	mov	r17, r20
    215e:	7a 83       	std	Y+2, r23	; 0x02
    2160:	69 83       	std	Y+1, r22	; 0x01
    2162:	ce 01       	movw	r24, r28
    2164:	01 96       	adiw	r24, 0x01	; 1
    2166:	0e 94 f4 0b 	call	0x17e8	; 0x17e8 <get_ldnumber>
    216a:	dc 01       	movw	r26, r24
    216c:	97 ff       	sbrs	r25, 7
    216e:	02 c0       	rjmp	.+4      	; 0x2174 <f_mount+0x30>
    2170:	8b e0       	ldi	r24, 0x0B	; 11
    2172:	22 c0       	rjmp	.+68     	; 0x21b8 <f_mount+0x74>
    2174:	fc 01       	movw	r30, r24
    2176:	ee 0f       	add	r30, r30
    2178:	ff 1f       	adc	r31, r31
    217a:	ed 52       	subi	r30, 0x2D	; 45
    217c:	fe 4f       	sbci	r31, 0xFE	; 254
    217e:	01 90       	ld	r0, Z+
    2180:	f0 81       	ld	r31, Z
    2182:	e0 2d       	mov	r30, r0
    2184:	30 97       	sbiw	r30, 0x00	; 0
    2186:	09 f0       	breq	.+2      	; 0x218a <f_mount+0x46>
    2188:	10 82       	st	Z, r1
    218a:	eb 81       	ldd	r30, Y+3	; 0x03
    218c:	fc 81       	ldd	r31, Y+4	; 0x04
    218e:	30 97       	sbiw	r30, 0x00	; 0
    2190:	09 f0       	breq	.+2      	; 0x2194 <f_mount+0x50>
    2192:	10 82       	st	Z, r1
    2194:	aa 0f       	add	r26, r26
    2196:	bb 1f       	adc	r27, r27
    2198:	ad 52       	subi	r26, 0x2D	; 45
    219a:	be 4f       	sbci	r27, 0xFE	; 254
    219c:	ed 93       	st	X+, r30
    219e:	fc 93       	st	X, r31
    21a0:	11 23       	and	r17, r17
    21a2:	11 f4       	brne	.+4      	; 0x21a8 <f_mount+0x64>
    21a4:	80 e0       	ldi	r24, 0x00	; 0
    21a6:	08 c0       	rjmp	.+16     	; 0x21b8 <f_mount+0x74>
    21a8:	ce 01       	movw	r24, r28
    21aa:	05 96       	adiw	r24, 0x05	; 5
    21ac:	be 01       	movw	r22, r28
    21ae:	6d 5f       	subi	r22, 0xFD	; 253
    21b0:	7f 4f       	sbci	r23, 0xFF	; 255
    21b2:	40 e0       	ldi	r20, 0x00	; 0
    21b4:	0e 94 9d 0d 	call	0x1b3a	; 0x1b3a <mount_volume>
    21b8:	26 96       	adiw	r28, 0x06	; 6
    21ba:	0f b6       	in	r0, 0x3f	; 63
    21bc:	f8 94       	cli
    21be:	de bf       	out	0x3e, r29	; 62
    21c0:	0f be       	out	0x3f, r0	; 63
    21c2:	cd bf       	out	0x3d, r28	; 61
    21c4:	cf 91       	pop	r28
    21c6:	df 91       	pop	r29
    21c8:	1f 91       	pop	r17
    21ca:	08 95       	ret

000021cc <get_fat>:
    21cc:	bf 92       	push	r11
    21ce:	cf 92       	push	r12
    21d0:	df 92       	push	r13
    21d2:	ef 92       	push	r14
    21d4:	ff 92       	push	r15
    21d6:	0f 93       	push	r16
    21d8:	1f 93       	push	r17
    21da:	cf 93       	push	r28
    21dc:	df 93       	push	r29
    21de:	fc 01       	movw	r30, r24
    21e0:	7a 01       	movw	r14, r20
    21e2:	8b 01       	movw	r16, r22
    21e4:	c0 81       	ld	r28, Z
    21e6:	d1 81       	ldd	r29, Z+1	; 0x01
    21e8:	42 30       	cpi	r20, 0x02	; 2
    21ea:	51 05       	cpc	r21, r1
    21ec:	61 05       	cpc	r22, r1
    21ee:	71 05       	cpc	r23, r1
    21f0:	08 f4       	brcc	.+2      	; 0x21f4 <get_fat+0x28>
    21f2:	b3 c0       	rjmp	.+358    	; 0x235a <get_fat+0x18e>
    21f4:	8f 89       	ldd	r24, Y+23	; 0x17
    21f6:	98 8d       	ldd	r25, Y+24	; 0x18
    21f8:	a9 8d       	ldd	r26, Y+25	; 0x19
    21fa:	ba 8d       	ldd	r27, Y+26	; 0x1a
    21fc:	48 17       	cp	r20, r24
    21fe:	59 07       	cpc	r21, r25
    2200:	6a 07       	cpc	r22, r26
    2202:	7b 07       	cpc	r23, r27
    2204:	08 f0       	brcs	.+2      	; 0x2208 <get_fat+0x3c>
    2206:	a9 c0       	rjmp	.+338    	; 0x235a <get_fat+0x18e>
    2208:	88 81       	ld	r24, Y
    220a:	82 30       	cpi	r24, 0x02	; 2
    220c:	09 f4       	brne	.+2      	; 0x2210 <get_fat+0x44>
    220e:	5a c0       	rjmp	.+180    	; 0x22c4 <get_fat+0xf8>
    2210:	83 30       	cpi	r24, 0x03	; 3
    2212:	09 f4       	brne	.+2      	; 0x2216 <get_fat+0x4a>
    2214:	7c c0       	rjmp	.+248    	; 0x230e <get_fat+0x142>
    2216:	81 30       	cpi	r24, 0x01	; 1
    2218:	09 f0       	breq	.+2      	; 0x221c <get_fat+0x50>
    221a:	9f c0       	rjmp	.+318    	; 0x235a <get_fat+0x18e>
    221c:	6a 01       	movw	r12, r20
    221e:	d6 94       	lsr	r13
    2220:	c7 94       	ror	r12
    2222:	c4 0e       	add	r12, r20
    2224:	d5 1e       	adc	r13, r21
    2226:	a6 01       	movw	r20, r12
    2228:	45 2f       	mov	r20, r21
    222a:	55 27       	eor	r21, r21
    222c:	46 95       	lsr	r20
    222e:	60 e0       	ldi	r22, 0x00	; 0
    2230:	70 e0       	ldi	r23, 0x00	; 0
    2232:	8b a1       	ldd	r24, Y+35	; 0x23
    2234:	9c a1       	ldd	r25, Y+36	; 0x24
    2236:	ad a1       	ldd	r26, Y+37	; 0x25
    2238:	be a1       	ldd	r27, Y+38	; 0x26
    223a:	48 0f       	add	r20, r24
    223c:	59 1f       	adc	r21, r25
    223e:	6a 1f       	adc	r22, r26
    2240:	7b 1f       	adc	r23, r27
    2242:	ce 01       	movw	r24, r28
    2244:	0e 94 a1 0c 	call	0x1942	; 0x1942 <move_window>
    2248:	88 23       	and	r24, r24
    224a:	09 f0       	breq	.+2      	; 0x224e <get_fat+0x82>
    224c:	8b c0       	rjmp	.+278    	; 0x2364 <get_fat+0x198>
    224e:	f6 01       	movw	r30, r12
    2250:	f1 70       	andi	r31, 0x01	; 1
    2252:	ec 0f       	add	r30, r28
    2254:	fd 1f       	adc	r31, r29
    2256:	b3 a8       	ldd	r11, Z+51	; 0x33
    2258:	08 94       	sec
    225a:	c1 1c       	adc	r12, r1
    225c:	d1 1c       	adc	r13, r1
    225e:	a6 01       	movw	r20, r12
    2260:	45 2f       	mov	r20, r21
    2262:	55 27       	eor	r21, r21
    2264:	46 95       	lsr	r20
    2266:	60 e0       	ldi	r22, 0x00	; 0
    2268:	70 e0       	ldi	r23, 0x00	; 0
    226a:	8b a1       	ldd	r24, Y+35	; 0x23
    226c:	9c a1       	ldd	r25, Y+36	; 0x24
    226e:	ad a1       	ldd	r26, Y+37	; 0x25
    2270:	be a1       	ldd	r27, Y+38	; 0x26
    2272:	48 0f       	add	r20, r24
    2274:	59 1f       	adc	r21, r25
    2276:	6a 1f       	adc	r22, r26
    2278:	7b 1f       	adc	r23, r27
    227a:	ce 01       	movw	r24, r28
    227c:	0e 94 a1 0c 	call	0x1942	; 0x1942 <move_window>
    2280:	88 23       	and	r24, r24
    2282:	09 f0       	breq	.+2      	; 0x2286 <get_fat+0xba>
    2284:	6f c0       	rjmp	.+222    	; 0x2364 <get_fat+0x198>
    2286:	6b 2d       	mov	r22, r11
    2288:	70 e0       	ldi	r23, 0x00	; 0
    228a:	8f ef       	ldi	r24, 0xFF	; 255
    228c:	91 e0       	ldi	r25, 0x01	; 1
    228e:	c8 22       	and	r12, r24
    2290:	d9 22       	and	r13, r25
    2292:	cc 0d       	add	r28, r12
    2294:	dd 1d       	adc	r29, r13
    2296:	9b a9       	ldd	r25, Y+51	; 0x33
    2298:	80 e0       	ldi	r24, 0x00	; 0
    229a:	68 2b       	or	r22, r24
    229c:	79 2b       	or	r23, r25
    229e:	c7 01       	movw	r24, r14
    22a0:	81 70       	andi	r24, 0x01	; 1
    22a2:	90 70       	andi	r25, 0x00	; 0
    22a4:	89 2b       	or	r24, r25
    22a6:	39 f0       	breq	.+14     	; 0x22b6 <get_fat+0xea>
    22a8:	e4 e0       	ldi	r30, 0x04	; 4
    22aa:	76 95       	lsr	r23
    22ac:	67 95       	ror	r22
    22ae:	ea 95       	dec	r30
    22b0:	e1 f7       	brne	.-8      	; 0x22aa <get_fat+0xde>
    22b2:	9b 01       	movw	r18, r22
    22b4:	29 c0       	rjmp	.+82     	; 0x2308 <get_fat+0x13c>
    22b6:	9b 01       	movw	r18, r22
    22b8:	40 e0       	ldi	r20, 0x00	; 0
    22ba:	50 e0       	ldi	r21, 0x00	; 0
    22bc:	3f 70       	andi	r19, 0x0F	; 15
    22be:	40 70       	andi	r20, 0x00	; 0
    22c0:	50 70       	andi	r21, 0x00	; 0
    22c2:	54 c0       	rjmp	.+168    	; 0x236c <get_fat+0x1a0>
    22c4:	77 27       	eor	r23, r23
    22c6:	61 2f       	mov	r22, r17
    22c8:	50 2f       	mov	r21, r16
    22ca:	4f 2d       	mov	r20, r15
    22cc:	8b a1       	ldd	r24, Y+35	; 0x23
    22ce:	9c a1       	ldd	r25, Y+36	; 0x24
    22d0:	ad a1       	ldd	r26, Y+37	; 0x25
    22d2:	be a1       	ldd	r27, Y+38	; 0x26
    22d4:	48 0f       	add	r20, r24
    22d6:	59 1f       	adc	r21, r25
    22d8:	6a 1f       	adc	r22, r26
    22da:	7b 1f       	adc	r23, r27
    22dc:	ce 01       	movw	r24, r28
    22de:	0e 94 a1 0c 	call	0x1942	; 0x1942 <move_window>
    22e2:	88 23       	and	r24, r24
    22e4:	09 f0       	breq	.+2      	; 0x22e8 <get_fat+0x11c>
    22e6:	3e c0       	rjmp	.+124    	; 0x2364 <get_fat+0x198>
    22e8:	ee 0c       	add	r14, r14
    22ea:	ff 1c       	adc	r15, r15
    22ec:	00 1f       	adc	r16, r16
    22ee:	11 1f       	adc	r17, r17
    22f0:	c7 01       	movw	r24, r14
    22f2:	91 70       	andi	r25, 0x01	; 1
    22f4:	fe 01       	movw	r30, r28
    22f6:	e8 0f       	add	r30, r24
    22f8:	f9 1f       	adc	r31, r25
    22fa:	34 a9       	ldd	r19, Z+52	; 0x34
    22fc:	20 e0       	ldi	r18, 0x00	; 0
    22fe:	83 a9       	ldd	r24, Z+51	; 0x33
    2300:	90 e0       	ldi	r25, 0x00	; 0
    2302:	82 2b       	or	r24, r18
    2304:	93 2b       	or	r25, r19
    2306:	9c 01       	movw	r18, r24
    2308:	40 e0       	ldi	r20, 0x00	; 0
    230a:	50 e0       	ldi	r21, 0x00	; 0
    230c:	2f c0       	rjmp	.+94     	; 0x236c <get_fat+0x1a0>
    230e:	37 e0       	ldi	r19, 0x07	; 7
    2310:	76 95       	lsr	r23
    2312:	67 95       	ror	r22
    2314:	57 95       	ror	r21
    2316:	47 95       	ror	r20
    2318:	3a 95       	dec	r19
    231a:	d1 f7       	brne	.-12     	; 0x2310 <get_fat+0x144>
    231c:	8b a1       	ldd	r24, Y+35	; 0x23
    231e:	9c a1       	ldd	r25, Y+36	; 0x24
    2320:	ad a1       	ldd	r26, Y+37	; 0x25
    2322:	be a1       	ldd	r27, Y+38	; 0x26
    2324:	48 0f       	add	r20, r24
    2326:	59 1f       	adc	r21, r25
    2328:	6a 1f       	adc	r22, r26
    232a:	7b 1f       	adc	r23, r27
    232c:	ce 01       	movw	r24, r28
    232e:	0e 94 a1 0c 	call	0x1942	; 0x1942 <move_window>
    2332:	88 23       	and	r24, r24
    2334:	b9 f4       	brne	.+46     	; 0x2364 <get_fat+0x198>
    2336:	22 e0       	ldi	r18, 0x02	; 2
    2338:	ee 0c       	add	r14, r14
    233a:	ff 1c       	adc	r15, r15
    233c:	00 1f       	adc	r16, r16
    233e:	11 1f       	adc	r17, r17
    2340:	2a 95       	dec	r18
    2342:	d1 f7       	brne	.-12     	; 0x2338 <get_fat+0x16c>
    2344:	c7 01       	movw	r24, r14
    2346:	91 70       	andi	r25, 0x01	; 1
    2348:	c3 96       	adiw	r24, 0x33	; 51
    234a:	8c 0f       	add	r24, r28
    234c:	9d 1f       	adc	r25, r29
    234e:	0e 94 82 0b 	call	0x1704	; 0x1704 <ld_dword>
    2352:	9b 01       	movw	r18, r22
    2354:	ac 01       	movw	r20, r24
    2356:	5f 70       	andi	r21, 0x0F	; 15
    2358:	09 c0       	rjmp	.+18     	; 0x236c <get_fat+0x1a0>
    235a:	21 e0       	ldi	r18, 0x01	; 1
    235c:	30 e0       	ldi	r19, 0x00	; 0
    235e:	40 e0       	ldi	r20, 0x00	; 0
    2360:	50 e0       	ldi	r21, 0x00	; 0
    2362:	04 c0       	rjmp	.+8      	; 0x236c <get_fat+0x1a0>
    2364:	2f ef       	ldi	r18, 0xFF	; 255
    2366:	3f ef       	ldi	r19, 0xFF	; 255
    2368:	4f ef       	ldi	r20, 0xFF	; 255
    236a:	5f ef       	ldi	r21, 0xFF	; 255
    236c:	b9 01       	movw	r22, r18
    236e:	ca 01       	movw	r24, r20
    2370:	df 91       	pop	r29
    2372:	cf 91       	pop	r28
    2374:	1f 91       	pop	r17
    2376:	0f 91       	pop	r16
    2378:	ff 90       	pop	r15
    237a:	ef 90       	pop	r14
    237c:	df 90       	pop	r13
    237e:	cf 90       	pop	r12
    2380:	bf 90       	pop	r11
    2382:	08 95       	ret

00002384 <dir_sdi>:
    2384:	2f 92       	push	r2
    2386:	3f 92       	push	r3
    2388:	4f 92       	push	r4
    238a:	5f 92       	push	r5
    238c:	6f 92       	push	r6
    238e:	7f 92       	push	r7
    2390:	8f 92       	push	r8
    2392:	9f 92       	push	r9
    2394:	af 92       	push	r10
    2396:	bf 92       	push	r11
    2398:	cf 92       	push	r12
    239a:	df 92       	push	r13
    239c:	ef 92       	push	r14
    239e:	ff 92       	push	r15
    23a0:	0f 93       	push	r16
    23a2:	1f 93       	push	r17
    23a4:	cf 93       	push	r28
    23a6:	df 93       	push	r29
    23a8:	2c 01       	movw	r4, r24
    23aa:	3a 01       	movw	r6, r20
    23ac:	4b 01       	movw	r8, r22
    23ae:	fc 01       	movw	r30, r24
    23b0:	c0 81       	ld	r28, Z
    23b2:	d1 81       	ldd	r29, Z+1	; 0x01
    23b4:	40 30       	cpi	r20, 0x00	; 0
    23b6:	f0 e0       	ldi	r31, 0x00	; 0
    23b8:	5f 07       	cpc	r21, r31
    23ba:	f0 e2       	ldi	r31, 0x20	; 32
    23bc:	6f 07       	cpc	r22, r31
    23be:	f0 e0       	ldi	r31, 0x00	; 0
    23c0:	7f 07       	cpc	r23, r31
    23c2:	08 f0       	brcs	.+2      	; 0x23c6 <dir_sdi+0x42>
    23c4:	d8 c0       	rjmp	.+432    	; 0x2576 <dir_sdi+0x1f2>
    23c6:	db 01       	movw	r26, r22
    23c8:	ca 01       	movw	r24, r20
    23ca:	8f 71       	andi	r24, 0x1F	; 31
    23cc:	90 70       	andi	r25, 0x00	; 0
    23ce:	a0 70       	andi	r26, 0x00	; 0
    23d0:	b0 70       	andi	r27, 0x00	; 0
    23d2:	00 97       	sbiw	r24, 0x00	; 0
    23d4:	a1 05       	cpc	r26, r1
    23d6:	b1 05       	cpc	r27, r1
    23d8:	09 f0       	breq	.+2      	; 0x23dc <dir_sdi+0x58>
    23da:	cd c0       	rjmp	.+410    	; 0x2576 <dir_sdi+0x1f2>
    23dc:	f2 01       	movw	r30, r4
    23de:	46 87       	std	Z+14, r20	; 0x0e
    23e0:	57 87       	std	Z+15, r21	; 0x0f
    23e2:	60 8b       	std	Z+16, r22	; 0x10
    23e4:	71 8b       	std	Z+17, r23	; 0x11
    23e6:	e6 80       	ldd	r14, Z+6	; 0x06
    23e8:	f7 80       	ldd	r15, Z+7	; 0x07
    23ea:	00 85       	ldd	r16, Z+8	; 0x08
    23ec:	11 85       	ldd	r17, Z+9	; 0x09
    23ee:	e1 14       	cp	r14, r1
    23f0:	f1 04       	cpc	r15, r1
    23f2:	01 05       	cpc	r16, r1
    23f4:	11 05       	cpc	r17, r1
    23f6:	51 f5       	brne	.+84     	; 0x244c <dir_sdi+0xc8>
    23f8:	88 81       	ld	r24, Y
    23fa:	83 30       	cpi	r24, 0x03	; 3
    23fc:	40 f0       	brcs	.+16     	; 0x240e <dir_sdi+0x8a>
    23fe:	8f a1       	ldd	r24, Y+39	; 0x27
    2400:	98 a5       	ldd	r25, Y+40	; 0x28
    2402:	a9 a5       	ldd	r26, Y+41	; 0x29
    2404:	ba a5       	ldd	r27, Y+42	; 0x2a
    2406:	00 97       	sbiw	r24, 0x00	; 0
    2408:	a1 05       	cpc	r26, r1
    240a:	b1 05       	cpc	r27, r1
    240c:	e9 f4       	brne	.+58     	; 0x2448 <dir_sdi+0xc4>
    240e:	a4 01       	movw	r20, r8
    2410:	93 01       	movw	r18, r6
    2412:	65 e0       	ldi	r22, 0x05	; 5
    2414:	56 95       	lsr	r21
    2416:	47 95       	ror	r20
    2418:	37 95       	ror	r19
    241a:	27 95       	ror	r18
    241c:	6a 95       	dec	r22
    241e:	d1 f7       	brne	.-12     	; 0x2414 <dir_sdi+0x90>
    2420:	8f 81       	ldd	r24, Y+7	; 0x07
    2422:	98 85       	ldd	r25, Y+8	; 0x08
    2424:	a0 e0       	ldi	r26, 0x00	; 0
    2426:	b0 e0       	ldi	r27, 0x00	; 0
    2428:	28 17       	cp	r18, r24
    242a:	39 07       	cpc	r19, r25
    242c:	4a 07       	cpc	r20, r26
    242e:	5b 07       	cpc	r21, r27
    2430:	08 f0       	brcs	.+2      	; 0x2434 <dir_sdi+0xb0>
    2432:	a1 c0       	rjmp	.+322    	; 0x2576 <dir_sdi+0x1f2>
    2434:	8f a1       	ldd	r24, Y+39	; 0x27
    2436:	98 a5       	ldd	r25, Y+40	; 0x28
    2438:	a9 a5       	ldd	r26, Y+41	; 0x29
    243a:	ba a5       	ldd	r27, Y+42	; 0x2a
    243c:	f2 01       	movw	r30, r4
    243e:	86 8b       	std	Z+22, r24	; 0x16
    2440:	97 8b       	std	Z+23, r25	; 0x17
    2442:	a0 8f       	std	Z+24, r26	; 0x18
    2444:	b1 8f       	std	Z+25, r27	; 0x19
    2446:	6f c0       	rjmp	.+222    	; 0x2526 <dir_sdi+0x1a2>
    2448:	7c 01       	movw	r14, r24
    244a:	8d 01       	movw	r16, r26
    244c:	89 85       	ldd	r24, Y+9	; 0x09
    244e:	9a 85       	ldd	r25, Y+10	; 0x0a
    2450:	5c 01       	movw	r10, r24
    2452:	cc 24       	eor	r12, r12
    2454:	dd 24       	eor	r13, r13
    2456:	99 e0       	ldi	r25, 0x09	; 9
    2458:	aa 0c       	add	r10, r10
    245a:	bb 1c       	adc	r11, r11
    245c:	cc 1c       	adc	r12, r12
    245e:	dd 1c       	adc	r13, r13
    2460:	9a 95       	dec	r25
    2462:	d1 f7       	brne	.-12     	; 0x2458 <dir_sdi+0xd4>
    2464:	12 01       	movw	r2, r4
    2466:	26 c0       	rjmp	.+76     	; 0x24b4 <dir_sdi+0x130>
    2468:	c1 01       	movw	r24, r2
    246a:	b8 01       	movw	r22, r16
    246c:	a7 01       	movw	r20, r14
    246e:	0e 94 e6 10 	call	0x21cc	; 0x21cc <get_fat>
    2472:	7b 01       	movw	r14, r22
    2474:	8c 01       	movw	r16, r24
    2476:	6f 3f       	cpi	r22, 0xFF	; 255
    2478:	ff ef       	ldi	r31, 0xFF	; 255
    247a:	7f 07       	cpc	r23, r31
    247c:	ff ef       	ldi	r31, 0xFF	; 255
    247e:	8f 07       	cpc	r24, r31
    2480:	ff ef       	ldi	r31, 0xFF	; 255
    2482:	9f 07       	cpc	r25, r31
    2484:	11 f4       	brne	.+4      	; 0x248a <dir_sdi+0x106>
    2486:	81 e0       	ldi	r24, 0x01	; 1
    2488:	77 c0       	rjmp	.+238    	; 0x2578 <dir_sdi+0x1f4>
    248a:	82 e0       	ldi	r24, 0x02	; 2
    248c:	e8 16       	cp	r14, r24
    248e:	f1 04       	cpc	r15, r1
    2490:	01 05       	cpc	r16, r1
    2492:	11 05       	cpc	r17, r1
    2494:	08 f4       	brcc	.+2      	; 0x2498 <dir_sdi+0x114>
    2496:	6f c0       	rjmp	.+222    	; 0x2576 <dir_sdi+0x1f2>
    2498:	8f 89       	ldd	r24, Y+23	; 0x17
    249a:	98 8d       	ldd	r25, Y+24	; 0x18
    249c:	a9 8d       	ldd	r26, Y+25	; 0x19
    249e:	ba 8d       	ldd	r27, Y+26	; 0x1a
    24a0:	e8 16       	cp	r14, r24
    24a2:	f9 06       	cpc	r15, r25
    24a4:	0a 07       	cpc	r16, r26
    24a6:	1b 07       	cpc	r17, r27
    24a8:	08 f0       	brcs	.+2      	; 0x24ac <dir_sdi+0x128>
    24aa:	65 c0       	rjmp	.+202    	; 0x2576 <dir_sdi+0x1f2>
    24ac:	6a 18       	sub	r6, r10
    24ae:	7b 08       	sbc	r7, r11
    24b0:	8c 08       	sbc	r8, r12
    24b2:	9d 08       	sbc	r9, r13
    24b4:	6a 14       	cp	r6, r10
    24b6:	7b 04       	cpc	r7, r11
    24b8:	8c 04       	cpc	r8, r12
    24ba:	9d 04       	cpc	r9, r13
    24bc:	a8 f6       	brcc	.-86     	; 0x2468 <dir_sdi+0xe4>
    24be:	8e ef       	ldi	r24, 0xFE	; 254
    24c0:	a8 2e       	mov	r10, r24
    24c2:	8f ef       	ldi	r24, 0xFF	; 255
    24c4:	b8 2e       	mov	r11, r24
    24c6:	8f ef       	ldi	r24, 0xFF	; 255
    24c8:	c8 2e       	mov	r12, r24
    24ca:	8f ef       	ldi	r24, 0xFF	; 255
    24cc:	d8 2e       	mov	r13, r24
    24ce:	ae 0c       	add	r10, r14
    24d0:	bf 1c       	adc	r11, r15
    24d2:	c0 1e       	adc	r12, r16
    24d4:	d1 1e       	adc	r13, r17
    24d6:	8f 89       	ldd	r24, Y+23	; 0x17
    24d8:	98 8d       	ldd	r25, Y+24	; 0x18
    24da:	a9 8d       	ldd	r26, Y+25	; 0x19
    24dc:	ba 8d       	ldd	r27, Y+26	; 0x1a
    24de:	02 97       	sbiw	r24, 0x02	; 2
    24e0:	a1 09       	sbc	r26, r1
    24e2:	b1 09       	sbc	r27, r1
    24e4:	a8 16       	cp	r10, r24
    24e6:	b9 06       	cpc	r11, r25
    24e8:	ca 06       	cpc	r12, r26
    24ea:	db 06       	cpc	r13, r27
    24ec:	28 f0       	brcs	.+10     	; 0x24f8 <dir_sdi+0x174>
    24ee:	20 e0       	ldi	r18, 0x00	; 0
    24f0:	30 e0       	ldi	r19, 0x00	; 0
    24f2:	40 e0       	ldi	r20, 0x00	; 0
    24f4:	50 e0       	ldi	r21, 0x00	; 0
    24f6:	12 c0       	rjmp	.+36     	; 0x251c <dir_sdi+0x198>
    24f8:	29 85       	ldd	r18, Y+9	; 0x09
    24fa:	3a 85       	ldd	r19, Y+10	; 0x0a
    24fc:	40 e0       	ldi	r20, 0x00	; 0
    24fe:	50 e0       	ldi	r21, 0x00	; 0
    2500:	c6 01       	movw	r24, r12
    2502:	b5 01       	movw	r22, r10
    2504:	0e 94 71 2b 	call	0x56e2	; 0x56e2 <__mulsi3>
    2508:	9b 01       	movw	r18, r22
    250a:	ac 01       	movw	r20, r24
    250c:	8b a5       	ldd	r24, Y+43	; 0x2b
    250e:	9c a5       	ldd	r25, Y+44	; 0x2c
    2510:	ad a5       	ldd	r26, Y+45	; 0x2d
    2512:	be a5       	ldd	r27, Y+46	; 0x2e
    2514:	28 0f       	add	r18, r24
    2516:	39 1f       	adc	r19, r25
    2518:	4a 1f       	adc	r20, r26
    251a:	5b 1f       	adc	r21, r27
    251c:	f2 01       	movw	r30, r4
    251e:	26 8b       	std	Z+22, r18	; 0x16
    2520:	37 8b       	std	Z+23, r19	; 0x17
    2522:	40 8f       	std	Z+24, r20	; 0x18
    2524:	51 8f       	std	Z+25, r21	; 0x19
    2526:	f2 01       	movw	r30, r4
    2528:	e2 8a       	std	Z+18, r14	; 0x12
    252a:	f3 8a       	std	Z+19, r15	; 0x13
    252c:	04 8b       	std	Z+20, r16	; 0x14
    252e:	15 8b       	std	Z+21, r17	; 0x15
    2530:	26 89       	ldd	r18, Z+22	; 0x16
    2532:	37 89       	ldd	r19, Z+23	; 0x17
    2534:	40 8d       	ldd	r20, Z+24	; 0x18
    2536:	51 8d       	ldd	r21, Z+25	; 0x19
    2538:	21 15       	cp	r18, r1
    253a:	31 05       	cpc	r19, r1
    253c:	41 05       	cpc	r20, r1
    253e:	51 05       	cpc	r21, r1
    2540:	d1 f0       	breq	.+52     	; 0x2576 <dir_sdi+0x1f2>
    2542:	d4 01       	movw	r26, r8
    2544:	c3 01       	movw	r24, r6
    2546:	19 e0       	ldi	r17, 0x09	; 9
    2548:	b6 95       	lsr	r27
    254a:	a7 95       	ror	r26
    254c:	97 95       	ror	r25
    254e:	87 95       	ror	r24
    2550:	1a 95       	dec	r17
    2552:	d1 f7       	brne	.-12     	; 0x2548 <dir_sdi+0x1c4>
    2554:	82 0f       	add	r24, r18
    2556:	93 1f       	adc	r25, r19
    2558:	a4 1f       	adc	r26, r20
    255a:	b5 1f       	adc	r27, r21
    255c:	86 8b       	std	Z+22, r24	; 0x16
    255e:	97 8b       	std	Z+23, r25	; 0x17
    2560:	a0 8f       	std	Z+24, r26	; 0x18
    2562:	b1 8f       	std	Z+25, r27	; 0x19
    2564:	c3 01       	movw	r24, r6
    2566:	91 70       	andi	r25, 0x01	; 1
    2568:	c3 96       	adiw	r24, 0x33	; 51
    256a:	c8 0f       	add	r28, r24
    256c:	d9 1f       	adc	r29, r25
    256e:	d3 8f       	std	Z+27, r29	; 0x1b
    2570:	c2 8f       	std	Z+26, r28	; 0x1a
    2572:	80 e0       	ldi	r24, 0x00	; 0
    2574:	01 c0       	rjmp	.+2      	; 0x2578 <dir_sdi+0x1f4>
    2576:	82 e0       	ldi	r24, 0x02	; 2
    2578:	df 91       	pop	r29
    257a:	cf 91       	pop	r28
    257c:	1f 91       	pop	r17
    257e:	0f 91       	pop	r16
    2580:	ff 90       	pop	r15
    2582:	ef 90       	pop	r14
    2584:	df 90       	pop	r13
    2586:	cf 90       	pop	r12
    2588:	bf 90       	pop	r11
    258a:	af 90       	pop	r10
    258c:	9f 90       	pop	r9
    258e:	8f 90       	pop	r8
    2590:	7f 90       	pop	r7
    2592:	6f 90       	pop	r6
    2594:	5f 90       	pop	r5
    2596:	4f 90       	pop	r4
    2598:	3f 90       	pop	r3
    259a:	2f 90       	pop	r2
    259c:	08 95       	ret

0000259e <put_fat>:
    259e:	7f 92       	push	r7
    25a0:	8f 92       	push	r8
    25a2:	9f 92       	push	r9
    25a4:	af 92       	push	r10
    25a6:	bf 92       	push	r11
    25a8:	cf 92       	push	r12
    25aa:	df 92       	push	r13
    25ac:	ef 92       	push	r14
    25ae:	ff 92       	push	r15
    25b0:	0f 93       	push	r16
    25b2:	1f 93       	push	r17
    25b4:	cf 93       	push	r28
    25b6:	df 93       	push	r29
    25b8:	ec 01       	movw	r28, r24
    25ba:	6a 01       	movw	r12, r20
    25bc:	7b 01       	movw	r14, r22
    25be:	48 01       	movw	r8, r16
    25c0:	59 01       	movw	r10, r18
    25c2:	42 30       	cpi	r20, 0x02	; 2
    25c4:	51 05       	cpc	r21, r1
    25c6:	61 05       	cpc	r22, r1
    25c8:	71 05       	cpc	r23, r1
    25ca:	08 f4       	brcc	.+2      	; 0x25ce <put_fat+0x30>
    25cc:	df c0       	rjmp	.+446    	; 0x278c <put_fat+0x1ee>
    25ce:	8f 89       	ldd	r24, Y+23	; 0x17
    25d0:	98 8d       	ldd	r25, Y+24	; 0x18
    25d2:	a9 8d       	ldd	r26, Y+25	; 0x19
    25d4:	ba 8d       	ldd	r27, Y+26	; 0x1a
    25d6:	48 17       	cp	r20, r24
    25d8:	59 07       	cpc	r21, r25
    25da:	6a 07       	cpc	r22, r26
    25dc:	7b 07       	cpc	r23, r27
    25de:	08 f0       	brcs	.+2      	; 0x25e2 <put_fat+0x44>
    25e0:	d5 c0       	rjmp	.+426    	; 0x278c <put_fat+0x1ee>
    25e2:	88 81       	ld	r24, Y
    25e4:	82 30       	cpi	r24, 0x02	; 2
    25e6:	09 f4       	brne	.+2      	; 0x25ea <put_fat+0x4c>
    25e8:	72 c0       	rjmp	.+228    	; 0x26ce <put_fat+0x130>
    25ea:	83 30       	cpi	r24, 0x03	; 3
    25ec:	09 f4       	brne	.+2      	; 0x25f0 <put_fat+0x52>
    25ee:	91 c0       	rjmp	.+290    	; 0x2712 <put_fat+0x174>
    25f0:	81 30       	cpi	r24, 0x01	; 1
    25f2:	09 f0       	breq	.+2      	; 0x25f6 <put_fat+0x58>
    25f4:	cb c0       	rjmp	.+406    	; 0x278c <put_fat+0x1ee>
    25f6:	8a 01       	movw	r16, r20
    25f8:	16 95       	lsr	r17
    25fa:	07 95       	ror	r16
    25fc:	04 0f       	add	r16, r20
    25fe:	15 1f       	adc	r17, r21
    2600:	a8 01       	movw	r20, r16
    2602:	45 2f       	mov	r20, r21
    2604:	55 27       	eor	r21, r21
    2606:	46 95       	lsr	r20
    2608:	60 e0       	ldi	r22, 0x00	; 0
    260a:	70 e0       	ldi	r23, 0x00	; 0
    260c:	8b a1       	ldd	r24, Y+35	; 0x23
    260e:	9c a1       	ldd	r25, Y+36	; 0x24
    2610:	ad a1       	ldd	r26, Y+37	; 0x25
    2612:	be a1       	ldd	r27, Y+38	; 0x26
    2614:	48 0f       	add	r20, r24
    2616:	59 1f       	adc	r21, r25
    2618:	6a 1f       	adc	r22, r26
    261a:	7b 1f       	adc	r23, r27
    261c:	ce 01       	movw	r24, r28
    261e:	0e 94 a1 0c 	call	0x1942	; 0x1942 <move_window>
    2622:	78 2e       	mov	r7, r24
    2624:	88 23       	and	r24, r24
    2626:	09 f0       	breq	.+2      	; 0x262a <put_fat+0x8c>
    2628:	b3 c0       	rjmp	.+358    	; 0x2790 <put_fat+0x1f2>
    262a:	d8 01       	movw	r26, r16
    262c:	b1 70       	andi	r27, 0x01	; 1
    262e:	0f 5f       	subi	r16, 0xFF	; 255
    2630:	1f 4f       	sbci	r17, 0xFF	; 255
    2632:	91 e0       	ldi	r25, 0x01	; 1
    2634:	c9 22       	and	r12, r25
    2636:	dd 24       	eor	r13, r13
    2638:	c1 14       	cp	r12, r1
    263a:	d1 04       	cpc	r13, r1
    263c:	51 f0       	breq	.+20     	; 0x2652 <put_fat+0xb4>
    263e:	fe 01       	movw	r30, r28
    2640:	ea 0f       	add	r30, r26
    2642:	fb 1f       	adc	r31, r27
    2644:	83 a9       	ldd	r24, Z+51	; 0x33
    2646:	8f 70       	andi	r24, 0x0F	; 15
    2648:	98 2d       	mov	r25, r8
    264a:	92 95       	swap	r25
    264c:	90 7f       	andi	r25, 0xF0	; 240
    264e:	98 2b       	or	r25, r24
    2650:	01 c0       	rjmp	.+2      	; 0x2654 <put_fat+0xb6>
    2652:	98 2d       	mov	r25, r8
    2654:	ac 0f       	add	r26, r28
    2656:	bd 1f       	adc	r27, r29
    2658:	d3 96       	adiw	r26, 0x33	; 51
    265a:	9c 93       	st	X, r25
    265c:	81 e0       	ldi	r24, 0x01	; 1
    265e:	8b 83       	std	Y+3, r24	; 0x03
    2660:	a8 01       	movw	r20, r16
    2662:	45 2f       	mov	r20, r21
    2664:	55 27       	eor	r21, r21
    2666:	46 95       	lsr	r20
    2668:	60 e0       	ldi	r22, 0x00	; 0
    266a:	70 e0       	ldi	r23, 0x00	; 0
    266c:	8b a1       	ldd	r24, Y+35	; 0x23
    266e:	9c a1       	ldd	r25, Y+36	; 0x24
    2670:	ad a1       	ldd	r26, Y+37	; 0x25
    2672:	be a1       	ldd	r27, Y+38	; 0x26
    2674:	48 0f       	add	r20, r24
    2676:	59 1f       	adc	r21, r25
    2678:	6a 1f       	adc	r22, r26
    267a:	7b 1f       	adc	r23, r27
    267c:	ce 01       	movw	r24, r28
    267e:	0e 94 a1 0c 	call	0x1942	; 0x1942 <move_window>
    2682:	78 2e       	mov	r7, r24
    2684:	88 23       	and	r24, r24
    2686:	09 f0       	breq	.+2      	; 0x268a <put_fat+0xec>
    2688:	83 c0       	rjmp	.+262    	; 0x2790 <put_fat+0x1f2>
    268a:	8f ef       	ldi	r24, 0xFF	; 255
    268c:	e8 2e       	mov	r14, r24
    268e:	81 e0       	ldi	r24, 0x01	; 1
    2690:	f8 2e       	mov	r15, r24
    2692:	e0 22       	and	r14, r16
    2694:	f1 22       	and	r15, r17
    2696:	cd 28       	or	r12, r13
    2698:	49 f0       	breq	.+18     	; 0x26ac <put_fat+0x10e>
    269a:	04 e0       	ldi	r16, 0x04	; 4
    269c:	b6 94       	lsr	r11
    269e:	a7 94       	ror	r10
    26a0:	97 94       	ror	r9
    26a2:	87 94       	ror	r8
    26a4:	0a 95       	dec	r16
    26a6:	d1 f7       	brne	.-12     	; 0x269c <put_fat+0xfe>
    26a8:	e8 2d       	mov	r30, r8
    26aa:	0b c0       	rjmp	.+22     	; 0x26c2 <put_fat+0x124>
    26ac:	fe 01       	movw	r30, r28
    26ae:	ee 0d       	add	r30, r14
    26b0:	ff 1d       	adc	r31, r15
    26b2:	e3 a9       	ldd	r30, Z+51	; 0x33
    26b4:	e0 7f       	andi	r30, 0xF0	; 240
    26b6:	bb 27       	eor	r27, r27
    26b8:	ab 2d       	mov	r26, r11
    26ba:	9a 2d       	mov	r25, r10
    26bc:	89 2d       	mov	r24, r9
    26be:	8f 70       	andi	r24, 0x0F	; 15
    26c0:	e8 2b       	or	r30, r24
    26c2:	ec 0e       	add	r14, r28
    26c4:	fd 1e       	adc	r15, r29
    26c6:	d7 01       	movw	r26, r14
    26c8:	d3 96       	adiw	r26, 0x33	; 51
    26ca:	ec 93       	st	X, r30
    26cc:	5c c0       	rjmp	.+184    	; 0x2786 <put_fat+0x1e8>
    26ce:	45 2f       	mov	r20, r21
    26d0:	56 2f       	mov	r21, r22
    26d2:	67 2f       	mov	r22, r23
    26d4:	77 27       	eor	r23, r23
    26d6:	8b a1       	ldd	r24, Y+35	; 0x23
    26d8:	9c a1       	ldd	r25, Y+36	; 0x24
    26da:	ad a1       	ldd	r26, Y+37	; 0x25
    26dc:	be a1       	ldd	r27, Y+38	; 0x26
    26de:	48 0f       	add	r20, r24
    26e0:	59 1f       	adc	r21, r25
    26e2:	6a 1f       	adc	r22, r26
    26e4:	7b 1f       	adc	r23, r27
    26e6:	ce 01       	movw	r24, r28
    26e8:	0e 94 a1 0c 	call	0x1942	; 0x1942 <move_window>
    26ec:	78 2e       	mov	r7, r24
    26ee:	88 23       	and	r24, r24
    26f0:	09 f0       	breq	.+2      	; 0x26f4 <put_fat+0x156>
    26f2:	4e c0       	rjmp	.+156    	; 0x2790 <put_fat+0x1f2>
    26f4:	cc 0c       	add	r12, r12
    26f6:	dd 1c       	adc	r13, r13
    26f8:	ee 1c       	adc	r14, r14
    26fa:	ff 1c       	adc	r15, r15
    26fc:	f6 01       	movw	r30, r12
    26fe:	f1 70       	andi	r31, 0x01	; 1
    2700:	de 01       	movw	r26, r28
    2702:	ae 0f       	add	r26, r30
    2704:	bf 1f       	adc	r27, r31
    2706:	d3 96       	adiw	r26, 0x33	; 51
    2708:	8c 92       	st	X, r8
    270a:	d3 97       	sbiw	r26, 0x33	; 51
    270c:	fd 01       	movw	r30, r26
    270e:	94 aa       	std	Z+52, r9	; 0x34
    2710:	3a c0       	rjmp	.+116    	; 0x2786 <put_fat+0x1e8>
    2712:	f7 e0       	ldi	r31, 0x07	; 7
    2714:	76 95       	lsr	r23
    2716:	67 95       	ror	r22
    2718:	57 95       	ror	r21
    271a:	47 95       	ror	r20
    271c:	fa 95       	dec	r31
    271e:	d1 f7       	brne	.-12     	; 0x2714 <put_fat+0x176>
    2720:	8b a1       	ldd	r24, Y+35	; 0x23
    2722:	9c a1       	ldd	r25, Y+36	; 0x24
    2724:	ad a1       	ldd	r26, Y+37	; 0x25
    2726:	be a1       	ldd	r27, Y+38	; 0x26
    2728:	48 0f       	add	r20, r24
    272a:	59 1f       	adc	r21, r25
    272c:	6a 1f       	adc	r22, r26
    272e:	7b 1f       	adc	r23, r27
    2730:	ce 01       	movw	r24, r28
    2732:	0e 94 a1 0c 	call	0x1942	; 0x1942 <move_window>
    2736:	78 2e       	mov	r7, r24
    2738:	88 23       	and	r24, r24
    273a:	51 f5       	brne	.+84     	; 0x2790 <put_fat+0x1f2>
    273c:	8f ef       	ldi	r24, 0xFF	; 255
    273e:	9f ef       	ldi	r25, 0xFF	; 255
    2740:	af ef       	ldi	r26, 0xFF	; 255
    2742:	bf e0       	ldi	r27, 0x0F	; 15
    2744:	88 22       	and	r8, r24
    2746:	99 22       	and	r9, r25
    2748:	aa 22       	and	r10, r26
    274a:	bb 22       	and	r11, r27
    274c:	e2 e0       	ldi	r30, 0x02	; 2
    274e:	cc 0c       	add	r12, r12
    2750:	dd 1c       	adc	r13, r13
    2752:	ee 1c       	adc	r14, r14
    2754:	ff 1c       	adc	r15, r15
    2756:	ea 95       	dec	r30
    2758:	d1 f7       	brne	.-12     	; 0x274e <put_fat+0x1b0>
    275a:	86 01       	movw	r16, r12
    275c:	11 70       	andi	r17, 0x01	; 1
    275e:	0d 5c       	subi	r16, 0xCD	; 205
    2760:	1f 4f       	sbci	r17, 0xFF	; 255
    2762:	0c 0f       	add	r16, r28
    2764:	1d 1f       	adc	r17, r29
    2766:	c8 01       	movw	r24, r16
    2768:	0e 94 82 0b 	call	0x1704	; 0x1704 <ld_dword>
    276c:	60 70       	andi	r22, 0x00	; 0
    276e:	70 70       	andi	r23, 0x00	; 0
    2770:	80 70       	andi	r24, 0x00	; 0
    2772:	90 7f       	andi	r25, 0xF0	; 240
    2774:	86 2a       	or	r8, r22
    2776:	97 2a       	or	r9, r23
    2778:	a8 2a       	or	r10, r24
    277a:	b9 2a       	or	r11, r25
    277c:	c8 01       	movw	r24, r16
    277e:	b5 01       	movw	r22, r10
    2780:	a4 01       	movw	r20, r8
    2782:	0e 94 ae 0b 	call	0x175c	; 0x175c <st_dword>
    2786:	81 e0       	ldi	r24, 0x01	; 1
    2788:	8b 83       	std	Y+3, r24	; 0x03
    278a:	02 c0       	rjmp	.+4      	; 0x2790 <put_fat+0x1f2>
    278c:	72 e0       	ldi	r23, 0x02	; 2
    278e:	77 2e       	mov	r7, r23
    2790:	87 2d       	mov	r24, r7
    2792:	df 91       	pop	r29
    2794:	cf 91       	pop	r28
    2796:	1f 91       	pop	r17
    2798:	0f 91       	pop	r16
    279a:	ff 90       	pop	r15
    279c:	ef 90       	pop	r14
    279e:	df 90       	pop	r13
    27a0:	cf 90       	pop	r12
    27a2:	bf 90       	pop	r11
    27a4:	af 90       	pop	r10
    27a6:	9f 90       	pop	r9
    27a8:	8f 90       	pop	r8
    27aa:	7f 90       	pop	r7
    27ac:	08 95       	ret

000027ae <create_chain>:
    27ae:	4f 92       	push	r4
    27b0:	5f 92       	push	r5
    27b2:	6f 92       	push	r6
    27b4:	7f 92       	push	r7
    27b6:	8f 92       	push	r8
    27b8:	9f 92       	push	r9
    27ba:	af 92       	push	r10
    27bc:	bf 92       	push	r11
    27be:	cf 92       	push	r12
    27c0:	df 92       	push	r13
    27c2:	ef 92       	push	r14
    27c4:	ff 92       	push	r15
    27c6:	0f 93       	push	r16
    27c8:	1f 93       	push	r17
    27ca:	cf 93       	push	r28
    27cc:	df 93       	push	r29
    27ce:	8c 01       	movw	r16, r24
    27d0:	2a 01       	movw	r4, r20
    27d2:	3b 01       	movw	r6, r22
    27d4:	fc 01       	movw	r30, r24
    27d6:	c0 81       	ld	r28, Z
    27d8:	d1 81       	ldd	r29, Z+1	; 0x01
    27da:	41 15       	cp	r20, r1
    27dc:	51 05       	cpc	r21, r1
    27de:	61 05       	cpc	r22, r1
    27e0:	71 05       	cpc	r23, r1
    27e2:	99 f4       	brne	.+38     	; 0x280a <create_chain+0x5c>
    27e4:	8b 84       	ldd	r8, Y+11	; 0x0b
    27e6:	9c 84       	ldd	r9, Y+12	; 0x0c
    27e8:	ad 84       	ldd	r10, Y+13	; 0x0d
    27ea:	be 84       	ldd	r11, Y+14	; 0x0e
    27ec:	81 14       	cp	r8, r1
    27ee:	91 04       	cpc	r9, r1
    27f0:	a1 04       	cpc	r10, r1
    27f2:	b1 04       	cpc	r11, r1
    27f4:	51 f1       	breq	.+84     	; 0x284a <create_chain+0x9c>
    27f6:	8f 89       	ldd	r24, Y+23	; 0x17
    27f8:	98 8d       	ldd	r25, Y+24	; 0x18
    27fa:	a9 8d       	ldd	r26, Y+25	; 0x19
    27fc:	ba 8d       	ldd	r27, Y+26	; 0x1a
    27fe:	88 16       	cp	r8, r24
    2800:	99 06       	cpc	r9, r25
    2802:	aa 06       	cpc	r10, r26
    2804:	bb 06       	cpc	r11, r27
    2806:	08 f5       	brcc	.+66     	; 0x284a <create_chain+0x9c>
    2808:	25 c0       	rjmp	.+74     	; 0x2854 <create_chain+0xa6>
    280a:	0e 94 e6 10 	call	0x21cc	; 0x21cc <get_fat>
    280e:	9b 01       	movw	r18, r22
    2810:	ac 01       	movw	r20, r24
    2812:	62 30       	cpi	r22, 0x02	; 2
    2814:	71 05       	cpc	r23, r1
    2816:	81 05       	cpc	r24, r1
    2818:	91 05       	cpc	r25, r1
    281a:	08 f4       	brcc	.+2      	; 0x281e <create_chain+0x70>
    281c:	ee c0       	rjmp	.+476    	; 0x29fa <create_chain+0x24c>
    281e:	6f 3f       	cpi	r22, 0xFF	; 255
    2820:	ff ef       	ldi	r31, 0xFF	; 255
    2822:	7f 07       	cpc	r23, r31
    2824:	ff ef       	ldi	r31, 0xFF	; 255
    2826:	8f 07       	cpc	r24, r31
    2828:	ff ef       	ldi	r31, 0xFF	; 255
    282a:	9f 07       	cpc	r25, r31
    282c:	09 f4       	brne	.+2      	; 0x2830 <create_chain+0x82>
    282e:	f3 c0       	rjmp	.+486    	; 0x2a16 <create_chain+0x268>
    2830:	8f 89       	ldd	r24, Y+23	; 0x17
    2832:	98 8d       	ldd	r25, Y+24	; 0x18
    2834:	a9 8d       	ldd	r26, Y+25	; 0x19
    2836:	ba 8d       	ldd	r27, Y+26	; 0x1a
    2838:	28 17       	cp	r18, r24
    283a:	39 07       	cpc	r19, r25
    283c:	4a 07       	cpc	r20, r26
    283e:	5b 07       	cpc	r21, r27
    2840:	08 f4       	brcc	.+2      	; 0x2844 <create_chain+0x96>
    2842:	e9 c0       	rjmp	.+466    	; 0x2a16 <create_chain+0x268>
    2844:	53 01       	movw	r10, r6
    2846:	42 01       	movw	r8, r4
    2848:	05 c0       	rjmp	.+10     	; 0x2854 <create_chain+0xa6>
    284a:	61 e0       	ldi	r22, 0x01	; 1
    284c:	86 2e       	mov	r8, r22
    284e:	91 2c       	mov	r9, r1
    2850:	a1 2c       	mov	r10, r1
    2852:	b1 2c       	mov	r11, r1
    2854:	8f 85       	ldd	r24, Y+15	; 0x0f
    2856:	98 89       	ldd	r25, Y+16	; 0x10
    2858:	a9 89       	ldd	r26, Y+17	; 0x11
    285a:	ba 89       	ldd	r27, Y+18	; 0x12
    285c:	00 97       	sbiw	r24, 0x00	; 0
    285e:	a1 05       	cpc	r26, r1
    2860:	b1 05       	cpc	r27, r1
    2862:	09 f4       	brne	.+2      	; 0x2866 <create_chain+0xb8>
    2864:	d4 c0       	rjmp	.+424    	; 0x2a0e <create_chain+0x260>
    2866:	84 14       	cp	r8, r4
    2868:	95 04       	cpc	r9, r5
    286a:	a6 04       	cpc	r10, r6
    286c:	b7 04       	cpc	r11, r7
    286e:	09 f0       	breq	.+2      	; 0x2872 <create_chain+0xc4>
    2870:	4a c0       	rjmp	.+148    	; 0x2906 <create_chain+0x158>
    2872:	75 01       	movw	r14, r10
    2874:	64 01       	movw	r12, r8
    2876:	08 94       	sec
    2878:	c1 1c       	adc	r12, r1
    287a:	d1 1c       	adc	r13, r1
    287c:	e1 1c       	adc	r14, r1
    287e:	f1 1c       	adc	r15, r1
    2880:	8f 89       	ldd	r24, Y+23	; 0x17
    2882:	98 8d       	ldd	r25, Y+24	; 0x18
    2884:	a9 8d       	ldd	r26, Y+25	; 0x19
    2886:	ba 8d       	ldd	r27, Y+26	; 0x1a
    2888:	c8 16       	cp	r12, r24
    288a:	d9 06       	cpc	r13, r25
    288c:	ea 06       	cpc	r14, r26
    288e:	fb 06       	cpc	r15, r27
    2890:	28 f0       	brcs	.+10     	; 0x289c <create_chain+0xee>
    2892:	52 e0       	ldi	r21, 0x02	; 2
    2894:	c5 2e       	mov	r12, r21
    2896:	d1 2c       	mov	r13, r1
    2898:	e1 2c       	mov	r14, r1
    289a:	f1 2c       	mov	r15, r1
    289c:	c8 01       	movw	r24, r16
    289e:	b7 01       	movw	r22, r14
    28a0:	a6 01       	movw	r20, r12
    28a2:	0e 94 e6 10 	call	0x21cc	; 0x21cc <get_fat>
    28a6:	9b 01       	movw	r18, r22
    28a8:	ac 01       	movw	r20, r24
    28aa:	61 30       	cpi	r22, 0x01	; 1
    28ac:	71 05       	cpc	r23, r1
    28ae:	81 05       	cpc	r24, r1
    28b0:	91 05       	cpc	r25, r1
    28b2:	09 f4       	brne	.+2      	; 0x28b6 <create_chain+0x108>
    28b4:	b0 c0       	rjmp	.+352    	; 0x2a16 <create_chain+0x268>
    28b6:	2f 3f       	cpi	r18, 0xFF	; 255
    28b8:	8f ef       	ldi	r24, 0xFF	; 255
    28ba:	38 07       	cpc	r19, r24
    28bc:	8f ef       	ldi	r24, 0xFF	; 255
    28be:	48 07       	cpc	r20, r24
    28c0:	8f ef       	ldi	r24, 0xFF	; 255
    28c2:	58 07       	cpc	r21, r24
    28c4:	09 f4       	brne	.+2      	; 0x28c8 <create_chain+0x11a>
    28c6:	a7 c0       	rjmp	.+334    	; 0x2a16 <create_chain+0x268>
    28c8:	21 15       	cp	r18, r1
    28ca:	31 05       	cpc	r19, r1
    28cc:	41 05       	cpc	r20, r1
    28ce:	51 05       	cpc	r21, r1
    28d0:	a9 f0       	breq	.+42     	; 0x28fc <create_chain+0x14e>
    28d2:	2b 85       	ldd	r18, Y+11	; 0x0b
    28d4:	3c 85       	ldd	r19, Y+12	; 0x0c
    28d6:	4d 85       	ldd	r20, Y+13	; 0x0d
    28d8:	5e 85       	ldd	r21, Y+14	; 0x0e
    28da:	22 30       	cpi	r18, 0x02	; 2
    28dc:	31 05       	cpc	r19, r1
    28de:	41 05       	cpc	r20, r1
    28e0:	51 05       	cpc	r21, r1
    28e2:	88 f0       	brcs	.+34     	; 0x2906 <create_chain+0x158>
    28e4:	8f 89       	ldd	r24, Y+23	; 0x17
    28e6:	98 8d       	ldd	r25, Y+24	; 0x18
    28e8:	a9 8d       	ldd	r26, Y+25	; 0x19
    28ea:	ba 8d       	ldd	r27, Y+26	; 0x1a
    28ec:	28 17       	cp	r18, r24
    28ee:	39 07       	cpc	r19, r25
    28f0:	4a 07       	cpc	r20, r26
    28f2:	5b 07       	cpc	r21, r27
    28f4:	40 f4       	brcc	.+16     	; 0x2906 <create_chain+0x158>
    28f6:	49 01       	movw	r8, r18
    28f8:	5a 01       	movw	r10, r20
    28fa:	05 c0       	rjmp	.+10     	; 0x2906 <create_chain+0x158>
    28fc:	c1 14       	cp	r12, r1
    28fe:	d1 04       	cpc	r13, r1
    2900:	e1 04       	cpc	r14, r1
    2902:	f1 04       	cpc	r15, r1
    2904:	e9 f5       	brne	.+122    	; 0x2980 <create_chain+0x1d2>
    2906:	75 01       	movw	r14, r10
    2908:	64 01       	movw	r12, r8
    290a:	08 94       	sec
    290c:	c1 1c       	adc	r12, r1
    290e:	d1 1c       	adc	r13, r1
    2910:	e1 1c       	adc	r14, r1
    2912:	f1 1c       	adc	r15, r1
    2914:	8f 89       	ldd	r24, Y+23	; 0x17
    2916:	98 8d       	ldd	r25, Y+24	; 0x18
    2918:	a9 8d       	ldd	r26, Y+25	; 0x19
    291a:	ba 8d       	ldd	r27, Y+26	; 0x1a
    291c:	c8 16       	cp	r12, r24
    291e:	d9 06       	cpc	r13, r25
    2920:	ea 06       	cpc	r14, r26
    2922:	fb 06       	cpc	r15, r27
    2924:	60 f0       	brcs	.+24     	; 0x293e <create_chain+0x190>
    2926:	e2 e0       	ldi	r30, 0x02	; 2
    2928:	8e 16       	cp	r8, r30
    292a:	91 04       	cpc	r9, r1
    292c:	a1 04       	cpc	r10, r1
    292e:	b1 04       	cpc	r11, r1
    2930:	08 f4       	brcc	.+2      	; 0x2934 <create_chain+0x186>
    2932:	6d c0       	rjmp	.+218    	; 0x2a0e <create_chain+0x260>
    2934:	42 e0       	ldi	r20, 0x02	; 2
    2936:	c4 2e       	mov	r12, r20
    2938:	d1 2c       	mov	r13, r1
    293a:	e1 2c       	mov	r14, r1
    293c:	f1 2c       	mov	r15, r1
    293e:	c8 01       	movw	r24, r16
    2940:	b7 01       	movw	r22, r14
    2942:	a6 01       	movw	r20, r12
    2944:	0e 94 e6 10 	call	0x21cc	; 0x21cc <get_fat>
    2948:	9b 01       	movw	r18, r22
    294a:	ac 01       	movw	r20, r24
    294c:	61 15       	cp	r22, r1
    294e:	71 05       	cpc	r23, r1
    2950:	81 05       	cpc	r24, r1
    2952:	91 05       	cpc	r25, r1
    2954:	a9 f0       	breq	.+42     	; 0x2980 <create_chain+0x1d2>
    2956:	61 30       	cpi	r22, 0x01	; 1
    2958:	71 05       	cpc	r23, r1
    295a:	81 05       	cpc	r24, r1
    295c:	91 05       	cpc	r25, r1
    295e:	09 f4       	brne	.+2      	; 0x2962 <create_chain+0x1b4>
    2960:	5a c0       	rjmp	.+180    	; 0x2a16 <create_chain+0x268>
    2962:	6f 3f       	cpi	r22, 0xFF	; 255
    2964:	ff ef       	ldi	r31, 0xFF	; 255
    2966:	7f 07       	cpc	r23, r31
    2968:	ff ef       	ldi	r31, 0xFF	; 255
    296a:	8f 07       	cpc	r24, r31
    296c:	ff ef       	ldi	r31, 0xFF	; 255
    296e:	9f 07       	cpc	r25, r31
    2970:	09 f4       	brne	.+2      	; 0x2974 <create_chain+0x1c6>
    2972:	51 c0       	rjmp	.+162    	; 0x2a16 <create_chain+0x268>
    2974:	c8 14       	cp	r12, r8
    2976:	d9 04       	cpc	r13, r9
    2978:	ea 04       	cpc	r14, r10
    297a:	fb 04       	cpc	r15, r11
    297c:	31 f6       	brne	.-116    	; 0x290a <create_chain+0x15c>
    297e:	47 c0       	rjmp	.+142    	; 0x2a0e <create_chain+0x260>
    2980:	ce 01       	movw	r24, r28
    2982:	b7 01       	movw	r22, r14
    2984:	a6 01       	movw	r20, r12
    2986:	0f ef       	ldi	r16, 0xFF	; 255
    2988:	1f ef       	ldi	r17, 0xFF	; 255
    298a:	2f ef       	ldi	r18, 0xFF	; 255
    298c:	3f ef       	ldi	r19, 0xFF	; 255
    298e:	0e 94 cf 12 	call	0x259e	; 0x259e <put_fat>
    2992:	88 23       	and	r24, r24
    2994:	81 f5       	brne	.+96     	; 0x29f6 <create_chain+0x248>
    2996:	41 14       	cp	r4, r1
    2998:	51 04       	cpc	r5, r1
    299a:	61 04       	cpc	r6, r1
    299c:	71 04       	cpc	r7, r1
    299e:	49 f0       	breq	.+18     	; 0x29b2 <create_chain+0x204>
    29a0:	ce 01       	movw	r24, r28
    29a2:	b3 01       	movw	r22, r6
    29a4:	a2 01       	movw	r20, r4
    29a6:	97 01       	movw	r18, r14
    29a8:	86 01       	movw	r16, r12
    29aa:	0e 94 cf 12 	call	0x259e	; 0x259e <put_fat>
    29ae:	88 23       	and	r24, r24
    29b0:	11 f5       	brne	.+68     	; 0x29f6 <create_chain+0x248>
    29b2:	cb 86       	std	Y+11, r12	; 0x0b
    29b4:	dc 86       	std	Y+12, r13	; 0x0c
    29b6:	ed 86       	std	Y+13, r14	; 0x0d
    29b8:	fe 86       	std	Y+14, r15	; 0x0e
    29ba:	2f 85       	ldd	r18, Y+15	; 0x0f
    29bc:	38 89       	ldd	r19, Y+16	; 0x10
    29be:	49 89       	ldd	r20, Y+17	; 0x11
    29c0:	5a 89       	ldd	r21, Y+18	; 0x12
    29c2:	8f 89       	ldd	r24, Y+23	; 0x17
    29c4:	98 8d       	ldd	r25, Y+24	; 0x18
    29c6:	a9 8d       	ldd	r26, Y+25	; 0x19
    29c8:	ba 8d       	ldd	r27, Y+26	; 0x1a
    29ca:	02 97       	sbiw	r24, 0x02	; 2
    29cc:	a1 09       	sbc	r26, r1
    29ce:	b1 09       	sbc	r27, r1
    29d0:	82 17       	cp	r24, r18
    29d2:	93 07       	cpc	r25, r19
    29d4:	a4 07       	cpc	r26, r20
    29d6:	b5 07       	cpc	r27, r21
    29d8:	40 f0       	brcs	.+16     	; 0x29ea <create_chain+0x23c>
    29da:	21 50       	subi	r18, 0x01	; 1
    29dc:	30 40       	sbci	r19, 0x00	; 0
    29de:	40 40       	sbci	r20, 0x00	; 0
    29e0:	50 40       	sbci	r21, 0x00	; 0
    29e2:	2f 87       	std	Y+15, r18	; 0x0f
    29e4:	38 8b       	std	Y+16, r19	; 0x10
    29e6:	49 8b       	std	Y+17, r20	; 0x11
    29e8:	5a 8b       	std	Y+18, r21	; 0x12
    29ea:	8c 81       	ldd	r24, Y+4	; 0x04
    29ec:	81 60       	ori	r24, 0x01	; 1
    29ee:	8c 83       	std	Y+4, r24	; 0x04
    29f0:	a7 01       	movw	r20, r14
    29f2:	96 01       	movw	r18, r12
    29f4:	10 c0       	rjmp	.+32     	; 0x2a16 <create_chain+0x268>
    29f6:	81 30       	cpi	r24, 0x01	; 1
    29f8:	29 f0       	breq	.+10     	; 0x2a04 <create_chain+0x256>
    29fa:	21 e0       	ldi	r18, 0x01	; 1
    29fc:	30 e0       	ldi	r19, 0x00	; 0
    29fe:	40 e0       	ldi	r20, 0x00	; 0
    2a00:	50 e0       	ldi	r21, 0x00	; 0
    2a02:	09 c0       	rjmp	.+18     	; 0x2a16 <create_chain+0x268>
    2a04:	2f ef       	ldi	r18, 0xFF	; 255
    2a06:	3f ef       	ldi	r19, 0xFF	; 255
    2a08:	4f ef       	ldi	r20, 0xFF	; 255
    2a0a:	5f ef       	ldi	r21, 0xFF	; 255
    2a0c:	04 c0       	rjmp	.+8      	; 0x2a16 <create_chain+0x268>
    2a0e:	20 e0       	ldi	r18, 0x00	; 0
    2a10:	30 e0       	ldi	r19, 0x00	; 0
    2a12:	40 e0       	ldi	r20, 0x00	; 0
    2a14:	50 e0       	ldi	r21, 0x00	; 0
    2a16:	b9 01       	movw	r22, r18
    2a18:	ca 01       	movw	r24, r20
    2a1a:	df 91       	pop	r29
    2a1c:	cf 91       	pop	r28
    2a1e:	1f 91       	pop	r17
    2a20:	0f 91       	pop	r16
    2a22:	ff 90       	pop	r15
    2a24:	ef 90       	pop	r14
    2a26:	df 90       	pop	r13
    2a28:	cf 90       	pop	r12
    2a2a:	bf 90       	pop	r11
    2a2c:	af 90       	pop	r10
    2a2e:	9f 90       	pop	r9
    2a30:	8f 90       	pop	r8
    2a32:	7f 90       	pop	r7
    2a34:	6f 90       	pop	r6
    2a36:	5f 90       	pop	r5
    2a38:	4f 90       	pop	r4
    2a3a:	08 95       	ret

00002a3c <dir_next>:
    2a3c:	2f 92       	push	r2
    2a3e:	3f 92       	push	r3
    2a40:	4f 92       	push	r4
    2a42:	5f 92       	push	r5
    2a44:	6f 92       	push	r6
    2a46:	7f 92       	push	r7
    2a48:	8f 92       	push	r8
    2a4a:	9f 92       	push	r9
    2a4c:	af 92       	push	r10
    2a4e:	bf 92       	push	r11
    2a50:	cf 92       	push	r12
    2a52:	df 92       	push	r13
    2a54:	ef 92       	push	r14
    2a56:	ff 92       	push	r15
    2a58:	0f 93       	push	r16
    2a5a:	1f 93       	push	r17
    2a5c:	df 93       	push	r29
    2a5e:	cf 93       	push	r28
    2a60:	00 d0       	rcall	.+0      	; 0x2a62 <dir_next+0x26>
    2a62:	00 d0       	rcall	.+0      	; 0x2a64 <dir_next+0x28>
    2a64:	00 d0       	rcall	.+0      	; 0x2a66 <dir_next+0x2a>
    2a66:	cd b7       	in	r28, 0x3d	; 61
    2a68:	de b7       	in	r29, 0x3e	; 62
    2a6a:	2c 01       	movw	r4, r24
    2a6c:	5b 01       	movw	r10, r22
    2a6e:	dc 01       	movw	r26, r24
    2a70:	6d 90       	ld	r6, X+
    2a72:	7c 90       	ld	r7, X
    2a74:	11 97       	sbiw	r26, 0x01	; 1
    2a76:	1e 96       	adiw	r26, 0x0e	; 14
    2a78:	8d 91       	ld	r24, X+
    2a7a:	9d 91       	ld	r25, X+
    2a7c:	0d 90       	ld	r0, X+
    2a7e:	bc 91       	ld	r27, X
    2a80:	a0 2d       	mov	r26, r0
    2a82:	80 96       	adiw	r24, 0x20	; 32
    2a84:	a1 1d       	adc	r26, r1
    2a86:	b1 1d       	adc	r27, r1
    2a88:	89 83       	std	Y+1, r24	; 0x01
    2a8a:	9a 83       	std	Y+2, r25	; 0x02
    2a8c:	ab 83       	std	Y+3, r26	; 0x03
    2a8e:	bc 83       	std	Y+4, r27	; 0x04
    2a90:	80 50       	subi	r24, 0x00	; 0
    2a92:	90 40       	sbci	r25, 0x00	; 0
    2a94:	a0 42       	sbci	r26, 0x20	; 32
    2a96:	b0 40       	sbci	r27, 0x00	; 0
    2a98:	38 f0       	brcs	.+14     	; 0x2aa8 <dir_next+0x6c>
    2a9a:	d2 01       	movw	r26, r4
    2a9c:	56 96       	adiw	r26, 0x16	; 22
    2a9e:	1d 92       	st	X+, r1
    2aa0:	1d 92       	st	X+, r1
    2aa2:	1d 92       	st	X+, r1
    2aa4:	1c 92       	st	X, r1
    2aa6:	59 97       	sbiw	r26, 0x19	; 25
    2aa8:	f2 01       	movw	r30, r4
    2aaa:	26 89       	ldd	r18, Z+22	; 0x16
    2aac:	37 89       	ldd	r19, Z+23	; 0x17
    2aae:	40 8d       	ldd	r20, Z+24	; 0x18
    2ab0:	51 8d       	ldd	r21, Z+25	; 0x19
    2ab2:	21 15       	cp	r18, r1
    2ab4:	31 05       	cpc	r19, r1
    2ab6:	41 05       	cpc	r20, r1
    2ab8:	51 05       	cpc	r21, r1
    2aba:	09 f4       	brne	.+2      	; 0x2abe <dir_next+0x82>
    2abc:	7c c0       	rjmp	.+248    	; 0x2bb6 <dir_next+0x17a>
    2abe:	89 81       	ldd	r24, Y+1	; 0x01
    2ac0:	9a 81       	ldd	r25, Y+2	; 0x02
    2ac2:	ab 81       	ldd	r26, Y+3	; 0x03
    2ac4:	bc 81       	ldd	r27, Y+4	; 0x04
    2ac6:	91 70       	andi	r25, 0x01	; 1
    2ac8:	a0 70       	andi	r26, 0x00	; 0
    2aca:	b0 70       	andi	r27, 0x00	; 0
    2acc:	00 97       	sbiw	r24, 0x00	; 0
    2ace:	a1 05       	cpc	r26, r1
    2ad0:	b1 05       	cpc	r27, r1
    2ad2:	09 f0       	breq	.+2      	; 0x2ad6 <dir_next+0x9a>
    2ad4:	4c c1       	rjmp	.+664    	; 0x2d6e <dir_next+0x332>
    2ad6:	2f 5f       	subi	r18, 0xFF	; 255
    2ad8:	3f 4f       	sbci	r19, 0xFF	; 255
    2ada:	4f 4f       	sbci	r20, 0xFF	; 255
    2adc:	5f 4f       	sbci	r21, 0xFF	; 255
    2ade:	d2 01       	movw	r26, r4
    2ae0:	56 96       	adiw	r26, 0x16	; 22
    2ae2:	2d 93       	st	X+, r18
    2ae4:	3d 93       	st	X+, r19
    2ae6:	4d 93       	st	X+, r20
    2ae8:	5c 93       	st	X, r21
    2aea:	59 97       	sbiw	r26, 0x19	; 25
    2aec:	52 96       	adiw	r26, 0x12	; 18
    2aee:	ed 90       	ld	r14, X+
    2af0:	fd 90       	ld	r15, X+
    2af2:	0d 91       	ld	r16, X+
    2af4:	1c 91       	ld	r17, X
    2af6:	55 97       	sbiw	r26, 0x15	; 21
    2af8:	e1 14       	cp	r14, r1
    2afa:	f1 04       	cpc	r15, r1
    2afc:	01 05       	cpc	r16, r1
    2afe:	11 05       	cpc	r17, r1
    2b00:	b1 f4       	brne	.+44     	; 0x2b2e <dir_next+0xf2>
    2b02:	29 81       	ldd	r18, Y+1	; 0x01
    2b04:	3a 81       	ldd	r19, Y+2	; 0x02
    2b06:	4b 81       	ldd	r20, Y+3	; 0x03
    2b08:	5c 81       	ldd	r21, Y+4	; 0x04
    2b0a:	a5 e0       	ldi	r26, 0x05	; 5
    2b0c:	56 95       	lsr	r21
    2b0e:	47 95       	ror	r20
    2b10:	37 95       	ror	r19
    2b12:	27 95       	ror	r18
    2b14:	aa 95       	dec	r26
    2b16:	d1 f7       	brne	.-12     	; 0x2b0c <dir_next+0xd0>
    2b18:	f3 01       	movw	r30, r6
    2b1a:	87 81       	ldd	r24, Z+7	; 0x07
    2b1c:	90 85       	ldd	r25, Z+8	; 0x08
    2b1e:	a0 e0       	ldi	r26, 0x00	; 0
    2b20:	b0 e0       	ldi	r27, 0x00	; 0
    2b22:	28 17       	cp	r18, r24
    2b24:	39 07       	cpc	r19, r25
    2b26:	4a 07       	cpc	r20, r26
    2b28:	5b 07       	cpc	r21, r27
    2b2a:	f0 f5       	brcc	.+124    	; 0x2ba8 <dir_next+0x16c>
    2b2c:	20 c1       	rjmp	.+576    	; 0x2d6e <dir_next+0x332>
    2b2e:	f3 01       	movw	r30, r6
    2b30:	81 85       	ldd	r24, Z+9	; 0x09
    2b32:	92 85       	ldd	r25, Z+10	; 0x0a
    2b34:	01 97       	sbiw	r24, 0x01	; 1
    2b36:	a0 e0       	ldi	r26, 0x00	; 0
    2b38:	b0 e0       	ldi	r27, 0x00	; 0
    2b3a:	29 81       	ldd	r18, Y+1	; 0x01
    2b3c:	3a 81       	ldd	r19, Y+2	; 0x02
    2b3e:	4b 81       	ldd	r20, Y+3	; 0x03
    2b40:	5c 81       	ldd	r21, Y+4	; 0x04
    2b42:	f9 e0       	ldi	r31, 0x09	; 9
    2b44:	56 95       	lsr	r21
    2b46:	47 95       	ror	r20
    2b48:	37 95       	ror	r19
    2b4a:	27 95       	ror	r18
    2b4c:	fa 95       	dec	r31
    2b4e:	d1 f7       	brne	.-12     	; 0x2b44 <dir_next+0x108>
    2b50:	82 23       	and	r24, r18
    2b52:	93 23       	and	r25, r19
    2b54:	a4 23       	and	r26, r20
    2b56:	b5 23       	and	r27, r21
    2b58:	00 97       	sbiw	r24, 0x00	; 0
    2b5a:	a1 05       	cpc	r26, r1
    2b5c:	b1 05       	cpc	r27, r1
    2b5e:	09 f0       	breq	.+2      	; 0x2b62 <dir_next+0x126>
    2b60:	06 c1       	rjmp	.+524    	; 0x2d6e <dir_next+0x332>
    2b62:	c2 01       	movw	r24, r4
    2b64:	b8 01       	movw	r22, r16
    2b66:	a7 01       	movw	r20, r14
    2b68:	0e 94 e6 10 	call	0x21cc	; 0x21cc <get_fat>
    2b6c:	6b 01       	movw	r12, r22
    2b6e:	7c 01       	movw	r14, r24
    2b70:	62 30       	cpi	r22, 0x02	; 2
    2b72:	71 05       	cpc	r23, r1
    2b74:	81 05       	cpc	r24, r1
    2b76:	91 05       	cpc	r25, r1
    2b78:	08 f4       	brcc	.+2      	; 0x2b7c <dir_next+0x140>
    2b7a:	0c c1       	rjmp	.+536    	; 0x2d94 <dir_next+0x358>
    2b7c:	6f 3f       	cpi	r22, 0xFF	; 255
    2b7e:	2f ef       	ldi	r18, 0xFF	; 255
    2b80:	72 07       	cpc	r23, r18
    2b82:	2f ef       	ldi	r18, 0xFF	; 255
    2b84:	82 07       	cpc	r24, r18
    2b86:	2f ef       	ldi	r18, 0xFF	; 255
    2b88:	92 07       	cpc	r25, r18
    2b8a:	09 f4       	brne	.+2      	; 0x2b8e <dir_next+0x152>
    2b8c:	05 c1       	rjmp	.+522    	; 0x2d98 <dir_next+0x35c>
    2b8e:	f3 01       	movw	r30, r6
    2b90:	87 89       	ldd	r24, Z+23	; 0x17
    2b92:	90 8d       	ldd	r25, Z+24	; 0x18
    2b94:	a1 8d       	ldd	r26, Z+25	; 0x19
    2b96:	b2 8d       	ldd	r27, Z+26	; 0x1a
    2b98:	c8 16       	cp	r12, r24
    2b9a:	d9 06       	cpc	r13, r25
    2b9c:	ea 06       	cpc	r14, r26
    2b9e:	fb 06       	cpc	r15, r27
    2ba0:	08 f4       	brcc	.+2      	; 0x2ba4 <dir_next+0x168>
    2ba2:	a5 c0       	rjmp	.+330    	; 0x2cee <dir_next+0x2b2>
    2ba4:	ab 28       	or	r10, r11
    2ba6:	49 f4       	brne	.+18     	; 0x2bba <dir_next+0x17e>
    2ba8:	d2 01       	movw	r26, r4
    2baa:	56 96       	adiw	r26, 0x16	; 22
    2bac:	1d 92       	st	X+, r1
    2bae:	1d 92       	st	X+, r1
    2bb0:	1d 92       	st	X+, r1
    2bb2:	1c 92       	st	X, r1
    2bb4:	59 97       	sbiw	r26, 0x19	; 25
    2bb6:	84 e0       	ldi	r24, 0x04	; 4
    2bb8:	f0 c0       	rjmp	.+480    	; 0x2d9a <dir_next+0x35e>
    2bba:	f2 01       	movw	r30, r4
    2bbc:	42 89       	ldd	r20, Z+18	; 0x12
    2bbe:	53 89       	ldd	r21, Z+19	; 0x13
    2bc0:	64 89       	ldd	r22, Z+20	; 0x14
    2bc2:	75 89       	ldd	r23, Z+21	; 0x15
    2bc4:	c2 01       	movw	r24, r4
    2bc6:	0e 94 d7 13 	call	0x27ae	; 0x27ae <create_chain>
    2bca:	6b 01       	movw	r12, r22
    2bcc:	7c 01       	movw	r14, r24
    2bce:	61 15       	cp	r22, r1
    2bd0:	71 05       	cpc	r23, r1
    2bd2:	81 05       	cpc	r24, r1
    2bd4:	91 05       	cpc	r25, r1
    2bd6:	11 f4       	brne	.+4      	; 0x2bdc <dir_next+0x1a0>
    2bd8:	87 e0       	ldi	r24, 0x07	; 7
    2bda:	df c0       	rjmp	.+446    	; 0x2d9a <dir_next+0x35e>
    2bdc:	61 30       	cpi	r22, 0x01	; 1
    2bde:	71 05       	cpc	r23, r1
    2be0:	81 05       	cpc	r24, r1
    2be2:	91 05       	cpc	r25, r1
    2be4:	09 f4       	brne	.+2      	; 0x2be8 <dir_next+0x1ac>
    2be6:	d6 c0       	rjmp	.+428    	; 0x2d94 <dir_next+0x358>
    2be8:	6f 3f       	cpi	r22, 0xFF	; 255
    2bea:	2f ef       	ldi	r18, 0xFF	; 255
    2bec:	72 07       	cpc	r23, r18
    2bee:	2f ef       	ldi	r18, 0xFF	; 255
    2bf0:	82 07       	cpc	r24, r18
    2bf2:	2f ef       	ldi	r18, 0xFF	; 255
    2bf4:	92 07       	cpc	r25, r18
    2bf6:	09 f4       	brne	.+2      	; 0x2bfa <dir_next+0x1be>
    2bf8:	cf c0       	rjmp	.+414    	; 0x2d98 <dir_next+0x35c>
    2bfa:	c3 01       	movw	r24, r6
    2bfc:	0e 94 4b 0c 	call	0x1896	; 0x1896 <sync_window>
    2c00:	88 23       	and	r24, r24
    2c02:	09 f0       	breq	.+2      	; 0x2c06 <dir_next+0x1ca>
    2c04:	c9 c0       	rjmp	.+402    	; 0x2d98 <dir_next+0x35c>
    2c06:	ee ef       	ldi	r30, 0xFE	; 254
    2c08:	8e 2e       	mov	r8, r30
    2c0a:	ef ef       	ldi	r30, 0xFF	; 255
    2c0c:	9e 2e       	mov	r9, r30
    2c0e:	ef ef       	ldi	r30, 0xFF	; 255
    2c10:	ae 2e       	mov	r10, r30
    2c12:	ef ef       	ldi	r30, 0xFF	; 255
    2c14:	be 2e       	mov	r11, r30
    2c16:	8c 0c       	add	r8, r12
    2c18:	9d 1c       	adc	r9, r13
    2c1a:	ae 1c       	adc	r10, r14
    2c1c:	bf 1c       	adc	r11, r15
    2c1e:	f3 01       	movw	r30, r6
    2c20:	87 89       	ldd	r24, Z+23	; 0x17
    2c22:	90 8d       	ldd	r25, Z+24	; 0x18
    2c24:	a1 8d       	ldd	r26, Z+25	; 0x19
    2c26:	b2 8d       	ldd	r27, Z+26	; 0x1a
    2c28:	02 97       	sbiw	r24, 0x02	; 2
    2c2a:	a1 09       	sbc	r26, r1
    2c2c:	b1 09       	sbc	r27, r1
    2c2e:	88 16       	cp	r8, r24
    2c30:	99 06       	cpc	r9, r25
    2c32:	aa 06       	cpc	r10, r26
    2c34:	bb 06       	cpc	r11, r27
    2c36:	20 f0       	brcs	.+8      	; 0x2c40 <dir_next+0x204>
    2c38:	88 24       	eor	r8, r8
    2c3a:	99 24       	eor	r9, r9
    2c3c:	54 01       	movw	r10, r8
    2c3e:	16 c0       	rjmp	.+44     	; 0x2c6c <dir_next+0x230>
    2c40:	d3 01       	movw	r26, r6
    2c42:	19 96       	adiw	r26, 0x09	; 9
    2c44:	2d 91       	ld	r18, X+
    2c46:	3c 91       	ld	r19, X
    2c48:	1a 97       	sbiw	r26, 0x0a	; 10
    2c4a:	40 e0       	ldi	r20, 0x00	; 0
    2c4c:	50 e0       	ldi	r21, 0x00	; 0
    2c4e:	c5 01       	movw	r24, r10
    2c50:	b4 01       	movw	r22, r8
    2c52:	0e 94 71 2b 	call	0x56e2	; 0x56e2 <__mulsi3>
    2c56:	4b 01       	movw	r8, r22
    2c58:	5c 01       	movw	r10, r24
    2c5a:	f3 01       	movw	r30, r6
    2c5c:	83 a5       	ldd	r24, Z+43	; 0x2b
    2c5e:	94 a5       	ldd	r25, Z+44	; 0x2c
    2c60:	a5 a5       	ldd	r26, Z+45	; 0x2d
    2c62:	b6 a5       	ldd	r27, Z+46	; 0x2e
    2c64:	88 0e       	add	r8, r24
    2c66:	99 1e       	adc	r9, r25
    2c68:	aa 1e       	adc	r10, r26
    2c6a:	bb 1e       	adc	r11, r27
    2c6c:	d3 01       	movw	r26, r6
    2c6e:	9f 96       	adiw	r26, 0x2f	; 47
    2c70:	8d 92       	st	X+, r8
    2c72:	9d 92       	st	X+, r9
    2c74:	ad 92       	st	X+, r10
    2c76:	bc 92       	st	X, r11
    2c78:	d2 97       	sbiw	r26, 0x32	; 50
    2c7a:	73 e3       	ldi	r23, 0x33	; 51
    2c7c:	27 2e       	mov	r2, r23
    2c7e:	31 2c       	mov	r3, r1
    2c80:	26 0c       	add	r2, r6
    2c82:	37 1c       	adc	r3, r7
    2c84:	80 e0       	ldi	r24, 0x00	; 0
    2c86:	92 e0       	ldi	r25, 0x02	; 2
    2c88:	f1 01       	movw	r30, r2
    2c8a:	9c 01       	movw	r18, r24
    2c8c:	11 92       	st	Z+, r1
    2c8e:	21 50       	subi	r18, 0x01	; 1
    2c90:	30 40       	sbci	r19, 0x00	; 0
    2c92:	e1 f7       	brne	.-8      	; 0x2c8c <dir_next+0x250>
    2c94:	1e 82       	std	Y+6, r1	; 0x06
    2c96:	1d 82       	std	Y+5, r1	; 0x05
    2c98:	05 c0       	rjmp	.+10     	; 0x2ca4 <dir_next+0x268>
    2c9a:	8d 81       	ldd	r24, Y+5	; 0x05
    2c9c:	9e 81       	ldd	r25, Y+6	; 0x06
    2c9e:	01 96       	adiw	r24, 0x01	; 1
    2ca0:	9e 83       	std	Y+6, r25	; 0x06
    2ca2:	8d 83       	std	Y+5, r24	; 0x05
    2ca4:	d3 01       	movw	r26, r6
    2ca6:	19 96       	adiw	r26, 0x09	; 9
    2ca8:	8d 91       	ld	r24, X+
    2caa:	9c 91       	ld	r25, X
    2cac:	1a 97       	sbiw	r26, 0x0a	; 10
    2cae:	ed 81       	ldd	r30, Y+5	; 0x05
    2cb0:	fe 81       	ldd	r31, Y+6	; 0x06
    2cb2:	e8 17       	cp	r30, r24
    2cb4:	f9 07       	cpc	r31, r25
    2cb6:	80 f4       	brcc	.+32     	; 0x2cd8 <dir_next+0x29c>
    2cb8:	9f 01       	movw	r18, r30
    2cba:	40 e0       	ldi	r20, 0x00	; 0
    2cbc:	50 e0       	ldi	r21, 0x00	; 0
    2cbe:	28 0d       	add	r18, r8
    2cc0:	39 1d       	adc	r19, r9
    2cc2:	4a 1d       	adc	r20, r10
    2cc4:	5b 1d       	adc	r21, r11
    2cc6:	11 96       	adiw	r26, 0x01	; 1
    2cc8:	8c 91       	ld	r24, X
    2cca:	b1 01       	movw	r22, r2
    2ccc:	01 e0       	ldi	r16, 0x01	; 1
    2cce:	10 e0       	ldi	r17, 0x00	; 0
    2cd0:	0e 94 56 0b 	call	0x16ac	; 0x16ac <disk_write>
    2cd4:	88 23       	and	r24, r24
    2cd6:	09 f3       	breq	.-62     	; 0x2c9a <dir_next+0x25e>
    2cd8:	d3 01       	movw	r26, r6
    2cda:	19 96       	adiw	r26, 0x09	; 9
    2cdc:	8d 91       	ld	r24, X+
    2cde:	9c 91       	ld	r25, X
    2ce0:	1a 97       	sbiw	r26, 0x0a	; 10
    2ce2:	ed 81       	ldd	r30, Y+5	; 0x05
    2ce4:	fe 81       	ldd	r31, Y+6	; 0x06
    2ce6:	e8 17       	cp	r30, r24
    2ce8:	f9 07       	cpc	r31, r25
    2cea:	09 f0       	breq	.+2      	; 0x2cee <dir_next+0x2b2>
    2cec:	55 c0       	rjmp	.+170    	; 0x2d98 <dir_next+0x35c>
    2cee:	d2 01       	movw	r26, r4
    2cf0:	52 96       	adiw	r26, 0x12	; 18
    2cf2:	cd 92       	st	X+, r12
    2cf4:	dd 92       	st	X+, r13
    2cf6:	ed 92       	st	X+, r14
    2cf8:	fc 92       	st	X, r15
    2cfa:	55 97       	sbiw	r26, 0x15	; 21
    2cfc:	8e ef       	ldi	r24, 0xFE	; 254
    2cfe:	9f ef       	ldi	r25, 0xFF	; 255
    2d00:	af ef       	ldi	r26, 0xFF	; 255
    2d02:	bf ef       	ldi	r27, 0xFF	; 255
    2d04:	8c 0d       	add	r24, r12
    2d06:	9d 1d       	adc	r25, r13
    2d08:	ae 1d       	adc	r26, r14
    2d0a:	bf 1d       	adc	r27, r15
    2d0c:	7c 01       	movw	r14, r24
    2d0e:	8d 01       	movw	r16, r26
    2d10:	f3 01       	movw	r30, r6
    2d12:	87 89       	ldd	r24, Z+23	; 0x17
    2d14:	90 8d       	ldd	r25, Z+24	; 0x18
    2d16:	a1 8d       	ldd	r26, Z+25	; 0x19
    2d18:	b2 8d       	ldd	r27, Z+26	; 0x1a
    2d1a:	02 97       	sbiw	r24, 0x02	; 2
    2d1c:	a1 09       	sbc	r26, r1
    2d1e:	b1 09       	sbc	r27, r1
    2d20:	e8 16       	cp	r14, r24
    2d22:	f9 06       	cpc	r15, r25
    2d24:	0a 07       	cpc	r16, r26
    2d26:	1b 07       	cpc	r17, r27
    2d28:	28 f0       	brcs	.+10     	; 0x2d34 <dir_next+0x2f8>
    2d2a:	20 e0       	ldi	r18, 0x00	; 0
    2d2c:	30 e0       	ldi	r19, 0x00	; 0
    2d2e:	40 e0       	ldi	r20, 0x00	; 0
    2d30:	50 e0       	ldi	r21, 0x00	; 0
    2d32:	16 c0       	rjmp	.+44     	; 0x2d60 <dir_next+0x324>
    2d34:	d3 01       	movw	r26, r6
    2d36:	19 96       	adiw	r26, 0x09	; 9
    2d38:	2d 91       	ld	r18, X+
    2d3a:	3c 91       	ld	r19, X
    2d3c:	1a 97       	sbiw	r26, 0x0a	; 10
    2d3e:	40 e0       	ldi	r20, 0x00	; 0
    2d40:	50 e0       	ldi	r21, 0x00	; 0
    2d42:	c8 01       	movw	r24, r16
    2d44:	b7 01       	movw	r22, r14
    2d46:	0e 94 71 2b 	call	0x56e2	; 0x56e2 <__mulsi3>
    2d4a:	9b 01       	movw	r18, r22
    2d4c:	ac 01       	movw	r20, r24
    2d4e:	f3 01       	movw	r30, r6
    2d50:	83 a5       	ldd	r24, Z+43	; 0x2b
    2d52:	94 a5       	ldd	r25, Z+44	; 0x2c
    2d54:	a5 a5       	ldd	r26, Z+45	; 0x2d
    2d56:	b6 a5       	ldd	r27, Z+46	; 0x2e
    2d58:	28 0f       	add	r18, r24
    2d5a:	39 1f       	adc	r19, r25
    2d5c:	4a 1f       	adc	r20, r26
    2d5e:	5b 1f       	adc	r21, r27
    2d60:	d2 01       	movw	r26, r4
    2d62:	56 96       	adiw	r26, 0x16	; 22
    2d64:	2d 93       	st	X+, r18
    2d66:	3d 93       	st	X+, r19
    2d68:	4d 93       	st	X+, r20
    2d6a:	5c 93       	st	X, r21
    2d6c:	59 97       	sbiw	r26, 0x19	; 25
    2d6e:	89 81       	ldd	r24, Y+1	; 0x01
    2d70:	9a 81       	ldd	r25, Y+2	; 0x02
    2d72:	ab 81       	ldd	r26, Y+3	; 0x03
    2d74:	bc 81       	ldd	r27, Y+4	; 0x04
    2d76:	f2 01       	movw	r30, r4
    2d78:	86 87       	std	Z+14, r24	; 0x0e
    2d7a:	97 87       	std	Z+15, r25	; 0x0f
    2d7c:	a0 8b       	std	Z+16, r26	; 0x10
    2d7e:	b1 8b       	std	Z+17, r27	; 0x11
    2d80:	89 81       	ldd	r24, Y+1	; 0x01
    2d82:	9a 81       	ldd	r25, Y+2	; 0x02
    2d84:	91 70       	andi	r25, 0x01	; 1
    2d86:	c3 96       	adiw	r24, 0x33	; 51
    2d88:	68 0e       	add	r6, r24
    2d8a:	79 1e       	adc	r7, r25
    2d8c:	73 8e       	std	Z+27, r7	; 0x1b
    2d8e:	62 8e       	std	Z+26, r6	; 0x1a
    2d90:	80 e0       	ldi	r24, 0x00	; 0
    2d92:	03 c0       	rjmp	.+6      	; 0x2d9a <dir_next+0x35e>
    2d94:	82 e0       	ldi	r24, 0x02	; 2
    2d96:	01 c0       	rjmp	.+2      	; 0x2d9a <dir_next+0x35e>
    2d98:	81 e0       	ldi	r24, 0x01	; 1
    2d9a:	26 96       	adiw	r28, 0x06	; 6
    2d9c:	0f b6       	in	r0, 0x3f	; 63
    2d9e:	f8 94       	cli
    2da0:	de bf       	out	0x3e, r29	; 62
    2da2:	0f be       	out	0x3f, r0	; 63
    2da4:	cd bf       	out	0x3d, r28	; 61
    2da6:	cf 91       	pop	r28
    2da8:	df 91       	pop	r29
    2daa:	1f 91       	pop	r17
    2dac:	0f 91       	pop	r16
    2dae:	ff 90       	pop	r15
    2db0:	ef 90       	pop	r14
    2db2:	df 90       	pop	r13
    2db4:	cf 90       	pop	r12
    2db6:	bf 90       	pop	r11
    2db8:	af 90       	pop	r10
    2dba:	9f 90       	pop	r9
    2dbc:	8f 90       	pop	r8
    2dbe:	7f 90       	pop	r7
    2dc0:	6f 90       	pop	r6
    2dc2:	5f 90       	pop	r5
    2dc4:	4f 90       	pop	r4
    2dc6:	3f 90       	pop	r3
    2dc8:	2f 90       	pop	r2
    2dca:	08 95       	ret

00002dcc <follow_path>:
    2dcc:	4f 92       	push	r4
    2dce:	5f 92       	push	r5
    2dd0:	6f 92       	push	r6
    2dd2:	7f 92       	push	r7
    2dd4:	8f 92       	push	r8
    2dd6:	9f 92       	push	r9
    2dd8:	af 92       	push	r10
    2dda:	bf 92       	push	r11
    2ddc:	cf 92       	push	r12
    2dde:	df 92       	push	r13
    2de0:	ef 92       	push	r14
    2de2:	ff 92       	push	r15
    2de4:	0f 93       	push	r16
    2de6:	1f 93       	push	r17
    2de8:	cf 93       	push	r28
    2dea:	df 93       	push	r29
    2dec:	ec 01       	movw	r28, r24
    2dee:	5b 01       	movw	r10, r22
    2df0:	68 80       	ld	r6, Y
    2df2:	79 80       	ldd	r7, Y+1	; 0x01
    2df4:	fb 01       	movw	r30, r22
    2df6:	80 81       	ld	r24, Z
    2df8:	8f 32       	cpi	r24, 0x2F	; 47
    2dfa:	79 f0       	breq	.+30     	; 0x2e1a <follow_path+0x4e>
    2dfc:	8c 35       	cpi	r24, 0x5C	; 92
    2dfe:	69 f0       	breq	.+26     	; 0x2e1a <follow_path+0x4e>
    2e00:	f3 01       	movw	r30, r6
    2e02:	83 89       	ldd	r24, Z+19	; 0x13
    2e04:	94 89       	ldd	r25, Z+20	; 0x14
    2e06:	a5 89       	ldd	r26, Z+21	; 0x15
    2e08:	b6 89       	ldd	r27, Z+22	; 0x16
    2e0a:	8e 83       	std	Y+6, r24	; 0x06
    2e0c:	9f 83       	std	Y+7, r25	; 0x07
    2e0e:	a8 87       	std	Y+8, r26	; 0x08
    2e10:	b9 87       	std	Y+9, r27	; 0x09
    2e12:	0d c0       	rjmp	.+26     	; 0x2e2e <follow_path+0x62>
    2e14:	08 94       	sec
    2e16:	a1 1c       	adc	r10, r1
    2e18:	b1 1c       	adc	r11, r1
    2e1a:	f5 01       	movw	r30, r10
    2e1c:	80 81       	ld	r24, Z
    2e1e:	8f 32       	cpi	r24, 0x2F	; 47
    2e20:	c9 f3       	breq	.-14     	; 0x2e14 <follow_path+0x48>
    2e22:	8c 35       	cpi	r24, 0x5C	; 92
    2e24:	b9 f3       	breq	.-18     	; 0x2e14 <follow_path+0x48>
    2e26:	1e 82       	std	Y+6, r1	; 0x06
    2e28:	1f 82       	std	Y+7, r1	; 0x07
    2e2a:	18 86       	std	Y+8, r1	; 0x08
    2e2c:	19 86       	std	Y+9, r1	; 0x09
    2e2e:	f5 01       	movw	r30, r10
    2e30:	80 81       	ld	r24, Z
    2e32:	80 32       	cpi	r24, 0x20	; 32
    2e34:	38 f0       	brcs	.+14     	; 0x2e44 <follow_path+0x78>
    2e36:	9c e1       	ldi	r25, 0x1C	; 28
    2e38:	49 2e       	mov	r4, r25
    2e3a:	51 2c       	mov	r5, r1
    2e3c:	4c 0e       	add	r4, r28
    2e3e:	5d 1e       	adc	r5, r29
    2e40:	05 e0       	ldi	r16, 0x05	; 5
    2e42:	0b c0       	rjmp	.+22     	; 0x2e5a <follow_path+0x8e>
    2e44:	80 e8       	ldi	r24, 0x80	; 128
    2e46:	8f a3       	std	Y+39, r24	; 0x27
    2e48:	ce 01       	movw	r24, r28
    2e4a:	40 e0       	ldi	r20, 0x00	; 0
    2e4c:	50 e0       	ldi	r21, 0x00	; 0
    2e4e:	60 e0       	ldi	r22, 0x00	; 0
    2e50:	70 e0       	ldi	r23, 0x00	; 0
    2e52:	0e 94 c2 11 	call	0x2384	; 0x2384 <dir_sdi>
    2e56:	18 2f       	mov	r17, r24
    2e58:	ea c0       	rjmp	.+468    	; 0x302e <follow_path+0x262>
    2e5a:	c2 01       	movw	r24, r4
    2e5c:	60 e2       	ldi	r22, 0x20	; 32
    2e5e:	70 e0       	ldi	r23, 0x00	; 0
    2e60:	4b e0       	ldi	r20, 0x0B	; 11
    2e62:	50 e0       	ldi	r21, 0x00	; 0
    2e64:	0e 94 dc 2b 	call	0x57b8	; 0x57b8 <memset>
    2e68:	f5 01       	movw	r30, r10
    2e6a:	80 81       	ld	r24, Z
    2e6c:	8e 32       	cpi	r24, 0x2E	; 46
    2e6e:	41 f0       	breq	.+16     	; 0x2e80 <follow_path+0xb4>
    2e70:	cc 24       	eor	r12, r12
    2e72:	dd 24       	eor	r13, r13
    2e74:	ee 24       	eor	r14, r14
    2e76:	ff 24       	eor	r15, r15
    2e78:	88 e0       	ldi	r24, 0x08	; 8
    2e7a:	88 2e       	mov	r8, r24
    2e7c:	91 2c       	mov	r9, r1
    2e7e:	29 c0       	rjmp	.+82     	; 0x2ed2 <follow_path+0x106>
    2e80:	de 01       	movw	r26, r28
    2e82:	80 e0       	ldi	r24, 0x00	; 0
    2e84:	90 e0       	ldi	r25, 0x00	; 0
    2e86:	f5 01       	movw	r30, r10
    2e88:	e8 0f       	add	r30, r24
    2e8a:	f9 1f       	adc	r31, r25
    2e8c:	e0 81       	ld	r30, Z
    2e8e:	01 96       	adiw	r24, 0x01	; 1
    2e90:	ee 32       	cpi	r30, 0x2E	; 46
    2e92:	49 f4       	brne	.+18     	; 0x2ea6 <follow_path+0xda>
    2e94:	11 96       	adiw	r26, 0x01	; 1
    2e96:	83 30       	cpi	r24, 0x03	; 3
    2e98:	91 05       	cpc	r25, r1
    2e9a:	09 f4       	brne	.+2      	; 0x2e9e <follow_path+0xd2>
    2e9c:	c5 c0       	rjmp	.+394    	; 0x3028 <follow_path+0x25c>
    2e9e:	5b 96       	adiw	r26, 0x1b	; 27
    2ea0:	ec 93       	st	X, r30
    2ea2:	5b 97       	sbiw	r26, 0x1b	; 27
    2ea4:	f0 cf       	rjmp	.-32     	; 0x2e86 <follow_path+0xba>
    2ea6:	ef 32       	cpi	r30, 0x2F	; 47
    2ea8:	29 f0       	breq	.+10     	; 0x2eb4 <follow_path+0xe8>
    2eaa:	ec 35       	cpi	r30, 0x5C	; 92
    2eac:	39 f0       	breq	.+14     	; 0x2ebc <follow_path+0xf0>
    2eae:	e1 32       	cpi	r30, 0x21	; 33
    2eb0:	08 f0       	brcs	.+2      	; 0x2eb4 <follow_path+0xe8>
    2eb2:	ba c0       	rjmp	.+372    	; 0x3028 <follow_path+0x25c>
    2eb4:	e1 32       	cpi	r30, 0x21	; 33
    2eb6:	10 f4       	brcc	.+4      	; 0x2ebc <follow_path+0xf0>
    2eb8:	24 e2       	ldi	r18, 0x24	; 36
    2eba:	01 c0       	rjmp	.+2      	; 0x2ebe <follow_path+0xf2>
    2ebc:	20 e2       	ldi	r18, 0x20	; 32
    2ebe:	a8 0e       	add	r10, r24
    2ec0:	b9 1e       	adc	r11, r25
    2ec2:	2f a3       	std	Y+39, r18	; 0x27
    2ec4:	c6 c0       	rjmp	.+396    	; 0x3052 <follow_path+0x286>
    2ec6:	18 e0       	ldi	r17, 0x08	; 8
    2ec8:	c1 2e       	mov	r12, r17
    2eca:	d1 2c       	mov	r13, r1
    2ecc:	bb e0       	ldi	r27, 0x0B	; 11
    2ece:	8b 2e       	mov	r8, r27
    2ed0:	91 2c       	mov	r9, r1
    2ed2:	f5 01       	movw	r30, r10
    2ed4:	ee 0d       	add	r30, r14
    2ed6:	ff 1d       	adc	r31, r15
    2ed8:	10 81       	ld	r17, Z
    2eda:	08 94       	sec
    2edc:	e1 1c       	adc	r14, r1
    2ede:	f1 1c       	adc	r15, r1
    2ee0:	11 32       	cpi	r17, 0x21	; 33
    2ee2:	08 f4       	brcc	.+2      	; 0x2ee6 <follow_path+0x11a>
    2ee4:	3f c0       	rjmp	.+126    	; 0x2f64 <follow_path+0x198>
    2ee6:	1f 32       	cpi	r17, 0x2F	; 47
    2ee8:	21 f4       	brne	.+8      	; 0x2ef2 <follow_path+0x126>
    2eea:	f5 01       	movw	r30, r10
    2eec:	ee 0d       	add	r30, r14
    2eee:	ff 1d       	adc	r31, r15
    2ef0:	07 c0       	rjmp	.+14     	; 0x2f00 <follow_path+0x134>
    2ef2:	1c 35       	cpi	r17, 0x5C	; 92
    2ef4:	59 f4       	brne	.+22     	; 0x2f0c <follow_path+0x140>
    2ef6:	f9 cf       	rjmp	.-14     	; 0x2eea <follow_path+0x11e>
    2ef8:	08 94       	sec
    2efa:	e1 1c       	adc	r14, r1
    2efc:	f1 1c       	adc	r15, r1
    2efe:	31 96       	adiw	r30, 0x01	; 1
    2f00:	80 81       	ld	r24, Z
    2f02:	8f 32       	cpi	r24, 0x2F	; 47
    2f04:	c9 f3       	breq	.-14     	; 0x2ef8 <follow_path+0x12c>
    2f06:	8c 35       	cpi	r24, 0x5C	; 92
    2f08:	b9 f3       	breq	.-18     	; 0x2ef8 <follow_path+0x12c>
    2f0a:	2c c0       	rjmp	.+88     	; 0x2f64 <follow_path+0x198>
    2f0c:	1e 32       	cpi	r17, 0x2E	; 46
    2f0e:	19 f0       	breq	.+6      	; 0x2f16 <follow_path+0x14a>
    2f10:	c8 14       	cp	r12, r8
    2f12:	d9 04       	cpc	r13, r9
    2f14:	40 f0       	brcs	.+16     	; 0x2f26 <follow_path+0x15a>
    2f16:	fb e0       	ldi	r31, 0x0B	; 11
    2f18:	8f 16       	cp	r8, r31
    2f1a:	91 04       	cpc	r9, r1
    2f1c:	09 f4       	brne	.+2      	; 0x2f20 <follow_path+0x154>
    2f1e:	84 c0       	rjmp	.+264    	; 0x3028 <follow_path+0x25c>
    2f20:	1e 32       	cpi	r17, 0x2E	; 46
    2f22:	89 f2       	breq	.-94     	; 0x2ec6 <follow_path+0xfa>
    2f24:	81 c0       	rjmp	.+258    	; 0x3028 <follow_path+0x25c>
    2f26:	17 ff       	sbrs	r17, 7
    2f28:	07 c0       	rjmp	.+14     	; 0x2f38 <follow_path+0x16c>
    2f2a:	e1 2f       	mov	r30, r17
    2f2c:	f0 e0       	ldi	r31, 0x00	; 0
    2f2e:	ef 77       	andi	r30, 0x7F	; 127
    2f30:	f0 70       	andi	r31, 0x00	; 0
    2f32:	e7 5b       	subi	r30, 0xB7	; 183
    2f34:	fe 4f       	sbci	r31, 0xFE	; 254
    2f36:	10 81       	ld	r17, Z
    2f38:	89 e6       	ldi	r24, 0x69	; 105
    2f3a:	90 e0       	ldi	r25, 0x00	; 0
    2f3c:	61 2f       	mov	r22, r17
    2f3e:	70 e0       	ldi	r23, 0x00	; 0
    2f40:	0e 94 e3 2b 	call	0x57c6	; 0x57c6 <strchr>
    2f44:	00 97       	sbiw	r24, 0x00	; 0
    2f46:	09 f0       	breq	.+2      	; 0x2f4a <follow_path+0x17e>
    2f48:	6f c0       	rjmp	.+222    	; 0x3028 <follow_path+0x25c>
    2f4a:	81 2f       	mov	r24, r17
    2f4c:	81 56       	subi	r24, 0x61	; 97
    2f4e:	8a 31       	cpi	r24, 0x1A	; 26
    2f50:	08 f4       	brcc	.+2      	; 0x2f54 <follow_path+0x188>
    2f52:	10 52       	subi	r17, 0x20	; 32
    2f54:	fe 01       	movw	r30, r28
    2f56:	ec 0d       	add	r30, r12
    2f58:	fd 1d       	adc	r31, r13
    2f5a:	14 8f       	std	Z+28, r17	; 0x1c
    2f5c:	08 94       	sec
    2f5e:	c1 1c       	adc	r12, r1
    2f60:	d1 1c       	adc	r13, r1
    2f62:	b7 cf       	rjmp	.-146    	; 0x2ed2 <follow_path+0x106>
    2f64:	cd 28       	or	r12, r13
    2f66:	09 f4       	brne	.+2      	; 0x2f6a <follow_path+0x19e>
    2f68:	5f c0       	rjmp	.+190    	; 0x3028 <follow_path+0x25c>
    2f6a:	8c 8d       	ldd	r24, Y+28	; 0x1c
    2f6c:	85 3e       	cpi	r24, 0xE5	; 229
    2f6e:	09 f4       	brne	.+2      	; 0x2f72 <follow_path+0x1a6>
    2f70:	0c 8f       	std	Y+28, r16	; 0x1c
    2f72:	ae 0c       	add	r10, r14
    2f74:	bf 1c       	adc	r11, r15
    2f76:	11 32       	cpi	r17, 0x21	; 33
    2f78:	30 f0       	brcs	.+12     	; 0x2f86 <follow_path+0x1ba>
    2f7a:	f5 01       	movw	r30, r10
    2f7c:	80 81       	ld	r24, Z
    2f7e:	81 32       	cpi	r24, 0x21	; 33
    2f80:	10 f0       	brcs	.+4      	; 0x2f86 <follow_path+0x1ba>
    2f82:	80 e0       	ldi	r24, 0x00	; 0
    2f84:	01 c0       	rjmp	.+2      	; 0x2f88 <follow_path+0x1bc>
    2f86:	84 e0       	ldi	r24, 0x04	; 4
    2f88:	8f a3       	std	Y+39, r24	; 0x27
    2f8a:	63 c0       	rjmp	.+198    	; 0x3052 <follow_path+0x286>
    2f8c:	4e 89       	ldd	r20, Y+22	; 0x16
    2f8e:	5f 89       	ldd	r21, Y+23	; 0x17
    2f90:	68 8d       	ldd	r22, Y+24	; 0x18
    2f92:	79 8d       	ldd	r23, Y+25	; 0x19
    2f94:	c7 01       	movw	r24, r14
    2f96:	0e 94 a1 0c 	call	0x1942	; 0x1942 <move_window>
    2f9a:	18 2f       	mov	r17, r24
    2f9c:	88 23       	and	r24, r24
    2f9e:	d9 f4       	brne	.+54     	; 0x2fd6 <follow_path+0x20a>
    2fa0:	ea 8d       	ldd	r30, Y+26	; 0x1a
    2fa2:	fb 8d       	ldd	r31, Y+27	; 0x1b
    2fa4:	80 81       	ld	r24, Z
    2fa6:	88 23       	and	r24, r24
    2fa8:	11 f4       	brne	.+4      	; 0x2fae <follow_path+0x1e2>
    2faa:	14 e0       	ldi	r17, 0x04	; 4
    2fac:	14 c0       	rjmp	.+40     	; 0x2fd6 <follow_path+0x20a>
    2fae:	83 85       	ldd	r24, Z+11	; 0x0b
    2fb0:	8f 73       	andi	r24, 0x3F	; 63
    2fb2:	8c 83       	std	Y+4, r24	; 0x04
    2fb4:	83 85       	ldd	r24, Z+11	; 0x0b
    2fb6:	83 fd       	sbrc	r24, 3
    2fb8:	08 c0       	rjmp	.+16     	; 0x2fca <follow_path+0x1fe>
    2fba:	cf 01       	movw	r24, r30
    2fbc:	b2 01       	movw	r22, r4
    2fbe:	4b e0       	ldi	r20, 0x0B	; 11
    2fc0:	50 e0       	ldi	r21, 0x00	; 0
    2fc2:	0e 94 c6 2b 	call	0x578c	; 0x578c <memcmp>
    2fc6:	00 97       	sbiw	r24, 0x00	; 0
    2fc8:	31 f0       	breq	.+12     	; 0x2fd6 <follow_path+0x20a>
    2fca:	ce 01       	movw	r24, r28
    2fcc:	60 e0       	ldi	r22, 0x00	; 0
    2fce:	70 e0       	ldi	r23, 0x00	; 0
    2fd0:	0e 94 1e 15 	call	0x2a3c	; 0x2a3c <dir_next>
    2fd4:	47 c0       	rjmp	.+142    	; 0x3064 <follow_path+0x298>
    2fd6:	8f a1       	ldd	r24, Y+39	; 0x27
    2fd8:	11 23       	and	r17, r17
    2fda:	91 f0       	breq	.+36     	; 0x3000 <follow_path+0x234>
    2fdc:	14 30       	cpi	r17, 0x04	; 4
    2fde:	39 f5       	brne	.+78     	; 0x302e <follow_path+0x262>
    2fe0:	90 e0       	ldi	r25, 0x00	; 0
    2fe2:	9c 01       	movw	r18, r24
    2fe4:	24 70       	andi	r18, 0x04	; 4
    2fe6:	30 70       	andi	r19, 0x00	; 0
    2fe8:	85 ff       	sbrs	r24, 5
    2fea:	07 c0       	rjmp	.+14     	; 0x2ffa <follow_path+0x22e>
    2fec:	23 2b       	or	r18, r19
    2fee:	09 f4       	brne	.+2      	; 0x2ff2 <follow_path+0x226>
    2ff0:	34 cf       	rjmp	.-408    	; 0x2e5a <follow_path+0x8e>
    2ff2:	80 e8       	ldi	r24, 0x80	; 128
    2ff4:	8f a3       	std	Y+39, r24	; 0x27
    2ff6:	10 e0       	ldi	r17, 0x00	; 0
    2ff8:	1a c0       	rjmp	.+52     	; 0x302e <follow_path+0x262>
    2ffa:	23 2b       	or	r18, r19
    2ffc:	b9 f0       	breq	.+46     	; 0x302c <follow_path+0x260>
    2ffe:	17 c0       	rjmp	.+46     	; 0x302e <follow_path+0x262>
    3000:	82 fd       	sbrc	r24, 2
    3002:	15 c0       	rjmp	.+42     	; 0x302e <follow_path+0x262>
    3004:	8c 81       	ldd	r24, Y+4	; 0x04
    3006:	84 ff       	sbrs	r24, 4
    3008:	11 c0       	rjmp	.+34     	; 0x302c <follow_path+0x260>
    300a:	6e 85       	ldd	r22, Y+14	; 0x0e
    300c:	7f 85       	ldd	r23, Y+15	; 0x0f
    300e:	71 70       	andi	r23, 0x01	; 1
    3010:	6d 5c       	subi	r22, 0xCD	; 205
    3012:	7f 4f       	sbci	r23, 0xFF	; 255
    3014:	66 0d       	add	r22, r6
    3016:	77 1d       	adc	r23, r7
    3018:	c3 01       	movw	r24, r6
    301a:	0e 94 c5 0b 	call	0x178a	; 0x178a <ld_clust>
    301e:	6e 83       	std	Y+6, r22	; 0x06
    3020:	7f 83       	std	Y+7, r23	; 0x07
    3022:	88 87       	std	Y+8, r24	; 0x08
    3024:	99 87       	std	Y+9, r25	; 0x09
    3026:	19 cf       	rjmp	.-462    	; 0x2e5a <follow_path+0x8e>
    3028:	16 e0       	ldi	r17, 0x06	; 6
    302a:	01 c0       	rjmp	.+2      	; 0x302e <follow_path+0x262>
    302c:	15 e0       	ldi	r17, 0x05	; 5
    302e:	81 2f       	mov	r24, r17
    3030:	df 91       	pop	r29
    3032:	cf 91       	pop	r28
    3034:	1f 91       	pop	r17
    3036:	0f 91       	pop	r16
    3038:	ff 90       	pop	r15
    303a:	ef 90       	pop	r14
    303c:	df 90       	pop	r13
    303e:	cf 90       	pop	r12
    3040:	bf 90       	pop	r11
    3042:	af 90       	pop	r10
    3044:	9f 90       	pop	r9
    3046:	8f 90       	pop	r8
    3048:	7f 90       	pop	r7
    304a:	6f 90       	pop	r6
    304c:	5f 90       	pop	r5
    304e:	4f 90       	pop	r4
    3050:	08 95       	ret
    3052:	e8 80       	ld	r14, Y
    3054:	f9 80       	ldd	r15, Y+1	; 0x01
    3056:	ce 01       	movw	r24, r28
    3058:	40 e0       	ldi	r20, 0x00	; 0
    305a:	50 e0       	ldi	r21, 0x00	; 0
    305c:	60 e0       	ldi	r22, 0x00	; 0
    305e:	70 e0       	ldi	r23, 0x00	; 0
    3060:	0e 94 c2 11 	call	0x2384	; 0x2384 <dir_sdi>
    3064:	18 2f       	mov	r17, r24
    3066:	88 23       	and	r24, r24
    3068:	09 f4       	brne	.+2      	; 0x306c <follow_path+0x2a0>
    306a:	90 cf       	rjmp	.-224    	; 0x2f8c <follow_path+0x1c0>
    306c:	b4 cf       	rjmp	.-152    	; 0x2fd6 <follow_path+0x20a>

0000306e <f_stat>:
    306e:	df 92       	push	r13
    3070:	ef 92       	push	r14
    3072:	ff 92       	push	r15
    3074:	0f 93       	push	r16
    3076:	1f 93       	push	r17
    3078:	df 93       	push	r29
    307a:	cf 93       	push	r28
    307c:	cd b7       	in	r28, 0x3d	; 61
    307e:	de b7       	in	r29, 0x3e	; 62
    3080:	aa 97       	sbiw	r28, 0x2a	; 42
    3082:	0f b6       	in	r0, 0x3f	; 63
    3084:	f8 94       	cli
    3086:	de bf       	out	0x3e, r29	; 62
    3088:	0f be       	out	0x3f, r0	; 63
    308a:	cd bf       	out	0x3d, r28	; 61
    308c:	9a a7       	std	Y+42, r25	; 0x2a
    308e:	89 a7       	std	Y+41, r24	; 0x29
    3090:	7b 01       	movw	r14, r22
    3092:	ce 01       	movw	r24, r28
    3094:	89 96       	adiw	r24, 0x29	; 41
    3096:	8e 01       	movw	r16, r28
    3098:	0f 5f       	subi	r16, 0xFF	; 255
    309a:	1f 4f       	sbci	r17, 0xFF	; 255
    309c:	b8 01       	movw	r22, r16
    309e:	40 e0       	ldi	r20, 0x00	; 0
    30a0:	0e 94 9d 0d 	call	0x1b3a	; 0x1b3a <mount_volume>
    30a4:	d8 2e       	mov	r13, r24
    30a6:	88 23       	and	r24, r24
    30a8:	09 f0       	breq	.+2      	; 0x30ac <f_stat+0x3e>
    30aa:	66 c0       	rjmp	.+204    	; 0x3178 <f_stat+0x10a>
    30ac:	69 a5       	ldd	r22, Y+41	; 0x29
    30ae:	7a a5       	ldd	r23, Y+42	; 0x2a
    30b0:	c8 01       	movw	r24, r16
    30b2:	0e 94 e6 16 	call	0x2dcc	; 0x2dcc <follow_path>
    30b6:	d8 2e       	mov	r13, r24
    30b8:	88 23       	and	r24, r24
    30ba:	09 f0       	breq	.+2      	; 0x30be <f_stat+0x50>
    30bc:	5d c0       	rjmp	.+186    	; 0x3178 <f_stat+0x10a>
    30be:	88 a5       	ldd	r24, Y+40	; 0x28
    30c0:	87 ff       	sbrs	r24, 7
    30c2:	03 c0       	rjmp	.+6      	; 0x30ca <f_stat+0x5c>
    30c4:	26 e0       	ldi	r18, 0x06	; 6
    30c6:	d2 2e       	mov	r13, r18
    30c8:	57 c0       	rjmp	.+174    	; 0x3178 <f_stat+0x10a>
    30ca:	e1 14       	cp	r14, r1
    30cc:	f1 04       	cpc	r15, r1
    30ce:	09 f4       	brne	.+2      	; 0x30d2 <f_stat+0x64>
    30d0:	53 c0       	rjmp	.+166    	; 0x3178 <f_stat+0x10a>
    30d2:	f7 01       	movw	r30, r14
    30d4:	11 86       	std	Z+9, r1	; 0x09
    30d6:	8f 89       	ldd	r24, Y+23	; 0x17
    30d8:	98 8d       	ldd	r25, Y+24	; 0x18
    30da:	a9 8d       	ldd	r26, Y+25	; 0x19
    30dc:	ba 8d       	ldd	r27, Y+26	; 0x1a
    30de:	00 97       	sbiw	r24, 0x00	; 0
    30e0:	a1 05       	cpc	r26, r1
    30e2:	b1 05       	cpc	r27, r1
    30e4:	09 f4       	brne	.+2      	; 0x30e8 <f_stat+0x7a>
    30e6:	48 c0       	rjmp	.+144    	; 0x3178 <f_stat+0x10a>
    30e8:	80 e0       	ldi	r24, 0x00	; 0
    30ea:	90 e0       	ldi	r25, 0x00	; 0
    30ec:	a0 e0       	ldi	r26, 0x00	; 0
    30ee:	b0 e0       	ldi	r27, 0x00	; 0
    30f0:	3e e2       	ldi	r19, 0x2E	; 46
    30f2:	eb 8d       	ldd	r30, Y+27	; 0x1b
    30f4:	fc 8d       	ldd	r31, Y+28	; 0x1c
    30f6:	e8 0f       	add	r30, r24
    30f8:	f9 1f       	adc	r31, r25
    30fa:	20 81       	ld	r18, Z
    30fc:	01 96       	adiw	r24, 0x01	; 1
    30fe:	20 32       	cpi	r18, 0x20	; 32
    3100:	81 f0       	breq	.+32     	; 0x3122 <f_stat+0xb4>
    3102:	25 30       	cpi	r18, 0x05	; 5
    3104:	09 f4       	brne	.+2      	; 0x3108 <f_stat+0x9a>
    3106:	25 ee       	ldi	r18, 0xE5	; 229
    3108:	89 30       	cpi	r24, 0x09	; 9
    310a:	91 05       	cpc	r25, r1
    310c:	29 f4       	brne	.+10     	; 0x3118 <f_stat+0xaa>
    310e:	f7 01       	movw	r30, r14
    3110:	ea 0f       	add	r30, r26
    3112:	fb 1f       	adc	r31, r27
    3114:	31 87       	std	Z+9, r19	; 0x09
    3116:	11 96       	adiw	r26, 0x01	; 1
    3118:	f7 01       	movw	r30, r14
    311a:	ea 0f       	add	r30, r26
    311c:	fb 1f       	adc	r31, r27
    311e:	21 87       	std	Z+9, r18	; 0x09
    3120:	11 96       	adiw	r26, 0x01	; 1
    3122:	8b 30       	cpi	r24, 0x0B	; 11
    3124:	91 05       	cpc	r25, r1
    3126:	29 f7       	brne	.-54     	; 0x30f2 <f_stat+0x84>
    3128:	ae 0d       	add	r26, r14
    312a:	bf 1d       	adc	r27, r15
    312c:	19 96       	adiw	r26, 0x09	; 9
    312e:	1c 92       	st	X, r1
    3130:	0b 8d       	ldd	r16, Y+27	; 0x1b
    3132:	1c 8d       	ldd	r17, Y+28	; 0x1c
    3134:	f8 01       	movw	r30, r16
    3136:	83 85       	ldd	r24, Z+11	; 0x0b
    3138:	8f 73       	andi	r24, 0x3F	; 63
    313a:	f7 01       	movw	r30, r14
    313c:	80 87       	std	Z+8, r24	; 0x08
    313e:	c8 01       	movw	r24, r16
    3140:	4c 96       	adiw	r24, 0x1c	; 28
    3142:	0e 94 82 0b 	call	0x1704	; 0x1704 <ld_dword>
    3146:	f7 01       	movw	r30, r14
    3148:	60 83       	st	Z, r22
    314a:	71 83       	std	Z+1, r23	; 0x01
    314c:	82 83       	std	Z+2, r24	; 0x02
    314e:	93 83       	std	Z+3, r25	; 0x03
    3150:	f8 01       	movw	r30, r16
    3152:	97 89       	ldd	r25, Z+23	; 0x17
    3154:	80 e0       	ldi	r24, 0x00	; 0
    3156:	26 89       	ldd	r18, Z+22	; 0x16
    3158:	30 e0       	ldi	r19, 0x00	; 0
    315a:	82 2b       	or	r24, r18
    315c:	93 2b       	or	r25, r19
    315e:	f7 01       	movw	r30, r14
    3160:	97 83       	std	Z+7, r25	; 0x07
    3162:	86 83       	std	Z+6, r24	; 0x06
    3164:	f8 01       	movw	r30, r16
    3166:	91 8d       	ldd	r25, Z+25	; 0x19
    3168:	80 e0       	ldi	r24, 0x00	; 0
    316a:	20 8d       	ldd	r18, Z+24	; 0x18
    316c:	30 e0       	ldi	r19, 0x00	; 0
    316e:	82 2b       	or	r24, r18
    3170:	93 2b       	or	r25, r19
    3172:	f7 01       	movw	r30, r14
    3174:	95 83       	std	Z+5, r25	; 0x05
    3176:	84 83       	std	Z+4, r24	; 0x04
    3178:	8d 2d       	mov	r24, r13
    317a:	aa 96       	adiw	r28, 0x2a	; 42
    317c:	0f b6       	in	r0, 0x3f	; 63
    317e:	f8 94       	cli
    3180:	de bf       	out	0x3e, r29	; 62
    3182:	0f be       	out	0x3f, r0	; 63
    3184:	cd bf       	out	0x3d, r28	; 61
    3186:	cf 91       	pop	r28
    3188:	df 91       	pop	r29
    318a:	1f 91       	pop	r17
    318c:	0f 91       	pop	r16
    318e:	ff 90       	pop	r15
    3190:	ef 90       	pop	r14
    3192:	df 90       	pop	r13
    3194:	08 95       	ret

00003196 <f_sync>:
    3196:	6f 92       	push	r6
    3198:	7f 92       	push	r7
    319a:	8f 92       	push	r8
    319c:	9f 92       	push	r9
    319e:	bf 92       	push	r11
    31a0:	cf 92       	push	r12
    31a2:	df 92       	push	r13
    31a4:	ef 92       	push	r14
    31a6:	ff 92       	push	r15
    31a8:	0f 93       	push	r16
    31aa:	1f 93       	push	r17
    31ac:	df 93       	push	r29
    31ae:	cf 93       	push	r28
    31b0:	00 d0       	rcall	.+0      	; 0x31b2 <f_sync+0x1c>
    31b2:	cd b7       	in	r28, 0x3d	; 61
    31b4:	de b7       	in	r29, 0x3e	; 62
    31b6:	6c 01       	movw	r12, r24
    31b8:	be 01       	movw	r22, r28
    31ba:	6f 5f       	subi	r22, 0xFF	; 255
    31bc:	7f 4f       	sbci	r23, 0xFF	; 255
    31be:	0e 94 20 0c 	call	0x1840	; 0x1840 <validate>
    31c2:	b8 2e       	mov	r11, r24
    31c4:	88 23       	and	r24, r24
    31c6:	09 f0       	breq	.+2      	; 0x31ca <f_sync+0x34>
    31c8:	ca c0       	rjmp	.+404    	; 0x335e <f_sync+0x1c8>
    31ca:	d6 01       	movw	r26, r12
    31cc:	1e 96       	adiw	r26, 0x0e	; 14
    31ce:	8c 91       	ld	r24, X
    31d0:	86 ff       	sbrs	r24, 6
    31d2:	c5 c0       	rjmp	.+394    	; 0x335e <f_sync+0x1c8>
    31d4:	0e 94 45 20 	call	0x408a	; 0x408a <get_fattime>
    31d8:	3b 01       	movw	r6, r22
    31da:	4c 01       	movw	r8, r24
    31dc:	f6 01       	movw	r30, r12
    31de:	44 8d       	ldd	r20, Z+28	; 0x1c
    31e0:	55 8d       	ldd	r21, Z+29	; 0x1d
    31e2:	66 8d       	ldd	r22, Z+30	; 0x1e
    31e4:	77 8d       	ldd	r23, Z+31	; 0x1f
    31e6:	89 81       	ldd	r24, Y+1	; 0x01
    31e8:	9a 81       	ldd	r25, Y+2	; 0x02
    31ea:	0e 94 a1 0c 	call	0x1942	; 0x1942 <move_window>
    31ee:	b8 2e       	mov	r11, r24
    31f0:	88 23       	and	r24, r24
    31f2:	09 f0       	breq	.+2      	; 0x31f6 <f_sync+0x60>
    31f4:	b4 c0       	rjmp	.+360    	; 0x335e <f_sync+0x1c8>
    31f6:	d6 01       	movw	r26, r12
    31f8:	90 96       	adiw	r26, 0x20	; 32
    31fa:	0d 91       	ld	r16, X+
    31fc:	1c 91       	ld	r17, X
    31fe:	91 97       	sbiw	r26, 0x21	; 33
    3200:	f8 01       	movw	r30, r16
    3202:	83 85       	ldd	r24, Z+11	; 0x0b
    3204:	80 62       	ori	r24, 0x20	; 32
    3206:	83 87       	std	Z+11, r24	; 0x0b
    3208:	ed 91       	ld	r30, X+
    320a:	fc 91       	ld	r31, X
    320c:	11 97       	sbiw	r26, 0x01	; 1
    320e:	16 96       	adiw	r26, 0x06	; 6
    3210:	2d 91       	ld	r18, X+
    3212:	3d 91       	ld	r19, X+
    3214:	4d 91       	ld	r20, X+
    3216:	5c 91       	ld	r21, X
    3218:	19 97       	sbiw	r26, 0x09	; 9
    321a:	d8 01       	movw	r26, r16
    321c:	5a 96       	adiw	r26, 0x1a	; 26
    321e:	2c 93       	st	X, r18
    3220:	5a 97       	sbiw	r26, 0x1a	; 26
    3222:	5b 96       	adiw	r26, 0x1b	; 27
    3224:	3c 93       	st	X, r19
    3226:	80 81       	ld	r24, Z
    3228:	83 30       	cpi	r24, 0x03	; 3
    322a:	31 f4       	brne	.+12     	; 0x3238 <f_sync+0xa2>
    322c:	ca 01       	movw	r24, r20
    322e:	aa 27       	eor	r26, r26
    3230:	bb 27       	eor	r27, r27
    3232:	f8 01       	movw	r30, r16
    3234:	84 8b       	std	Z+20, r24	; 0x14
    3236:	95 8b       	std	Z+21, r25	; 0x15
    3238:	d6 01       	movw	r26, r12
    323a:	1a 96       	adiw	r26, 0x0a	; 10
    323c:	4d 91       	ld	r20, X+
    323e:	5d 91       	ld	r21, X+
    3240:	6d 91       	ld	r22, X+
    3242:	7c 91       	ld	r23, X
    3244:	1d 97       	sbiw	r26, 0x0d	; 13
    3246:	c8 01       	movw	r24, r16
    3248:	4c 96       	adiw	r24, 0x1c	; 28
    324a:	0e 94 ae 0b 	call	0x175c	; 0x175c <st_dword>
    324e:	c8 01       	movw	r24, r16
    3250:	46 96       	adiw	r24, 0x16	; 22
    3252:	b4 01       	movw	r22, r8
    3254:	a3 01       	movw	r20, r6
    3256:	0e 94 ae 0b 	call	0x175c	; 0x175c <st_dword>
    325a:	f8 01       	movw	r30, r16
    325c:	12 8a       	std	Z+18, r1	; 0x12
    325e:	13 8a       	std	Z+19, r1	; 0x13
    3260:	e9 80       	ldd	r14, Y+1	; 0x01
    3262:	fa 80       	ldd	r15, Y+2	; 0x02
    3264:	81 e0       	ldi	r24, 0x01	; 1
    3266:	d7 01       	movw	r26, r14
    3268:	13 96       	adiw	r26, 0x03	; 3
    326a:	8c 93       	st	X, r24
    326c:	c7 01       	movw	r24, r14
    326e:	0e 94 4b 0c 	call	0x1896	; 0x1896 <sync_window>
    3272:	b8 2e       	mov	r11, r24
    3274:	88 23       	and	r24, r24
    3276:	09 f0       	breq	.+2      	; 0x327a <f_sync+0xe4>
    3278:	6b c0       	rjmp	.+214    	; 0x3350 <f_sync+0x1ba>
    327a:	f7 01       	movw	r30, r14
    327c:	80 81       	ld	r24, Z
    327e:	83 30       	cpi	r24, 0x03	; 3
    3280:	09 f0       	breq	.+2      	; 0x3284 <f_sync+0xee>
    3282:	5b c0       	rjmp	.+182    	; 0x333a <f_sync+0x1a4>
    3284:	84 81       	ldd	r24, Z+4	; 0x04
    3286:	81 30       	cpi	r24, 0x01	; 1
    3288:	09 f0       	breq	.+2      	; 0x328c <f_sync+0xf6>
    328a:	57 c0       	rjmp	.+174    	; 0x333a <f_sync+0x1a4>
    328c:	87 01       	movw	r16, r14
    328e:	0d 5c       	subi	r16, 0xCD	; 205
    3290:	1f 4f       	sbci	r17, 0xFF	; 255
    3292:	80 e0       	ldi	r24, 0x00	; 0
    3294:	92 e0       	ldi	r25, 0x02	; 2
    3296:	d8 01       	movw	r26, r16
    3298:	fc 01       	movw	r30, r24
    329a:	1d 92       	st	X+, r1
    329c:	31 97       	sbiw	r30, 0x01	; 1
    329e:	e9 f7       	brne	.-6      	; 0x329a <f_sync+0x104>
    32a0:	21 e3       	ldi	r18, 0x31	; 49
    32a2:	32 e0       	ldi	r19, 0x02	; 2
    32a4:	e2 0e       	add	r14, r18
    32a6:	f3 1e       	adc	r15, r19
    32a8:	85 e5       	ldi	r24, 0x55	; 85
    32aa:	d7 01       	movw	r26, r14
    32ac:	8d 93       	st	X+, r24
    32ae:	7d 01       	movw	r14, r26
    32b0:	8a ea       	ldi	r24, 0xAA	; 170
    32b2:	8c 93       	st	X, r24
    32b4:	ee ec       	ldi	r30, 0xCE	; 206
    32b6:	fd ef       	ldi	r31, 0xFD	; 253
    32b8:	ee 0e       	add	r14, r30
    32ba:	ff 1e       	adc	r15, r31
    32bc:	c8 01       	movw	r24, r16
    32be:	42 e5       	ldi	r20, 0x52	; 82
    32c0:	52 e5       	ldi	r21, 0x52	; 82
    32c2:	61 e6       	ldi	r22, 0x61	; 97
    32c4:	71 e4       	ldi	r23, 0x41	; 65
    32c6:	0e 94 ae 0b 	call	0x175c	; 0x175c <st_dword>
    32ca:	c7 01       	movw	r24, r14
    32cc:	89 5e       	subi	r24, 0xE9	; 233
    32ce:	9d 4f       	sbci	r25, 0xFD	; 253
    32d0:	42 e7       	ldi	r20, 0x72	; 114
    32d2:	52 e7       	ldi	r21, 0x72	; 114
    32d4:	61 e4       	ldi	r22, 0x41	; 65
    32d6:	71 e6       	ldi	r23, 0x61	; 97
    32d8:	0e 94 ae 0b 	call	0x175c	; 0x175c <st_dword>
    32dc:	d7 01       	movw	r26, r14
    32de:	1f 96       	adiw	r26, 0x0f	; 15
    32e0:	4d 91       	ld	r20, X+
    32e2:	5d 91       	ld	r21, X+
    32e4:	6d 91       	ld	r22, X+
    32e6:	7c 91       	ld	r23, X
    32e8:	52 97       	sbiw	r26, 0x12	; 18
    32ea:	c7 01       	movw	r24, r14
    32ec:	85 5e       	subi	r24, 0xE5	; 229
    32ee:	9d 4f       	sbci	r25, 0xFD	; 253
    32f0:	0e 94 ae 0b 	call	0x175c	; 0x175c <st_dword>
    32f4:	f7 01       	movw	r30, r14
    32f6:	43 85       	ldd	r20, Z+11	; 0x0b
    32f8:	54 85       	ldd	r21, Z+12	; 0x0c
    32fa:	65 85       	ldd	r22, Z+13	; 0x0d
    32fc:	76 85       	ldd	r23, Z+14	; 0x0e
    32fe:	c7 01       	movw	r24, r14
    3300:	81 5e       	subi	r24, 0xE1	; 225
    3302:	9d 4f       	sbci	r25, 0xFD	; 253
    3304:	0e 94 ae 0b 	call	0x175c	; 0x175c <st_dword>
    3308:	d7 01       	movw	r26, r14
    330a:	5f 96       	adiw	r26, 0x1f	; 31
    330c:	2d 91       	ld	r18, X+
    330e:	3d 91       	ld	r19, X+
    3310:	4d 91       	ld	r20, X+
    3312:	5c 91       	ld	r21, X
    3314:	92 97       	sbiw	r26, 0x22	; 34
    3316:	2f 5f       	subi	r18, 0xFF	; 255
    3318:	3f 4f       	sbci	r19, 0xFF	; 255
    331a:	4f 4f       	sbci	r20, 0xFF	; 255
    331c:	5f 4f       	sbci	r21, 0xFF	; 255
    331e:	f7 01       	movw	r30, r14
    3320:	27 a7       	std	Z+47, r18	; 0x2f
    3322:	30 ab       	std	Z+48, r19	; 0x30
    3324:	41 ab       	std	Z+49, r20	; 0x31
    3326:	52 ab       	std	Z+50, r21	; 0x32
    3328:	81 81       	ldd	r24, Z+1	; 0x01
    332a:	b8 01       	movw	r22, r16
    332c:	01 e0       	ldi	r16, 0x01	; 1
    332e:	10 e0       	ldi	r17, 0x00	; 0
    3330:	0e 94 56 0b 	call	0x16ac	; 0x16ac <disk_write>
    3334:	d7 01       	movw	r26, r14
    3336:	14 96       	adiw	r26, 0x04	; 4
    3338:	1c 92       	st	X, r1
    333a:	f7 01       	movw	r30, r14
    333c:	81 81       	ldd	r24, Z+1	; 0x01
    333e:	60 e0       	ldi	r22, 0x00	; 0
    3340:	40 e0       	ldi	r20, 0x00	; 0
    3342:	50 e0       	ldi	r21, 0x00	; 0
    3344:	0e 94 4d 0b 	call	0x169a	; 0x169a <disk_ioctl>
    3348:	88 23       	and	r24, r24
    334a:	11 f0       	breq	.+4      	; 0x3350 <f_sync+0x1ba>
    334c:	bb 24       	eor	r11, r11
    334e:	b3 94       	inc	r11
    3350:	d6 01       	movw	r26, r12
    3352:	1e 96       	adiw	r26, 0x0e	; 14
    3354:	8c 91       	ld	r24, X
    3356:	1e 97       	sbiw	r26, 0x0e	; 14
    3358:	8f 7b       	andi	r24, 0xBF	; 191
    335a:	1e 96       	adiw	r26, 0x0e	; 14
    335c:	8c 93       	st	X, r24
    335e:	8b 2d       	mov	r24, r11
    3360:	0f 90       	pop	r0
    3362:	0f 90       	pop	r0
    3364:	cf 91       	pop	r28
    3366:	df 91       	pop	r29
    3368:	1f 91       	pop	r17
    336a:	0f 91       	pop	r16
    336c:	ff 90       	pop	r15
    336e:	ef 90       	pop	r14
    3370:	df 90       	pop	r13
    3372:	cf 90       	pop	r12
    3374:	bf 90       	pop	r11
    3376:	9f 90       	pop	r9
    3378:	8f 90       	pop	r8
    337a:	7f 90       	pop	r7
    337c:	6f 90       	pop	r6
    337e:	08 95       	ret

00003380 <f_close>:
    3380:	0f 93       	push	r16
    3382:	1f 93       	push	r17
    3384:	df 93       	push	r29
    3386:	cf 93       	push	r28
    3388:	00 d0       	rcall	.+0      	; 0x338a <f_close+0xa>
    338a:	cd b7       	in	r28, 0x3d	; 61
    338c:	de b7       	in	r29, 0x3e	; 62
    338e:	8c 01       	movw	r16, r24
    3390:	0e 94 cb 18 	call	0x3196	; 0x3196 <f_sync>
    3394:	88 23       	and	r24, r24
    3396:	59 f4       	brne	.+22     	; 0x33ae <f_close+0x2e>
    3398:	c8 01       	movw	r24, r16
    339a:	be 01       	movw	r22, r28
    339c:	6f 5f       	subi	r22, 0xFF	; 255
    339e:	7f 4f       	sbci	r23, 0xFF	; 255
    33a0:	0e 94 20 0c 	call	0x1840	; 0x1840 <validate>
    33a4:	88 23       	and	r24, r24
    33a6:	19 f4       	brne	.+6      	; 0x33ae <f_close+0x2e>
    33a8:	f8 01       	movw	r30, r16
    33aa:	11 82       	std	Z+1, r1	; 0x01
    33ac:	10 82       	st	Z, r1
    33ae:	0f 90       	pop	r0
    33b0:	0f 90       	pop	r0
    33b2:	cf 91       	pop	r28
    33b4:	df 91       	pop	r29
    33b6:	1f 91       	pop	r17
    33b8:	0f 91       	pop	r16
    33ba:	08 95       	ret

000033bc <f_write>:
    33bc:	2f 92       	push	r2
    33be:	3f 92       	push	r3
    33c0:	4f 92       	push	r4
    33c2:	5f 92       	push	r5
    33c4:	6f 92       	push	r6
    33c6:	7f 92       	push	r7
    33c8:	8f 92       	push	r8
    33ca:	9f 92       	push	r9
    33cc:	af 92       	push	r10
    33ce:	bf 92       	push	r11
    33d0:	cf 92       	push	r12
    33d2:	df 92       	push	r13
    33d4:	ef 92       	push	r14
    33d6:	ff 92       	push	r15
    33d8:	0f 93       	push	r16
    33da:	1f 93       	push	r17
    33dc:	df 93       	push	r29
    33de:	cf 93       	push	r28
    33e0:	cd b7       	in	r28, 0x3d	; 61
    33e2:	de b7       	in	r29, 0x3e	; 62
    33e4:	29 97       	sbiw	r28, 0x09	; 9
    33e6:	0f b6       	in	r0, 0x3f	; 63
    33e8:	f8 94       	cli
    33ea:	de bf       	out	0x3e, r29	; 62
    33ec:	0f be       	out	0x3f, r0	; 63
    33ee:	cd bf       	out	0x3d, r28	; 61
    33f0:	5c 01       	movw	r10, r24
    33f2:	16 2f       	mov	r17, r22
    33f4:	07 2f       	mov	r16, r23
    33f6:	1a 01       	movw	r2, r20
    33f8:	3f 83       	std	Y+7, r19	; 0x07
    33fa:	2e 83       	std	Y+6, r18	; 0x06
    33fc:	d9 01       	movw	r26, r18
    33fe:	1d 92       	st	X+, r1
    3400:	1c 92       	st	X, r1
    3402:	88 87       	std	Y+8, r24	; 0x08
    3404:	b9 86       	std	Y+9, r11	; 0x09
    3406:	be 01       	movw	r22, r28
    3408:	6f 5f       	subi	r22, 0xFF	; 255
    340a:	7f 4f       	sbci	r23, 0xFF	; 255
    340c:	0e 94 20 0c 	call	0x1840	; 0x1840 <validate>
    3410:	8d 83       	std	Y+5, r24	; 0x05
    3412:	88 23       	and	r24, r24
    3414:	09 f0       	breq	.+2      	; 0x3418 <f_write+0x5c>
    3416:	cf c1       	rjmp	.+926    	; 0x37b6 <f_write+0x3fa>
    3418:	f5 01       	movw	r30, r10
    341a:	f7 85       	ldd	r31, Z+15	; 0x0f
    341c:	fd 83       	std	Y+5, r31	; 0x05
    341e:	ff 23       	and	r31, r31
    3420:	09 f0       	breq	.+2      	; 0x3424 <f_write+0x68>
    3422:	c9 c1       	rjmp	.+914    	; 0x37b6 <f_write+0x3fa>
    3424:	d5 01       	movw	r26, r10
    3426:	1e 96       	adiw	r26, 0x0e	; 14
    3428:	8c 91       	ld	r24, X
    342a:	81 fd       	sbrc	r24, 1
    342c:	03 c0       	rjmp	.+6      	; 0x3434 <f_write+0x78>
    342e:	b7 e0       	ldi	r27, 0x07	; 7
    3430:	bd 83       	std	Y+5, r27	; 0x05
    3432:	c1 c1       	rjmp	.+898    	; 0x37b6 <f_write+0x3fa>
    3434:	f5 01       	movw	r30, r10
    3436:	20 89       	ldd	r18, Z+16	; 0x10
    3438:	31 89       	ldd	r19, Z+17	; 0x11
    343a:	42 89       	ldd	r20, Z+18	; 0x12
    343c:	53 89       	ldd	r21, Z+19	; 0x13
    343e:	c1 01       	movw	r24, r2
    3440:	a0 e0       	ldi	r26, 0x00	; 0
    3442:	b0 e0       	ldi	r27, 0x00	; 0
    3444:	82 0f       	add	r24, r18
    3446:	93 1f       	adc	r25, r19
    3448:	a4 1f       	adc	r26, r20
    344a:	b5 1f       	adc	r27, r21
    344c:	82 17       	cp	r24, r18
    344e:	93 07       	cpc	r25, r19
    3450:	a4 07       	cpc	r26, r20
    3452:	b5 07       	cpc	r27, r21
    3454:	18 f4       	brcc	.+6      	; 0x345c <f_write+0xa0>
    3456:	19 01       	movw	r2, r18
    3458:	20 94       	com	r2
    345a:	30 94       	com	r3
    345c:	81 2f       	mov	r24, r17
    345e:	90 2f       	mov	r25, r16
    3460:	9c 01       	movw	r18, r24
    3462:	3c 83       	std	Y+4, r19	; 0x04
    3464:	2b 83       	std	Y+3, r18	; 0x03
    3466:	9c c1       	rjmp	.+824    	; 0x37a0 <f_write+0x3e4>
    3468:	d5 01       	movw	r26, r10
    346a:	50 96       	adiw	r26, 0x10	; 16
    346c:	2d 91       	ld	r18, X+
    346e:	3d 91       	ld	r19, X+
    3470:	4d 91       	ld	r20, X+
    3472:	5c 91       	ld	r21, X
    3474:	53 97       	sbiw	r26, 0x13	; 19
    3476:	da 01       	movw	r26, r20
    3478:	c9 01       	movw	r24, r18
    347a:	91 70       	andi	r25, 0x01	; 1
    347c:	a0 70       	andi	r26, 0x00	; 0
    347e:	b0 70       	andi	r27, 0x00	; 0
    3480:	00 97       	sbiw	r24, 0x00	; 0
    3482:	a1 05       	cpc	r26, r1
    3484:	b1 05       	cpc	r27, r1
    3486:	09 f0       	breq	.+2      	; 0x348a <f_write+0xce>
    3488:	24 c1       	rjmp	.+584    	; 0x36d2 <f_write+0x316>
    348a:	da 01       	movw	r26, r20
    348c:	c9 01       	movw	r24, r18
    348e:	19 e0       	ldi	r17, 0x09	; 9
    3490:	b6 95       	lsr	r27
    3492:	a7 95       	ror	r26
    3494:	97 95       	ror	r25
    3496:	87 95       	ror	r24
    3498:	1a 95       	dec	r17
    349a:	d1 f7       	brne	.-12     	; 0x3490 <f_write+0xd4>
    349c:	e9 81       	ldd	r30, Y+1	; 0x01
    349e:	fa 81       	ldd	r31, Y+2	; 0x02
    34a0:	61 84       	ldd	r6, Z+9	; 0x09
    34a2:	72 84       	ldd	r7, Z+10	; 0x0a
    34a4:	08 94       	sec
    34a6:	61 08       	sbc	r6, r1
    34a8:	71 08       	sbc	r7, r1
    34aa:	68 22       	and	r6, r24
    34ac:	79 22       	and	r7, r25
    34ae:	61 14       	cp	r6, r1
    34b0:	71 04       	cpc	r7, r1
    34b2:	09 f0       	breq	.+2      	; 0x34b6 <f_write+0xfa>
    34b4:	52 c0       	rjmp	.+164    	; 0x355a <f_write+0x19e>
    34b6:	21 15       	cp	r18, r1
    34b8:	31 05       	cpc	r19, r1
    34ba:	41 05       	cpc	r20, r1
    34bc:	51 05       	cpc	r21, r1
    34be:	89 f4       	brne	.+34     	; 0x34e2 <f_write+0x126>
    34c0:	f5 01       	movw	r30, r10
    34c2:	26 81       	ldd	r18, Z+6	; 0x06
    34c4:	37 81       	ldd	r19, Z+7	; 0x07
    34c6:	40 85       	ldd	r20, Z+8	; 0x08
    34c8:	51 85       	ldd	r21, Z+9	; 0x09
    34ca:	21 15       	cp	r18, r1
    34cc:	31 05       	cpc	r19, r1
    34ce:	41 05       	cpc	r20, r1
    34d0:	51 05       	cpc	r21, r1
    34d2:	d1 f4       	brne	.+52     	; 0x3508 <f_write+0x14c>
    34d4:	88 85       	ldd	r24, Y+8	; 0x08
    34d6:	99 85       	ldd	r25, Y+9	; 0x09
    34d8:	40 e0       	ldi	r20, 0x00	; 0
    34da:	50 e0       	ldi	r21, 0x00	; 0
    34dc:	60 e0       	ldi	r22, 0x00	; 0
    34de:	70 e0       	ldi	r23, 0x00	; 0
    34e0:	09 c0       	rjmp	.+18     	; 0x34f4 <f_write+0x138>
    34e2:	d5 01       	movw	r26, r10
    34e4:	54 96       	adiw	r26, 0x14	; 20
    34e6:	4d 91       	ld	r20, X+
    34e8:	5d 91       	ld	r21, X+
    34ea:	6d 91       	ld	r22, X+
    34ec:	7c 91       	ld	r23, X
    34ee:	57 97       	sbiw	r26, 0x17	; 23
    34f0:	88 85       	ldd	r24, Y+8	; 0x08
    34f2:	99 85       	ldd	r25, Y+9	; 0x09
    34f4:	0e 94 d7 13 	call	0x27ae	; 0x27ae <create_chain>
    34f8:	9b 01       	movw	r18, r22
    34fa:	ac 01       	movw	r20, r24
    34fc:	61 15       	cp	r22, r1
    34fe:	71 05       	cpc	r23, r1
    3500:	81 05       	cpc	r24, r1
    3502:	91 05       	cpc	r25, r1
    3504:	09 f4       	brne	.+2      	; 0x3508 <f_write+0x14c>
    3506:	50 c1       	rjmp	.+672    	; 0x37a8 <f_write+0x3ec>
    3508:	21 30       	cpi	r18, 0x01	; 1
    350a:	31 05       	cpc	r19, r1
    350c:	41 05       	cpc	r20, r1
    350e:	51 05       	cpc	r21, r1
    3510:	11 f4       	brne	.+4      	; 0x3516 <f_write+0x15a>
    3512:	82 e0       	ldi	r24, 0x02	; 2
    3514:	f2 c0       	rjmp	.+484    	; 0x36fa <f_write+0x33e>
    3516:	2f 3f       	cpi	r18, 0xFF	; 255
    3518:	ff ef       	ldi	r31, 0xFF	; 255
    351a:	3f 07       	cpc	r19, r31
    351c:	ff ef       	ldi	r31, 0xFF	; 255
    351e:	4f 07       	cpc	r20, r31
    3520:	ff ef       	ldi	r31, 0xFF	; 255
    3522:	5f 07       	cpc	r21, r31
    3524:	31 f4       	brne	.+12     	; 0x3532 <f_write+0x176>
    3526:	81 e0       	ldi	r24, 0x01	; 1
    3528:	d5 01       	movw	r26, r10
    352a:	1f 96       	adiw	r26, 0x0f	; 15
    352c:	8c 93       	st	X, r24
    352e:	8d 83       	std	Y+5, r24	; 0x05
    3530:	42 c1       	rjmp	.+644    	; 0x37b6 <f_write+0x3fa>
    3532:	f5 01       	movw	r30, r10
    3534:	24 8b       	std	Z+20, r18	; 0x14
    3536:	35 8b       	std	Z+21, r19	; 0x15
    3538:	46 8b       	std	Z+22, r20	; 0x16
    353a:	57 8b       	std	Z+23, r21	; 0x17
    353c:	86 81       	ldd	r24, Z+6	; 0x06
    353e:	97 81       	ldd	r25, Z+7	; 0x07
    3540:	a0 85       	ldd	r26, Z+8	; 0x08
    3542:	b1 85       	ldd	r27, Z+9	; 0x09
    3544:	00 97       	sbiw	r24, 0x00	; 0
    3546:	a1 05       	cpc	r26, r1
    3548:	b1 05       	cpc	r27, r1
    354a:	39 f4       	brne	.+14     	; 0x355a <f_write+0x19e>
    354c:	d5 01       	movw	r26, r10
    354e:	16 96       	adiw	r26, 0x06	; 6
    3550:	2d 93       	st	X+, r18
    3552:	3d 93       	st	X+, r19
    3554:	4d 93       	st	X+, r20
    3556:	5c 93       	st	X, r21
    3558:	19 97       	sbiw	r26, 0x09	; 9
    355a:	e9 81       	ldd	r30, Y+1	; 0x01
    355c:	fa 81       	ldd	r31, Y+2	; 0x02
    355e:	27 a5       	ldd	r18, Z+47	; 0x2f
    3560:	30 a9       	ldd	r19, Z+48	; 0x30
    3562:	41 a9       	ldd	r20, Z+49	; 0x31
    3564:	52 a9       	ldd	r21, Z+50	; 0x32
    3566:	d5 01       	movw	r26, r10
    3568:	58 96       	adiw	r26, 0x18	; 24
    356a:	ed 90       	ld	r14, X+
    356c:	fd 90       	ld	r15, X+
    356e:	0d 91       	ld	r16, X+
    3570:	1c 91       	ld	r17, X
    3572:	5b 97       	sbiw	r26, 0x1b	; 27
    3574:	2e 15       	cp	r18, r14
    3576:	3f 05       	cpc	r19, r15
    3578:	40 07       	cpc	r20, r16
    357a:	51 07       	cpc	r21, r17
    357c:	31 f4       	brne	.+12     	; 0x358a <f_write+0x1ce>
    357e:	cf 01       	movw	r24, r30
    3580:	0e 94 4b 0c 	call	0x1896	; 0x1896 <sync_window>
    3584:	88 23       	and	r24, r24
    3586:	09 f0       	breq	.+2      	; 0x358a <f_write+0x1ce>
    3588:	b7 c0       	rjmp	.+366    	; 0x36f8 <f_write+0x33c>
    358a:	49 80       	ldd	r4, Y+1	; 0x01
    358c:	5a 80       	ldd	r5, Y+2	; 0x02
    358e:	d5 01       	movw	r26, r10
    3590:	54 96       	adiw	r26, 0x14	; 20
    3592:	2d 91       	ld	r18, X+
    3594:	3d 91       	ld	r19, X+
    3596:	4d 91       	ld	r20, X+
    3598:	5c 91       	ld	r21, X
    359a:	57 97       	sbiw	r26, 0x17	; 23
    359c:	22 50       	subi	r18, 0x02	; 2
    359e:	30 40       	sbci	r19, 0x00	; 0
    35a0:	40 40       	sbci	r20, 0x00	; 0
    35a2:	50 40       	sbci	r21, 0x00	; 0
    35a4:	f2 01       	movw	r30, r4
    35a6:	87 89       	ldd	r24, Z+23	; 0x17
    35a8:	90 8d       	ldd	r25, Z+24	; 0x18
    35aa:	a1 8d       	ldd	r26, Z+25	; 0x19
    35ac:	b2 8d       	ldd	r27, Z+26	; 0x1a
    35ae:	02 97       	sbiw	r24, 0x02	; 2
    35b0:	a1 09       	sbc	r26, r1
    35b2:	b1 09       	sbc	r27, r1
    35b4:	28 17       	cp	r18, r24
    35b6:	39 07       	cpc	r19, r25
    35b8:	4a 07       	cpc	r20, r26
    35ba:	5b 07       	cpc	r21, r27
    35bc:	b8 f4       	brcc	.+46     	; 0x35ec <f_write+0x230>
    35be:	01 85       	ldd	r16, Z+9	; 0x09
    35c0:	12 85       	ldd	r17, Z+10	; 0x0a
    35c2:	b8 01       	movw	r22, r16
    35c4:	80 e0       	ldi	r24, 0x00	; 0
    35c6:	90 e0       	ldi	r25, 0x00	; 0
    35c8:	0e 94 71 2b 	call	0x56e2	; 0x56e2 <__mulsi3>
    35cc:	9b 01       	movw	r18, r22
    35ce:	ac 01       	movw	r20, r24
    35d0:	f2 01       	movw	r30, r4
    35d2:	83 a5       	ldd	r24, Z+43	; 0x2b
    35d4:	94 a5       	ldd	r25, Z+44	; 0x2c
    35d6:	a5 a5       	ldd	r26, Z+45	; 0x2d
    35d8:	b6 a5       	ldd	r27, Z+46	; 0x2e
    35da:	28 0f       	add	r18, r24
    35dc:	39 1f       	adc	r19, r25
    35de:	4a 1f       	adc	r20, r26
    35e0:	5b 1f       	adc	r21, r27
    35e2:	21 15       	cp	r18, r1
    35e4:	31 05       	cpc	r19, r1
    35e6:	41 05       	cpc	r20, r1
    35e8:	51 05       	cpc	r21, r1
    35ea:	11 f4       	brne	.+4      	; 0x35f0 <f_write+0x234>
    35ec:	82 e0       	ldi	r24, 0x02	; 2
    35ee:	9c cf       	rjmp	.-200    	; 0x3528 <f_write+0x16c>
    35f0:	63 01       	movw	r12, r6
    35f2:	ee 24       	eor	r14, r14
    35f4:	ff 24       	eor	r15, r15
    35f6:	c2 0e       	add	r12, r18
    35f8:	d3 1e       	adc	r13, r19
    35fa:	e4 1e       	adc	r14, r20
    35fc:	f5 1e       	adc	r15, r21
    35fe:	41 01       	movw	r8, r2
    3600:	89 2c       	mov	r8, r9
    3602:	99 24       	eor	r9, r9
    3604:	86 94       	lsr	r8
    3606:	81 14       	cp	r8, r1
    3608:	91 04       	cpc	r9, r1
    360a:	09 f4       	brne	.+2      	; 0x360e <f_write+0x252>
    360c:	43 c0       	rjmp	.+134    	; 0x3694 <f_write+0x2d8>
    360e:	c4 01       	movw	r24, r8
    3610:	86 0d       	add	r24, r6
    3612:	97 1d       	adc	r25, r7
    3614:	08 17       	cp	r16, r24
    3616:	19 07       	cpc	r17, r25
    3618:	18 f4       	brcc	.+6      	; 0x3620 <f_write+0x264>
    361a:	48 01       	movw	r8, r16
    361c:	86 18       	sub	r8, r6
    361e:	97 08       	sbc	r9, r7
    3620:	f2 01       	movw	r30, r4
    3622:	81 81       	ldd	r24, Z+1	; 0x01
    3624:	6b 81       	ldd	r22, Y+3	; 0x03
    3626:	7c 81       	ldd	r23, Y+4	; 0x04
    3628:	a7 01       	movw	r20, r14
    362a:	96 01       	movw	r18, r12
    362c:	84 01       	movw	r16, r8
    362e:	0e 94 56 0b 	call	0x16ac	; 0x16ac <disk_write>
    3632:	88 23       	and	r24, r24
    3634:	09 f0       	breq	.+2      	; 0x3638 <f_write+0x27c>
    3636:	77 cf       	rjmp	.-274    	; 0x3526 <f_write+0x16a>
    3638:	e9 81       	ldd	r30, Y+1	; 0x01
    363a:	fa 81       	ldd	r31, Y+2	; 0x02
    363c:	27 a5       	ldd	r18, Z+47	; 0x2f
    363e:	30 a9       	ldd	r19, Z+48	; 0x30
    3640:	41 a9       	ldd	r20, Z+49	; 0x31
    3642:	52 a9       	ldd	r21, Z+50	; 0x32
    3644:	2c 19       	sub	r18, r12
    3646:	3d 09       	sbc	r19, r13
    3648:	4e 09       	sbc	r20, r14
    364a:	5f 09       	sbc	r21, r15
    364c:	c4 01       	movw	r24, r8
    364e:	a0 e0       	ldi	r26, 0x00	; 0
    3650:	b0 e0       	ldi	r27, 0x00	; 0
    3652:	28 17       	cp	r18, r24
    3654:	39 07       	cpc	r19, r25
    3656:	4a 07       	cpc	r20, r26
    3658:	5b 07       	cpc	r21, r27
    365a:	b8 f4       	brcc	.+46     	; 0x368a <f_write+0x2ce>
    365c:	a9 e0       	ldi	r26, 0x09	; 9
    365e:	22 0f       	add	r18, r18
    3660:	33 1f       	adc	r19, r19
    3662:	44 1f       	adc	r20, r20
    3664:	55 1f       	adc	r21, r21
    3666:	aa 95       	dec	r26
    3668:	d1 f7       	brne	.-12     	; 0x365e <f_write+0x2a2>
    366a:	8b 81       	ldd	r24, Y+3	; 0x03
    366c:	9c 81       	ldd	r25, Y+4	; 0x04
    366e:	82 0f       	add	r24, r18
    3670:	93 1f       	adc	r25, r19
    3672:	df 01       	movw	r26, r30
    3674:	d3 96       	adiw	r26, 0x33	; 51
    3676:	fc 01       	movw	r30, r24
    3678:	80 e0       	ldi	r24, 0x00	; 0
    367a:	92 e0       	ldi	r25, 0x02	; 2
    367c:	01 90       	ld	r0, Z+
    367e:	0d 92       	st	X+, r0
    3680:	01 97       	sbiw	r24, 0x01	; 1
    3682:	e1 f7       	brne	.-8      	; 0x367c <f_write+0x2c0>
    3684:	e9 81       	ldd	r30, Y+1	; 0x01
    3686:	fa 81       	ldd	r31, Y+2	; 0x02
    3688:	13 82       	std	Z+3, r1	; 0x03
    368a:	84 01       	movw	r16, r8
    368c:	10 2f       	mov	r17, r16
    368e:	00 27       	eor	r16, r16
    3690:	11 0f       	add	r17, r17
    3692:	56 c0       	rjmp	.+172    	; 0x3740 <f_write+0x384>
    3694:	f5 01       	movw	r30, r10
    3696:	20 89       	ldd	r18, Z+16	; 0x10
    3698:	31 89       	ldd	r19, Z+17	; 0x11
    369a:	42 89       	ldd	r20, Z+18	; 0x12
    369c:	53 89       	ldd	r21, Z+19	; 0x13
    369e:	82 85       	ldd	r24, Z+10	; 0x0a
    36a0:	93 85       	ldd	r25, Z+11	; 0x0b
    36a2:	a4 85       	ldd	r26, Z+12	; 0x0c
    36a4:	b5 85       	ldd	r27, Z+13	; 0x0d
    36a6:	28 17       	cp	r18, r24
    36a8:	39 07       	cpc	r19, r25
    36aa:	4a 07       	cpc	r20, r26
    36ac:	5b 07       	cpc	r21, r27
    36ae:	60 f0       	brcs	.+24     	; 0x36c8 <f_write+0x30c>
    36b0:	c2 01       	movw	r24, r4
    36b2:	0e 94 4b 0c 	call	0x1896	; 0x1896 <sync_window>
    36b6:	88 23       	and	r24, r24
    36b8:	09 f0       	breq	.+2      	; 0x36bc <f_write+0x300>
    36ba:	35 cf       	rjmp	.-406    	; 0x3526 <f_write+0x16a>
    36bc:	e9 81       	ldd	r30, Y+1	; 0x01
    36be:	fa 81       	ldd	r31, Y+2	; 0x02
    36c0:	c7 a6       	std	Z+47, r12	; 0x2f
    36c2:	d0 aa       	std	Z+48, r13	; 0x30
    36c4:	e1 aa       	std	Z+49, r14	; 0x31
    36c6:	f2 aa       	std	Z+50, r15	; 0x32
    36c8:	f5 01       	movw	r30, r10
    36ca:	c0 8e       	std	Z+24, r12	; 0x18
    36cc:	d1 8e       	std	Z+25, r13	; 0x19
    36ce:	e2 8e       	std	Z+26, r14	; 0x1a
    36d0:	f3 8e       	std	Z+27, r15	; 0x1b
    36d2:	d5 01       	movw	r26, r10
    36d4:	50 96       	adiw	r26, 0x10	; 16
    36d6:	ed 90       	ld	r14, X+
    36d8:	fd 90       	ld	r15, X+
    36da:	0d 91       	ld	r16, X+
    36dc:	1c 91       	ld	r17, X
    36de:	53 97       	sbiw	r26, 0x13	; 19
    36e0:	58 96       	adiw	r26, 0x18	; 24
    36e2:	4d 91       	ld	r20, X+
    36e4:	5d 91       	ld	r21, X+
    36e6:	6d 91       	ld	r22, X+
    36e8:	7c 91       	ld	r23, X
    36ea:	5b 97       	sbiw	r26, 0x1b	; 27
    36ec:	89 81       	ldd	r24, Y+1	; 0x01
    36ee:	9a 81       	ldd	r25, Y+2	; 0x02
    36f0:	0e 94 a1 0c 	call	0x1942	; 0x1942 <move_window>
    36f4:	88 23       	and	r24, r24
    36f6:	21 f0       	breq	.+8      	; 0x3700 <f_write+0x344>
    36f8:	81 e0       	ldi	r24, 0x01	; 1
    36fa:	f5 01       	movw	r30, r10
    36fc:	87 87       	std	Z+15, r24	; 0x0f
    36fe:	17 cf       	rjmp	.-466    	; 0x352e <f_write+0x172>
    3700:	c7 01       	movw	r24, r14
    3702:	91 70       	andi	r25, 0x01	; 1
    3704:	20 e0       	ldi	r18, 0x00	; 0
    3706:	32 e0       	ldi	r19, 0x02	; 2
    3708:	28 1b       	sub	r18, r24
    370a:	39 0b       	sbc	r19, r25
    370c:	81 01       	movw	r16, r2
    370e:	22 15       	cp	r18, r2
    3710:	33 05       	cpc	r19, r3
    3712:	08 f4       	brcc	.+2      	; 0x3716 <f_write+0x35a>
    3714:	89 01       	movw	r16, r18
    3716:	d5 01       	movw	r26, r10
    3718:	50 96       	adiw	r26, 0x10	; 16
    371a:	8d 91       	ld	r24, X+
    371c:	9c 91       	ld	r25, X
    371e:	51 97       	sbiw	r26, 0x11	; 17
    3720:	91 70       	andi	r25, 0x01	; 1
    3722:	c3 96       	adiw	r24, 0x33	; 51
    3724:	29 81       	ldd	r18, Y+1	; 0x01
    3726:	3a 81       	ldd	r19, Y+2	; 0x02
    3728:	28 0f       	add	r18, r24
    372a:	39 1f       	adc	r19, r25
    372c:	c9 01       	movw	r24, r18
    372e:	6b 81       	ldd	r22, Y+3	; 0x03
    3730:	7c 81       	ldd	r23, Y+4	; 0x04
    3732:	a8 01       	movw	r20, r16
    3734:	0e 94 d3 2b 	call	0x57a6	; 0x57a6 <memcpy>
    3738:	e9 81       	ldd	r30, Y+1	; 0x01
    373a:	fa 81       	ldd	r31, Y+2	; 0x02
    373c:	b1 e0       	ldi	r27, 0x01	; 1
    373e:	b3 83       	std	Z+3, r27	; 0x03
    3740:	20 1a       	sub	r2, r16
    3742:	31 0a       	sbc	r3, r17
    3744:	ee 81       	ldd	r30, Y+6	; 0x06
    3746:	ff 81       	ldd	r31, Y+7	; 0x07
    3748:	80 81       	ld	r24, Z
    374a:	91 81       	ldd	r25, Z+1	; 0x01
    374c:	80 0f       	add	r24, r16
    374e:	91 1f       	adc	r25, r17
    3750:	91 83       	std	Z+1, r25	; 0x01
    3752:	80 83       	st	Z, r24
    3754:	2b 81       	ldd	r18, Y+3	; 0x03
    3756:	3c 81       	ldd	r19, Y+4	; 0x04
    3758:	20 0f       	add	r18, r16
    375a:	31 1f       	adc	r19, r17
    375c:	3c 83       	std	Y+4, r19	; 0x04
    375e:	2b 83       	std	Y+3, r18	; 0x03
    3760:	c8 01       	movw	r24, r16
    3762:	a0 e0       	ldi	r26, 0x00	; 0
    3764:	b0 e0       	ldi	r27, 0x00	; 0
    3766:	f5 01       	movw	r30, r10
    3768:	20 89       	ldd	r18, Z+16	; 0x10
    376a:	31 89       	ldd	r19, Z+17	; 0x11
    376c:	42 89       	ldd	r20, Z+18	; 0x12
    376e:	53 89       	ldd	r21, Z+19	; 0x13
    3770:	82 0f       	add	r24, r18
    3772:	93 1f       	adc	r25, r19
    3774:	a4 1f       	adc	r26, r20
    3776:	b5 1f       	adc	r27, r21
    3778:	80 8b       	std	Z+16, r24	; 0x10
    377a:	91 8b       	std	Z+17, r25	; 0x11
    377c:	a2 8b       	std	Z+18, r26	; 0x12
    377e:	b3 8b       	std	Z+19, r27	; 0x13
    3780:	22 85       	ldd	r18, Z+10	; 0x0a
    3782:	33 85       	ldd	r19, Z+11	; 0x0b
    3784:	44 85       	ldd	r20, Z+12	; 0x0c
    3786:	55 85       	ldd	r21, Z+13	; 0x0d
    3788:	82 17       	cp	r24, r18
    378a:	93 07       	cpc	r25, r19
    378c:	a4 07       	cpc	r26, r20
    378e:	b5 07       	cpc	r27, r21
    3790:	10 f4       	brcc	.+4      	; 0x3796 <f_write+0x3da>
    3792:	da 01       	movw	r26, r20
    3794:	c9 01       	movw	r24, r18
    3796:	f5 01       	movw	r30, r10
    3798:	82 87       	std	Z+10, r24	; 0x0a
    379a:	93 87       	std	Z+11, r25	; 0x0b
    379c:	a4 87       	std	Z+12, r26	; 0x0c
    379e:	b5 87       	std	Z+13, r27	; 0x0d
    37a0:	21 14       	cp	r2, r1
    37a2:	31 04       	cpc	r3, r1
    37a4:	09 f0       	breq	.+2      	; 0x37a8 <f_write+0x3ec>
    37a6:	60 ce       	rjmp	.-832    	; 0x3468 <f_write+0xac>
    37a8:	d5 01       	movw	r26, r10
    37aa:	1e 96       	adiw	r26, 0x0e	; 14
    37ac:	8c 91       	ld	r24, X
    37ae:	1e 97       	sbiw	r26, 0x0e	; 14
    37b0:	80 64       	ori	r24, 0x40	; 64
    37b2:	1e 96       	adiw	r26, 0x0e	; 14
    37b4:	8c 93       	st	X, r24
    37b6:	8d 81       	ldd	r24, Y+5	; 0x05
    37b8:	29 96       	adiw	r28, 0x09	; 9
    37ba:	0f b6       	in	r0, 0x3f	; 63
    37bc:	f8 94       	cli
    37be:	de bf       	out	0x3e, r29	; 62
    37c0:	0f be       	out	0x3f, r0	; 63
    37c2:	cd bf       	out	0x3d, r28	; 61
    37c4:	cf 91       	pop	r28
    37c6:	df 91       	pop	r29
    37c8:	1f 91       	pop	r17
    37ca:	0f 91       	pop	r16
    37cc:	ff 90       	pop	r15
    37ce:	ef 90       	pop	r14
    37d0:	df 90       	pop	r13
    37d2:	cf 90       	pop	r12
    37d4:	bf 90       	pop	r11
    37d6:	af 90       	pop	r10
    37d8:	9f 90       	pop	r9
    37da:	8f 90       	pop	r8
    37dc:	7f 90       	pop	r7
    37de:	6f 90       	pop	r6
    37e0:	5f 90       	pop	r5
    37e2:	4f 90       	pop	r4
    37e4:	3f 90       	pop	r3
    37e6:	2f 90       	pop	r2
    37e8:	08 95       	ret

000037ea <f_read>:
    37ea:	2f 92       	push	r2
    37ec:	3f 92       	push	r3
    37ee:	4f 92       	push	r4
    37f0:	5f 92       	push	r5
    37f2:	6f 92       	push	r6
    37f4:	7f 92       	push	r7
    37f6:	8f 92       	push	r8
    37f8:	9f 92       	push	r9
    37fa:	af 92       	push	r10
    37fc:	bf 92       	push	r11
    37fe:	cf 92       	push	r12
    3800:	df 92       	push	r13
    3802:	ef 92       	push	r14
    3804:	ff 92       	push	r15
    3806:	0f 93       	push	r16
    3808:	1f 93       	push	r17
    380a:	df 93       	push	r29
    380c:	cf 93       	push	r28
    380e:	cd b7       	in	r28, 0x3d	; 61
    3810:	de b7       	in	r29, 0x3e	; 62
    3812:	29 97       	sbiw	r28, 0x09	; 9
    3814:	0f b6       	in	r0, 0x3f	; 63
    3816:	f8 94       	cli
    3818:	de bf       	out	0x3e, r29	; 62
    381a:	0f be       	out	0x3f, r0	; 63
    381c:	cd bf       	out	0x3d, r28	; 61
    381e:	5c 01       	movw	r10, r24
    3820:	16 2f       	mov	r17, r22
    3822:	07 2f       	mov	r16, r23
    3824:	1a 01       	movw	r2, r20
    3826:	3f 83       	std	Y+7, r19	; 0x07
    3828:	2e 83       	std	Y+6, r18	; 0x06
    382a:	f9 01       	movw	r30, r18
    382c:	11 82       	std	Z+1, r1	; 0x01
    382e:	10 82       	st	Z, r1
    3830:	88 87       	std	Y+8, r24	; 0x08
    3832:	b9 86       	std	Y+9, r11	; 0x09
    3834:	be 01       	movw	r22, r28
    3836:	6f 5f       	subi	r22, 0xFF	; 255
    3838:	7f 4f       	sbci	r23, 0xFF	; 255
    383a:	0e 94 20 0c 	call	0x1840	; 0x1840 <validate>
    383e:	8d 83       	std	Y+5, r24	; 0x05
    3840:	88 23       	and	r24, r24
    3842:	09 f0       	breq	.+2      	; 0x3846 <f_read+0x5c>
    3844:	4d c1       	rjmp	.+666    	; 0x3ae0 <f_read+0x2f6>
    3846:	f5 01       	movw	r30, r10
    3848:	f7 85       	ldd	r31, Z+15	; 0x0f
    384a:	fd 83       	std	Y+5, r31	; 0x05
    384c:	ff 23       	and	r31, r31
    384e:	09 f0       	breq	.+2      	; 0x3852 <f_read+0x68>
    3850:	47 c1       	rjmp	.+654    	; 0x3ae0 <f_read+0x2f6>
    3852:	f5 01       	movw	r30, r10
    3854:	86 85       	ldd	r24, Z+14	; 0x0e
    3856:	80 fd       	sbrc	r24, 0
    3858:	03 c0       	rjmp	.+6      	; 0x3860 <f_read+0x76>
    385a:	f7 e0       	ldi	r31, 0x07	; 7
    385c:	fd 83       	std	Y+5, r31	; 0x05
    385e:	40 c1       	rjmp	.+640    	; 0x3ae0 <f_read+0x2f6>
    3860:	f5 01       	movw	r30, r10
    3862:	22 85       	ldd	r18, Z+10	; 0x0a
    3864:	33 85       	ldd	r19, Z+11	; 0x0b
    3866:	44 85       	ldd	r20, Z+12	; 0x0c
    3868:	55 85       	ldd	r21, Z+13	; 0x0d
    386a:	80 89       	ldd	r24, Z+16	; 0x10
    386c:	91 89       	ldd	r25, Z+17	; 0x11
    386e:	a2 89       	ldd	r26, Z+18	; 0x12
    3870:	b3 89       	ldd	r27, Z+19	; 0x13
    3872:	28 1b       	sub	r18, r24
    3874:	39 0b       	sbc	r19, r25
    3876:	4a 0b       	sbc	r20, r26
    3878:	5b 0b       	sbc	r21, r27
    387a:	c1 01       	movw	r24, r2
    387c:	a0 e0       	ldi	r26, 0x00	; 0
    387e:	b0 e0       	ldi	r27, 0x00	; 0
    3880:	28 17       	cp	r18, r24
    3882:	39 07       	cpc	r19, r25
    3884:	4a 07       	cpc	r20, r26
    3886:	5b 07       	cpc	r21, r27
    3888:	08 f4       	brcc	.+2      	; 0x388c <f_read+0xa2>
    388a:	19 01       	movw	r2, r18
    388c:	81 2f       	mov	r24, r17
    388e:	90 2f       	mov	r25, r16
    3890:	9c 01       	movw	r18, r24
    3892:	3c 83       	std	Y+4, r19	; 0x04
    3894:	2b 83       	std	Y+3, r18	; 0x03
    3896:	20 c1       	rjmp	.+576    	; 0x3ad8 <f_read+0x2ee>
    3898:	f5 01       	movw	r30, r10
    389a:	20 89       	ldd	r18, Z+16	; 0x10
    389c:	31 89       	ldd	r19, Z+17	; 0x11
    389e:	42 89       	ldd	r20, Z+18	; 0x12
    38a0:	53 89       	ldd	r21, Z+19	; 0x13
    38a2:	da 01       	movw	r26, r20
    38a4:	c9 01       	movw	r24, r18
    38a6:	91 70       	andi	r25, 0x01	; 1
    38a8:	a0 70       	andi	r26, 0x00	; 0
    38aa:	b0 70       	andi	r27, 0x00	; 0
    38ac:	00 97       	sbiw	r24, 0x00	; 0
    38ae:	a1 05       	cpc	r26, r1
    38b0:	b1 05       	cpc	r27, r1
    38b2:	09 f0       	breq	.+2      	; 0x38b6 <f_read+0xcc>
    38b4:	c7 c0       	rjmp	.+398    	; 0x3a44 <f_read+0x25a>
    38b6:	da 01       	movw	r26, r20
    38b8:	c9 01       	movw	r24, r18
    38ba:	69 e0       	ldi	r22, 0x09	; 9
    38bc:	b6 95       	lsr	r27
    38be:	a7 95       	ror	r26
    38c0:	97 95       	ror	r25
    38c2:	87 95       	ror	r24
    38c4:	6a 95       	dec	r22
    38c6:	d1 f7       	brne	.-12     	; 0x38bc <f_read+0xd2>
    38c8:	e9 81       	ldd	r30, Y+1	; 0x01
    38ca:	fa 81       	ldd	r31, Y+2	; 0x02
    38cc:	01 85       	ldd	r16, Z+9	; 0x09
    38ce:	12 85       	ldd	r17, Z+10	; 0x0a
    38d0:	01 50       	subi	r16, 0x01	; 1
    38d2:	10 40       	sbci	r17, 0x00	; 0
    38d4:	08 23       	and	r16, r24
    38d6:	19 23       	and	r17, r25
    38d8:	01 15       	cp	r16, r1
    38da:	11 05       	cpc	r17, r1
    38dc:	61 f5       	brne	.+88     	; 0x3936 <f_read+0x14c>
    38de:	21 15       	cp	r18, r1
    38e0:	31 05       	cpc	r19, r1
    38e2:	41 05       	cpc	r20, r1
    38e4:	51 05       	cpc	r21, r1
    38e6:	31 f4       	brne	.+12     	; 0x38f4 <f_read+0x10a>
    38e8:	f5 01       	movw	r30, r10
    38ea:	66 81       	ldd	r22, Z+6	; 0x06
    38ec:	77 81       	ldd	r23, Z+7	; 0x07
    38ee:	80 85       	ldd	r24, Z+8	; 0x08
    38f0:	91 85       	ldd	r25, Z+9	; 0x09
    38f2:	09 c0       	rjmp	.+18     	; 0x3906 <f_read+0x11c>
    38f4:	f5 01       	movw	r30, r10
    38f6:	44 89       	ldd	r20, Z+20	; 0x14
    38f8:	55 89       	ldd	r21, Z+21	; 0x15
    38fa:	66 89       	ldd	r22, Z+22	; 0x16
    38fc:	77 89       	ldd	r23, Z+23	; 0x17
    38fe:	88 85       	ldd	r24, Y+8	; 0x08
    3900:	99 85       	ldd	r25, Y+9	; 0x09
    3902:	0e 94 e6 10 	call	0x21cc	; 0x21cc <get_fat>
    3906:	62 30       	cpi	r22, 0x02	; 2
    3908:	71 05       	cpc	r23, r1
    390a:	81 05       	cpc	r24, r1
    390c:	91 05       	cpc	r25, r1
    390e:	08 f4       	brcc	.+2      	; 0x3912 <f_read+0x128>
    3910:	41 c0       	rjmp	.+130    	; 0x3994 <f_read+0x1aa>
    3912:	6f 3f       	cpi	r22, 0xFF	; 255
    3914:	ff ef       	ldi	r31, 0xFF	; 255
    3916:	7f 07       	cpc	r23, r31
    3918:	ff ef       	ldi	r31, 0xFF	; 255
    391a:	8f 07       	cpc	r24, r31
    391c:	ff ef       	ldi	r31, 0xFF	; 255
    391e:	9f 07       	cpc	r25, r31
    3920:	29 f4       	brne	.+10     	; 0x392c <f_read+0x142>
    3922:	81 e0       	ldi	r24, 0x01	; 1
    3924:	f5 01       	movw	r30, r10
    3926:	87 87       	std	Z+15, r24	; 0x0f
    3928:	8d 83       	std	Y+5, r24	; 0x05
    392a:	da c0       	rjmp	.+436    	; 0x3ae0 <f_read+0x2f6>
    392c:	f5 01       	movw	r30, r10
    392e:	64 8b       	std	Z+20, r22	; 0x14
    3930:	75 8b       	std	Z+21, r23	; 0x15
    3932:	86 8b       	std	Z+22, r24	; 0x16
    3934:	97 8b       	std	Z+23, r25	; 0x17
    3936:	49 80       	ldd	r4, Y+1	; 0x01
    3938:	5a 80       	ldd	r5, Y+2	; 0x02
    393a:	f5 01       	movw	r30, r10
    393c:	24 89       	ldd	r18, Z+20	; 0x14
    393e:	35 89       	ldd	r19, Z+21	; 0x15
    3940:	46 89       	ldd	r20, Z+22	; 0x16
    3942:	57 89       	ldd	r21, Z+23	; 0x17
    3944:	22 50       	subi	r18, 0x02	; 2
    3946:	30 40       	sbci	r19, 0x00	; 0
    3948:	40 40       	sbci	r20, 0x00	; 0
    394a:	50 40       	sbci	r21, 0x00	; 0
    394c:	f2 01       	movw	r30, r4
    394e:	87 89       	ldd	r24, Z+23	; 0x17
    3950:	90 8d       	ldd	r25, Z+24	; 0x18
    3952:	a1 8d       	ldd	r26, Z+25	; 0x19
    3954:	b2 8d       	ldd	r27, Z+26	; 0x1a
    3956:	02 97       	sbiw	r24, 0x02	; 2
    3958:	a1 09       	sbc	r26, r1
    395a:	b1 09       	sbc	r27, r1
    395c:	28 17       	cp	r18, r24
    395e:	39 07       	cpc	r19, r25
    3960:	4a 07       	cpc	r20, r26
    3962:	5b 07       	cpc	r21, r27
    3964:	b8 f4       	brcc	.+46     	; 0x3994 <f_read+0x1aa>
    3966:	81 84       	ldd	r8, Z+9	; 0x09
    3968:	92 84       	ldd	r9, Z+10	; 0x0a
    396a:	b4 01       	movw	r22, r8
    396c:	80 e0       	ldi	r24, 0x00	; 0
    396e:	90 e0       	ldi	r25, 0x00	; 0
    3970:	0e 94 71 2b 	call	0x56e2	; 0x56e2 <__mulsi3>
    3974:	9b 01       	movw	r18, r22
    3976:	ac 01       	movw	r20, r24
    3978:	f2 01       	movw	r30, r4
    397a:	83 a5       	ldd	r24, Z+43	; 0x2b
    397c:	94 a5       	ldd	r25, Z+44	; 0x2c
    397e:	a5 a5       	ldd	r26, Z+45	; 0x2d
    3980:	b6 a5       	ldd	r27, Z+46	; 0x2e
    3982:	28 0f       	add	r18, r24
    3984:	39 1f       	adc	r19, r25
    3986:	4a 1f       	adc	r20, r26
    3988:	5b 1f       	adc	r21, r27
    398a:	21 15       	cp	r18, r1
    398c:	31 05       	cpc	r19, r1
    398e:	41 05       	cpc	r20, r1
    3990:	51 05       	cpc	r21, r1
    3992:	11 f4       	brne	.+4      	; 0x3998 <f_read+0x1ae>
    3994:	82 e0       	ldi	r24, 0x02	; 2
    3996:	c6 cf       	rjmp	.-116    	; 0x3924 <f_read+0x13a>
    3998:	68 01       	movw	r12, r16
    399a:	ee 24       	eor	r14, r14
    399c:	ff 24       	eor	r15, r15
    399e:	c2 0e       	add	r12, r18
    39a0:	d3 1e       	adc	r13, r19
    39a2:	e4 1e       	adc	r14, r20
    39a4:	f5 1e       	adc	r15, r21
    39a6:	31 01       	movw	r6, r2
    39a8:	67 2c       	mov	r6, r7
    39aa:	77 24       	eor	r7, r7
    39ac:	66 94       	lsr	r6
    39ae:	61 14       	cp	r6, r1
    39b0:	71 04       	cpc	r7, r1
    39b2:	09 f4       	brne	.+2      	; 0x39b6 <f_read+0x1cc>
    39b4:	42 c0       	rjmp	.+132    	; 0x3a3a <f_read+0x250>
    39b6:	c3 01       	movw	r24, r6
    39b8:	80 0f       	add	r24, r16
    39ba:	91 1f       	adc	r25, r17
    39bc:	88 16       	cp	r8, r24
    39be:	99 06       	cpc	r9, r25
    39c0:	18 f4       	brcc	.+6      	; 0x39c8 <f_read+0x1de>
    39c2:	34 01       	movw	r6, r8
    39c4:	60 1a       	sub	r6, r16
    39c6:	71 0a       	sbc	r7, r17
    39c8:	f2 01       	movw	r30, r4
    39ca:	81 81       	ldd	r24, Z+1	; 0x01
    39cc:	6b 81       	ldd	r22, Y+3	; 0x03
    39ce:	7c 81       	ldd	r23, Y+4	; 0x04
    39d0:	a7 01       	movw	r20, r14
    39d2:	96 01       	movw	r18, r12
    39d4:	83 01       	movw	r16, r6
    39d6:	0e 94 65 0b 	call	0x16ca	; 0x16ca <disk_read>
    39da:	88 23       	and	r24, r24
    39dc:	09 f0       	breq	.+2      	; 0x39e0 <f_read+0x1f6>
    39de:	a1 cf       	rjmp	.-190    	; 0x3922 <f_read+0x138>
    39e0:	e9 81       	ldd	r30, Y+1	; 0x01
    39e2:	fa 81       	ldd	r31, Y+2	; 0x02
    39e4:	83 81       	ldd	r24, Z+3	; 0x03
    39e6:	88 23       	and	r24, r24
    39e8:	19 f1       	breq	.+70     	; 0x3a30 <f_read+0x246>
    39ea:	27 a5       	ldd	r18, Z+47	; 0x2f
    39ec:	30 a9       	ldd	r19, Z+48	; 0x30
    39ee:	41 a9       	ldd	r20, Z+49	; 0x31
    39f0:	52 a9       	ldd	r21, Z+50	; 0x32
    39f2:	2c 19       	sub	r18, r12
    39f4:	3d 09       	sbc	r19, r13
    39f6:	4e 09       	sbc	r20, r14
    39f8:	5f 09       	sbc	r21, r15
    39fa:	c3 01       	movw	r24, r6
    39fc:	a0 e0       	ldi	r26, 0x00	; 0
    39fe:	b0 e0       	ldi	r27, 0x00	; 0
    3a00:	28 17       	cp	r18, r24
    3a02:	39 07       	cpc	r19, r25
    3a04:	4a 07       	cpc	r20, r26
    3a06:	5b 07       	cpc	r21, r27
    3a08:	98 f4       	brcc	.+38     	; 0x3a30 <f_read+0x246>
    3a0a:	99 e0       	ldi	r25, 0x09	; 9
    3a0c:	22 0f       	add	r18, r18
    3a0e:	33 1f       	adc	r19, r19
    3a10:	44 1f       	adc	r20, r20
    3a12:	55 1f       	adc	r21, r21
    3a14:	9a 95       	dec	r25
    3a16:	d1 f7       	brne	.-12     	; 0x3a0c <f_read+0x222>
    3a18:	8b 81       	ldd	r24, Y+3	; 0x03
    3a1a:	9c 81       	ldd	r25, Y+4	; 0x04
    3a1c:	82 0f       	add	r24, r18
    3a1e:	93 1f       	adc	r25, r19
    3a20:	dc 01       	movw	r26, r24
    3a22:	f3 96       	adiw	r30, 0x33	; 51
    3a24:	80 e0       	ldi	r24, 0x00	; 0
    3a26:	92 e0       	ldi	r25, 0x02	; 2
    3a28:	01 90       	ld	r0, Z+
    3a2a:	0d 92       	st	X+, r0
    3a2c:	01 97       	sbiw	r24, 0x01	; 1
    3a2e:	e1 f7       	brne	.-8      	; 0x3a28 <f_read+0x23e>
    3a30:	83 01       	movw	r16, r6
    3a32:	10 2f       	mov	r17, r16
    3a34:	00 27       	eor	r16, r16
    3a36:	11 0f       	add	r17, r17
    3a38:	2f c0       	rjmp	.+94     	; 0x3a98 <f_read+0x2ae>
    3a3a:	f5 01       	movw	r30, r10
    3a3c:	c0 8e       	std	Z+24, r12	; 0x18
    3a3e:	d1 8e       	std	Z+25, r13	; 0x19
    3a40:	e2 8e       	std	Z+26, r14	; 0x1a
    3a42:	f3 8e       	std	Z+27, r15	; 0x1b
    3a44:	f5 01       	movw	r30, r10
    3a46:	e0 88       	ldd	r14, Z+16	; 0x10
    3a48:	f1 88       	ldd	r15, Z+17	; 0x11
    3a4a:	02 89       	ldd	r16, Z+18	; 0x12
    3a4c:	13 89       	ldd	r17, Z+19	; 0x13
    3a4e:	40 8d       	ldd	r20, Z+24	; 0x18
    3a50:	51 8d       	ldd	r21, Z+25	; 0x19
    3a52:	62 8d       	ldd	r22, Z+26	; 0x1a
    3a54:	73 8d       	ldd	r23, Z+27	; 0x1b
    3a56:	89 81       	ldd	r24, Y+1	; 0x01
    3a58:	9a 81       	ldd	r25, Y+2	; 0x02
    3a5a:	0e 94 a1 0c 	call	0x1942	; 0x1942 <move_window>
    3a5e:	88 23       	and	r24, r24
    3a60:	09 f0       	breq	.+2      	; 0x3a64 <f_read+0x27a>
    3a62:	5f cf       	rjmp	.-322    	; 0x3922 <f_read+0x138>
    3a64:	c7 01       	movw	r24, r14
    3a66:	91 70       	andi	r25, 0x01	; 1
    3a68:	20 e0       	ldi	r18, 0x00	; 0
    3a6a:	32 e0       	ldi	r19, 0x02	; 2
    3a6c:	28 1b       	sub	r18, r24
    3a6e:	39 0b       	sbc	r19, r25
    3a70:	81 01       	movw	r16, r2
    3a72:	22 15       	cp	r18, r2
    3a74:	33 05       	cpc	r19, r3
    3a76:	08 f4       	brcc	.+2      	; 0x3a7a <f_read+0x290>
    3a78:	89 01       	movw	r16, r18
    3a7a:	f5 01       	movw	r30, r10
    3a7c:	80 89       	ldd	r24, Z+16	; 0x10
    3a7e:	91 89       	ldd	r25, Z+17	; 0x11
    3a80:	91 70       	andi	r25, 0x01	; 1
    3a82:	c3 96       	adiw	r24, 0x33	; 51
    3a84:	29 81       	ldd	r18, Y+1	; 0x01
    3a86:	3a 81       	ldd	r19, Y+2	; 0x02
    3a88:	28 0f       	add	r18, r24
    3a8a:	39 1f       	adc	r19, r25
    3a8c:	8b 81       	ldd	r24, Y+3	; 0x03
    3a8e:	9c 81       	ldd	r25, Y+4	; 0x04
    3a90:	b9 01       	movw	r22, r18
    3a92:	a8 01       	movw	r20, r16
    3a94:	0e 94 d3 2b 	call	0x57a6	; 0x57a6 <memcpy>
    3a98:	20 1a       	sub	r2, r16
    3a9a:	31 0a       	sbc	r3, r17
    3a9c:	ee 81       	ldd	r30, Y+6	; 0x06
    3a9e:	ff 81       	ldd	r31, Y+7	; 0x07
    3aa0:	80 81       	ld	r24, Z
    3aa2:	91 81       	ldd	r25, Z+1	; 0x01
    3aa4:	80 0f       	add	r24, r16
    3aa6:	91 1f       	adc	r25, r17
    3aa8:	91 83       	std	Z+1, r25	; 0x01
    3aaa:	80 83       	st	Z, r24
    3aac:	2b 81       	ldd	r18, Y+3	; 0x03
    3aae:	3c 81       	ldd	r19, Y+4	; 0x04
    3ab0:	20 0f       	add	r18, r16
    3ab2:	31 1f       	adc	r19, r17
    3ab4:	3c 83       	std	Y+4, r19	; 0x04
    3ab6:	2b 83       	std	Y+3, r18	; 0x03
    3ab8:	98 01       	movw	r18, r16
    3aba:	40 e0       	ldi	r20, 0x00	; 0
    3abc:	50 e0       	ldi	r21, 0x00	; 0
    3abe:	f5 01       	movw	r30, r10
    3ac0:	80 89       	ldd	r24, Z+16	; 0x10
    3ac2:	91 89       	ldd	r25, Z+17	; 0x11
    3ac4:	a2 89       	ldd	r26, Z+18	; 0x12
    3ac6:	b3 89       	ldd	r27, Z+19	; 0x13
    3ac8:	82 0f       	add	r24, r18
    3aca:	93 1f       	adc	r25, r19
    3acc:	a4 1f       	adc	r26, r20
    3ace:	b5 1f       	adc	r27, r21
    3ad0:	80 8b       	std	Z+16, r24	; 0x10
    3ad2:	91 8b       	std	Z+17, r25	; 0x11
    3ad4:	a2 8b       	std	Z+18, r26	; 0x12
    3ad6:	b3 8b       	std	Z+19, r27	; 0x13
    3ad8:	21 14       	cp	r2, r1
    3ada:	31 04       	cpc	r3, r1
    3adc:	09 f0       	breq	.+2      	; 0x3ae0 <f_read+0x2f6>
    3ade:	dc ce       	rjmp	.-584    	; 0x3898 <f_read+0xae>
    3ae0:	8d 81       	ldd	r24, Y+5	; 0x05
    3ae2:	29 96       	adiw	r28, 0x09	; 9
    3ae4:	0f b6       	in	r0, 0x3f	; 63
    3ae6:	f8 94       	cli
    3ae8:	de bf       	out	0x3e, r29	; 62
    3aea:	0f be       	out	0x3f, r0	; 63
    3aec:	cd bf       	out	0x3d, r28	; 61
    3aee:	cf 91       	pop	r28
    3af0:	df 91       	pop	r29
    3af2:	1f 91       	pop	r17
    3af4:	0f 91       	pop	r16
    3af6:	ff 90       	pop	r15
    3af8:	ef 90       	pop	r14
    3afa:	df 90       	pop	r13
    3afc:	cf 90       	pop	r12
    3afe:	bf 90       	pop	r11
    3b00:	af 90       	pop	r10
    3b02:	9f 90       	pop	r9
    3b04:	8f 90       	pop	r8
    3b06:	7f 90       	pop	r7
    3b08:	6f 90       	pop	r6
    3b0a:	5f 90       	pop	r5
    3b0c:	4f 90       	pop	r4
    3b0e:	3f 90       	pop	r3
    3b10:	2f 90       	pop	r2
    3b12:	08 95       	ret

00003b14 <f_open>:
    3b14:	2f 92       	push	r2
    3b16:	3f 92       	push	r3
    3b18:	4f 92       	push	r4
    3b1a:	5f 92       	push	r5
    3b1c:	6f 92       	push	r6
    3b1e:	7f 92       	push	r7
    3b20:	8f 92       	push	r8
    3b22:	9f 92       	push	r9
    3b24:	af 92       	push	r10
    3b26:	bf 92       	push	r11
    3b28:	cf 92       	push	r12
    3b2a:	df 92       	push	r13
    3b2c:	ef 92       	push	r14
    3b2e:	ff 92       	push	r15
    3b30:	0f 93       	push	r16
    3b32:	1f 93       	push	r17
    3b34:	df 93       	push	r29
    3b36:	cf 93       	push	r28
    3b38:	cd b7       	in	r28, 0x3d	; 61
    3b3a:	de b7       	in	r29, 0x3e	; 62
    3b3c:	e5 97       	sbiw	r28, 0x35	; 53
    3b3e:	0f b6       	in	r0, 0x3f	; 63
    3b40:	f8 94       	cli
    3b42:	de bf       	out	0x3e, r29	; 62
    3b44:	0f be       	out	0x3f, r0	; 63
    3b46:	cd bf       	out	0x3d, r28	; 61
    3b48:	1c 01       	movw	r2, r24
    3b4a:	7c a7       	std	Y+44, r23	; 0x2c
    3b4c:	6b a7       	std	Y+43, r22	; 0x2b
    3b4e:	00 97       	sbiw	r24, 0x00	; 0
    3b50:	19 f4       	brne	.+6      	; 0x3b58 <f_open+0x44>
    3b52:	49 e0       	ldi	r20, 0x09	; 9
    3b54:	b4 2e       	mov	r11, r20
    3b56:	4d c2       	rjmp	.+1178   	; 0x3ff2 <f_open+0x4de>
    3b58:	4f 73       	andi	r20, 0x3F	; 63
    3b5a:	4d a7       	std	Y+45, r20	; 0x2d
    3b5c:	ce 01       	movw	r24, r28
    3b5e:	8b 96       	adiw	r24, 0x2b	; 43
    3b60:	be 01       	movw	r22, r28
    3b62:	6f 5f       	subi	r22, 0xFF	; 255
    3b64:	7f 4f       	sbci	r23, 0xFF	; 255
    3b66:	0e 94 9d 0d 	call	0x1b3a	; 0x1b3a <mount_volume>
    3b6a:	88 23       	and	r24, r24
    3b6c:	09 f0       	breq	.+2      	; 0x3b70 <f_open+0x5c>
    3b6e:	80 c2       	rjmp	.+1280   	; 0x4070 <f_open+0x55c>
    3b70:	89 81       	ldd	r24, Y+1	; 0x01
    3b72:	9a 81       	ldd	r25, Y+2	; 0x02
    3b74:	9c 83       	std	Y+4, r25	; 0x04
    3b76:	8b 83       	std	Y+3, r24	; 0x03
    3b78:	6b a5       	ldd	r22, Y+43	; 0x2b
    3b7a:	7c a5       	ldd	r23, Y+44	; 0x2c
    3b7c:	ce 01       	movw	r24, r28
    3b7e:	03 96       	adiw	r24, 0x03	; 3
    3b80:	0e 94 e6 16 	call	0x2dcc	; 0x2dcc <follow_path>
    3b84:	b8 2e       	mov	r11, r24
    3b86:	88 23       	and	r24, r24
    3b88:	29 f4       	brne	.+10     	; 0x3b94 <f_open+0x80>
    3b8a:	8a a5       	ldd	r24, Y+42	; 0x2a
    3b8c:	87 ff       	sbrs	r24, 7
    3b8e:	02 c0       	rjmp	.+4      	; 0x3b94 <f_open+0x80>
    3b90:	36 e0       	ldi	r19, 0x06	; 6
    3b92:	b3 2e       	mov	r11, r19
    3b94:	8d a5       	ldd	r24, Y+45	; 0x2d
    3b96:	28 2f       	mov	r18, r24
    3b98:	30 e0       	ldi	r19, 0x00	; 0
    3b9a:	c9 01       	movw	r24, r18
    3b9c:	8c 71       	andi	r24, 0x1C	; 28
    3b9e:	90 70       	andi	r25, 0x00	; 0
    3ba0:	89 2b       	or	r24, r25
    3ba2:	09 f4       	brne	.+2      	; 0x3ba6 <f_open+0x92>
    3ba4:	14 c1       	rjmp	.+552    	; 0x3dce <f_open+0x2ba>
    3ba6:	bb 20       	and	r11, r11
    3ba8:	09 f4       	brne	.+2      	; 0x3bac <f_open+0x98>
    3baa:	4c c0       	rjmp	.+152    	; 0x3c44 <f_open+0x130>
    3bac:	94 e0       	ldi	r25, 0x04	; 4
    3bae:	b9 16       	cp	r11, r25
    3bb0:	09 f0       	breq	.+2      	; 0x3bb4 <f_open+0xa0>
    3bb2:	5a c2       	rjmp	.+1204   	; 0x4068 <f_open+0x554>
    3bb4:	eb 80       	ldd	r14, Y+3	; 0x03
    3bb6:	fc 80       	ldd	r15, Y+4	; 0x04
    3bb8:	8e 01       	movw	r16, r28
    3bba:	0d 5f       	subi	r16, 0xFD	; 253
    3bbc:	1f 4f       	sbci	r17, 0xFF	; 255
    3bbe:	c8 01       	movw	r24, r16
    3bc0:	40 e0       	ldi	r20, 0x00	; 0
    3bc2:	50 e0       	ldi	r21, 0x00	; 0
    3bc4:	60 e0       	ldi	r22, 0x00	; 0
    3bc6:	70 e0       	ldi	r23, 0x00	; 0
    3bc8:	0e 94 c2 11 	call	0x2384	; 0x2384 <dir_sdi>
    3bcc:	b8 2e       	mov	r11, r24
    3bce:	88 23       	and	r24, r24
    3bd0:	d9 f4       	brne	.+54     	; 0x3c08 <f_open+0xf4>
    3bd2:	49 8d       	ldd	r20, Y+25	; 0x19
    3bd4:	5a 8d       	ldd	r21, Y+26	; 0x1a
    3bd6:	6b 8d       	ldd	r22, Y+27	; 0x1b
    3bd8:	7c 8d       	ldd	r23, Y+28	; 0x1c
    3bda:	c7 01       	movw	r24, r14
    3bdc:	0e 94 a1 0c 	call	0x1942	; 0x1942 <move_window>
    3be0:	b8 2e       	mov	r11, r24
    3be2:	88 23       	and	r24, r24
    3be4:	89 f4       	brne	.+34     	; 0x3c08 <f_open+0xf4>
    3be6:	ed 8d       	ldd	r30, Y+29	; 0x1d
    3be8:	fe 8d       	ldd	r31, Y+30	; 0x1e
    3bea:	e0 81       	ld	r30, Z
    3bec:	e5 3e       	cpi	r30, 0xE5	; 229
    3bee:	09 f4       	brne	.+2      	; 0x3bf2 <f_open+0xde>
    3bf0:	41 c2       	rjmp	.+1154   	; 0x4074 <f_open+0x560>
    3bf2:	ee 23       	and	r30, r30
    3bf4:	09 f4       	brne	.+2      	; 0x3bf8 <f_open+0xe4>
    3bf6:	3e c2       	rjmp	.+1148   	; 0x4074 <f_open+0x560>
    3bf8:	c8 01       	movw	r24, r16
    3bfa:	61 e0       	ldi	r22, 0x01	; 1
    3bfc:	70 e0       	ldi	r23, 0x00	; 0
    3bfe:	0e 94 1e 15 	call	0x2a3c	; 0x2a3c <dir_next>
    3c02:	b8 2e       	mov	r11, r24
    3c04:	88 23       	and	r24, r24
    3c06:	29 f3       	breq	.-54     	; 0x3bd2 <f_open+0xbe>
    3c08:	a4 e0       	ldi	r26, 0x04	; 4
    3c0a:	ba 16       	cp	r11, r26
    3c0c:	09 f0       	breq	.+2      	; 0x3c10 <f_open+0xfc>
    3c0e:	2c c2       	rjmp	.+1112   	; 0x4068 <f_open+0x554>
    3c10:	28 c2       	rjmp	.+1104   	; 0x4062 <f_open+0x54e>
    3c12:	ed 8d       	ldd	r30, Y+29	; 0x1d
    3c14:	fe 8d       	ldd	r31, Y+30	; 0x1e
    3c16:	80 e2       	ldi	r24, 0x20	; 32
    3c18:	df 01       	movw	r26, r30
    3c1a:	1d 92       	st	X+, r1
    3c1c:	8a 95       	dec	r24
    3c1e:	e9 f7       	brne	.-6      	; 0x3c1a <f_open+0x106>
    3c20:	2d 8d       	ldd	r18, Y+29	; 0x1d
    3c22:	3e 8d       	ldd	r19, Y+30	; 0x1e
    3c24:	c9 01       	movw	r24, r18
    3c26:	dc 01       	movw	r26, r24
    3c28:	fe 01       	movw	r30, r28
    3c2a:	7f 96       	adiw	r30, 0x1f	; 31
    3c2c:	8b e0       	ldi	r24, 0x0B	; 11
    3c2e:	01 90       	ld	r0, Z+
    3c30:	0d 92       	st	X+, r0
    3c32:	81 50       	subi	r24, 0x01	; 1
    3c34:	e1 f7       	brne	.-8      	; 0x3c2e <f_open+0x11a>
    3c36:	81 e0       	ldi	r24, 0x01	; 1
    3c38:	f7 01       	movw	r30, r14
    3c3a:	83 83       	std	Z+3, r24	; 0x03
    3c3c:	fd a5       	ldd	r31, Y+45	; 0x2d
    3c3e:	f8 60       	ori	r31, 0x08	; 8
    3c40:	fd a7       	std	Y+45, r31	; 0x2d
    3c42:	06 c0       	rjmp	.+12     	; 0x3c50 <f_open+0x13c>
    3c44:	8f 81       	ldd	r24, Y+7	; 0x07
    3c46:	81 71       	andi	r24, 0x11	; 17
    3c48:	09 f0       	breq	.+2      	; 0x3c4c <f_open+0x138>
    3c4a:	0b c2       	rjmp	.+1046   	; 0x4062 <f_open+0x54e>
    3c4c:	22 fd       	sbrc	r18, 2
    3c4e:	eb c1       	rjmp	.+982    	; 0x4026 <f_open+0x512>
    3c50:	8d a5       	ldd	r24, Y+45	; 0x2d
    3c52:	83 ff       	sbrs	r24, 3
    3c54:	c9 c0       	rjmp	.+402    	; 0x3de8 <f_open+0x2d4>
    3c56:	0e 94 45 20 	call	0x408a	; 0x408a <get_fattime>
    3c5a:	7b 01       	movw	r14, r22
    3c5c:	8c 01       	movw	r16, r24
    3c5e:	8d 8d       	ldd	r24, Y+29	; 0x1d
    3c60:	9e 8d       	ldd	r25, Y+30	; 0x1e
    3c62:	0e 96       	adiw	r24, 0x0e	; 14
    3c64:	b8 01       	movw	r22, r16
    3c66:	a7 01       	movw	r20, r14
    3c68:	0e 94 ae 0b 	call	0x175c	; 0x175c <st_dword>
    3c6c:	8d 8d       	ldd	r24, Y+29	; 0x1d
    3c6e:	9e 8d       	ldd	r25, Y+30	; 0x1e
    3c70:	46 96       	adiw	r24, 0x16	; 22
    3c72:	b8 01       	movw	r22, r16
    3c74:	a7 01       	movw	r20, r14
    3c76:	0e 94 ae 0b 	call	0x175c	; 0x175c <st_dword>
    3c7a:	0d 8d       	ldd	r16, Y+29	; 0x1d
    3c7c:	1e 8d       	ldd	r17, Y+30	; 0x1e
    3c7e:	89 81       	ldd	r24, Y+1	; 0x01
    3c80:	9a 81       	ldd	r25, Y+2	; 0x02
    3c82:	b8 01       	movw	r22, r16
    3c84:	0e 94 c5 0b 	call	0x178a	; 0x178a <ld_clust>
    3c88:	3b 01       	movw	r6, r22
    3c8a:	4c 01       	movw	r8, r24
    3c8c:	80 e2       	ldi	r24, 0x20	; 32
    3c8e:	d8 01       	movw	r26, r16
    3c90:	1b 96       	adiw	r26, 0x0b	; 11
    3c92:	8c 93       	st	X, r24
    3c94:	e9 81       	ldd	r30, Y+1	; 0x01
    3c96:	fa 81       	ldd	r31, Y+2	; 0x02
    3c98:	ad 8d       	ldd	r26, Y+29	; 0x1d
    3c9a:	be 8d       	ldd	r27, Y+30	; 0x1e
    3c9c:	5a 96       	adiw	r26, 0x1a	; 26
    3c9e:	1c 92       	st	X, r1
    3ca0:	5a 97       	sbiw	r26, 0x1a	; 26
    3ca2:	5b 96       	adiw	r26, 0x1b	; 27
    3ca4:	1c 92       	st	X, r1
    3ca6:	5b 97       	sbiw	r26, 0x1b	; 27
    3ca8:	80 81       	ld	r24, Z
    3caa:	83 30       	cpi	r24, 0x03	; 3
    3cac:	29 f4       	brne	.+10     	; 0x3cb8 <f_open+0x1a4>
    3cae:	54 96       	adiw	r26, 0x14	; 20
    3cb0:	1c 92       	st	X, r1
    3cb2:	54 97       	sbiw	r26, 0x14	; 20
    3cb4:	55 96       	adiw	r26, 0x15	; 21
    3cb6:	1c 92       	st	X, r1
    3cb8:	8d 8d       	ldd	r24, Y+29	; 0x1d
    3cba:	9e 8d       	ldd	r25, Y+30	; 0x1e
    3cbc:	4c 96       	adiw	r24, 0x1c	; 28
    3cbe:	40 e0       	ldi	r20, 0x00	; 0
    3cc0:	50 e0       	ldi	r21, 0x00	; 0
    3cc2:	60 e0       	ldi	r22, 0x00	; 0
    3cc4:	70 e0       	ldi	r23, 0x00	; 0
    3cc6:	0e 94 ae 0b 	call	0x175c	; 0x175c <st_dword>
    3cca:	e9 81       	ldd	r30, Y+1	; 0x01
    3ccc:	fa 81       	ldd	r31, Y+2	; 0x02
    3cce:	81 e0       	ldi	r24, 0x01	; 1
    3cd0:	83 83       	std	Z+3, r24	; 0x03
    3cd2:	61 14       	cp	r6, r1
    3cd4:	71 04       	cpc	r7, r1
    3cd6:	81 04       	cpc	r8, r1
    3cd8:	91 04       	cpc	r9, r1
    3cda:	09 f4       	brne	.+2      	; 0x3cde <f_open+0x1ca>
    3cdc:	85 c0       	rjmp	.+266    	; 0x3de8 <f_open+0x2d4>
    3cde:	87 a5       	ldd	r24, Z+47	; 0x2f
    3ce0:	90 a9       	ldd	r25, Z+48	; 0x30
    3ce2:	a1 a9       	ldd	r26, Z+49	; 0x31
    3ce4:	b2 a9       	ldd	r27, Z+50	; 0x32
    3ce6:	8e a7       	std	Y+46, r24	; 0x2e
    3ce8:	9f a7       	std	Y+47, r25	; 0x2f
    3cea:	a8 ab       	std	Y+48, r26	; 0x30
    3cec:	b9 ab       	std	Y+49, r27	; 0x31
    3cee:	4b 80       	ldd	r4, Y+3	; 0x03
    3cf0:	5c 80       	ldd	r5, Y+4	; 0x04
    3cf2:	92 e0       	ldi	r25, 0x02	; 2
    3cf4:	69 16       	cp	r6, r25
    3cf6:	71 04       	cpc	r7, r1
    3cf8:	81 04       	cpc	r8, r1
    3cfa:	91 04       	cpc	r9, r1
    3cfc:	08 f4       	brcc	.+2      	; 0x3d00 <f_open+0x1ec>
    3cfe:	72 c1       	rjmp	.+740    	; 0x3fe4 <f_open+0x4d0>
    3d00:	f2 01       	movw	r30, r4
    3d02:	87 89       	ldd	r24, Z+23	; 0x17
    3d04:	90 8d       	ldd	r25, Z+24	; 0x18
    3d06:	a1 8d       	ldd	r26, Z+25	; 0x19
    3d08:	b2 8d       	ldd	r27, Z+26	; 0x1a
    3d0a:	68 16       	cp	r6, r24
    3d0c:	79 06       	cpc	r7, r25
    3d0e:	8a 06       	cpc	r8, r26
    3d10:	9b 06       	cpc	r9, r27
    3d12:	08 f0       	brcs	.+2      	; 0x3d16 <f_open+0x202>
    3d14:	67 c1       	rjmp	.+718    	; 0x3fe4 <f_open+0x4d0>
    3d16:	53 01       	movw	r10, r6
    3d18:	84 01       	movw	r16, r8
    3d1a:	ce 01       	movw	r24, r28
    3d1c:	03 96       	adiw	r24, 0x03	; 3
    3d1e:	a5 01       	movw	r20, r10
    3d20:	b8 01       	movw	r22, r16
    3d22:	0e 94 e6 10 	call	0x21cc	; 0x21cc <get_fat>
    3d26:	6b 01       	movw	r12, r22
    3d28:	7c 01       	movw	r14, r24
    3d2a:	61 15       	cp	r22, r1
    3d2c:	71 05       	cpc	r23, r1
    3d2e:	81 05       	cpc	r24, r1
    3d30:	91 05       	cpc	r25, r1
    3d32:	09 f4       	brne	.+2      	; 0x3d36 <f_open+0x222>
    3d34:	7e c1       	rjmp	.+764    	; 0x4032 <f_open+0x51e>
    3d36:	61 30       	cpi	r22, 0x01	; 1
    3d38:	71 05       	cpc	r23, r1
    3d3a:	81 05       	cpc	r24, r1
    3d3c:	91 05       	cpc	r25, r1
    3d3e:	09 f4       	brne	.+2      	; 0x3d42 <f_open+0x22e>
    3d40:	51 c1       	rjmp	.+674    	; 0x3fe4 <f_open+0x4d0>
    3d42:	8f ef       	ldi	r24, 0xFF	; 255
    3d44:	c8 16       	cp	r12, r24
    3d46:	8f ef       	ldi	r24, 0xFF	; 255
    3d48:	d8 06       	cpc	r13, r24
    3d4a:	8f ef       	ldi	r24, 0xFF	; 255
    3d4c:	e8 06       	cpc	r14, r24
    3d4e:	8f ef       	ldi	r24, 0xFF	; 255
    3d50:	f8 06       	cpc	r15, r24
    3d52:	09 f4       	brne	.+2      	; 0x3d56 <f_open+0x242>
    3d54:	6b c1       	rjmp	.+726    	; 0x402c <f_open+0x518>
    3d56:	c2 01       	movw	r24, r4
    3d58:	a5 01       	movw	r20, r10
    3d5a:	b8 01       	movw	r22, r16
    3d5c:	00 e0       	ldi	r16, 0x00	; 0
    3d5e:	10 e0       	ldi	r17, 0x00	; 0
    3d60:	20 e0       	ldi	r18, 0x00	; 0
    3d62:	30 e0       	ldi	r19, 0x00	; 0
    3d64:	0e 94 cf 12 	call	0x259e	; 0x259e <put_fat>
    3d68:	b8 2e       	mov	r11, r24
    3d6a:	88 23       	and	r24, r24
    3d6c:	09 f0       	breq	.+2      	; 0x3d70 <f_open+0x25c>
    3d6e:	3c c1       	rjmp	.+632    	; 0x3fe8 <f_open+0x4d4>
    3d70:	d2 01       	movw	r26, r4
    3d72:	1f 96       	adiw	r26, 0x0f	; 15
    3d74:	2d 91       	ld	r18, X+
    3d76:	3d 91       	ld	r19, X+
    3d78:	4d 91       	ld	r20, X+
    3d7a:	5c 91       	ld	r21, X
    3d7c:	52 97       	sbiw	r26, 0x12	; 18
    3d7e:	57 96       	adiw	r26, 0x17	; 23
    3d80:	8d 91       	ld	r24, X+
    3d82:	9d 91       	ld	r25, X+
    3d84:	0d 90       	ld	r0, X+
    3d86:	bc 91       	ld	r27, X
    3d88:	a0 2d       	mov	r26, r0
    3d8a:	02 97       	sbiw	r24, 0x02	; 2
    3d8c:	a1 09       	sbc	r26, r1
    3d8e:	b1 09       	sbc	r27, r1
    3d90:	28 17       	cp	r18, r24
    3d92:	39 07       	cpc	r19, r25
    3d94:	4a 07       	cpc	r20, r26
    3d96:	5b 07       	cpc	r21, r27
    3d98:	60 f4       	brcc	.+24     	; 0x3db2 <f_open+0x29e>
    3d9a:	2f 5f       	subi	r18, 0xFF	; 255
    3d9c:	3f 4f       	sbci	r19, 0xFF	; 255
    3d9e:	4f 4f       	sbci	r20, 0xFF	; 255
    3da0:	5f 4f       	sbci	r21, 0xFF	; 255
    3da2:	f2 01       	movw	r30, r4
    3da4:	27 87       	std	Z+15, r18	; 0x0f
    3da6:	30 8b       	std	Z+16, r19	; 0x10
    3da8:	41 8b       	std	Z+17, r20	; 0x11
    3daa:	52 8b       	std	Z+18, r21	; 0x12
    3dac:	84 81       	ldd	r24, Z+4	; 0x04
    3dae:	81 60       	ori	r24, 0x01	; 1
    3db0:	84 83       	std	Z+4, r24	; 0x04
    3db2:	f2 01       	movw	r30, r4
    3db4:	87 89       	ldd	r24, Z+23	; 0x17
    3db6:	90 8d       	ldd	r25, Z+24	; 0x18
    3db8:	a1 8d       	ldd	r26, Z+25	; 0x19
    3dba:	b2 8d       	ldd	r27, Z+26	; 0x1a
    3dbc:	c8 16       	cp	r12, r24
    3dbe:	d9 06       	cpc	r13, r25
    3dc0:	ea 06       	cpc	r14, r26
    3dc2:	fb 06       	cpc	r15, r27
    3dc4:	08 f0       	brcs	.+2      	; 0x3dc8 <f_open+0x2b4>
    3dc6:	35 c1       	rjmp	.+618    	; 0x4032 <f_open+0x51e>
    3dc8:	56 01       	movw	r10, r12
    3dca:	87 01       	movw	r16, r14
    3dcc:	a6 cf       	rjmp	.-180    	; 0x3d1a <f_open+0x206>
    3dce:	bb 20       	and	r11, r11
    3dd0:	09 f0       	breq	.+2      	; 0x3dd4 <f_open+0x2c0>
    3dd2:	4a c1       	rjmp	.+660    	; 0x4068 <f_open+0x554>
    3dd4:	8f 81       	ldd	r24, Y+7	; 0x07
    3dd6:	84 ff       	sbrs	r24, 4
    3dd8:	03 c0       	rjmp	.+6      	; 0x3de0 <f_open+0x2cc>
    3dda:	24 e0       	ldi	r18, 0x04	; 4
    3ddc:	b2 2e       	mov	r11, r18
    3dde:	04 c1       	rjmp	.+520    	; 0x3fe8 <f_open+0x4d4>
    3de0:	21 ff       	sbrs	r18, 1
    3de2:	02 c0       	rjmp	.+4      	; 0x3de8 <f_open+0x2d4>
    3de4:	80 fd       	sbrc	r24, 0
    3de6:	3d c1       	rjmp	.+634    	; 0x4062 <f_open+0x54e>
    3de8:	fd a5       	ldd	r31, Y+45	; 0x2d
    3dea:	f3 ff       	sbrs	r31, 3
    3dec:	02 c0       	rjmp	.+4      	; 0x3df2 <f_open+0x2de>
    3dee:	f0 64       	ori	r31, 0x40	; 64
    3df0:	fd a7       	std	Y+45, r31	; 0x2d
    3df2:	e9 80       	ldd	r14, Y+1	; 0x01
    3df4:	fa 80       	ldd	r15, Y+2	; 0x02
    3df6:	f7 01       	movw	r30, r14
    3df8:	87 a5       	ldd	r24, Z+47	; 0x2f
    3dfa:	90 a9       	ldd	r25, Z+48	; 0x30
    3dfc:	a1 a9       	ldd	r26, Z+49	; 0x31
    3dfe:	b2 a9       	ldd	r27, Z+50	; 0x32
    3e00:	f1 01       	movw	r30, r2
    3e02:	84 8f       	std	Z+28, r24	; 0x1c
    3e04:	95 8f       	std	Z+29, r25	; 0x1d
    3e06:	a6 8f       	std	Z+30, r26	; 0x1e
    3e08:	b7 8f       	std	Z+31, r27	; 0x1f
    3e0a:	0d 8d       	ldd	r16, Y+29	; 0x1d
    3e0c:	1e 8d       	ldd	r17, Y+30	; 0x1e
    3e0e:	11 a3       	std	Z+33, r17	; 0x21
    3e10:	00 a3       	std	Z+32, r16	; 0x20
    3e12:	c7 01       	movw	r24, r14
    3e14:	b8 01       	movw	r22, r16
    3e16:	0e 94 c5 0b 	call	0x178a	; 0x178a <ld_clust>
    3e1a:	d6 2e       	mov	r13, r22
    3e1c:	c7 2e       	mov	r12, r23
    3e1e:	b8 2e       	mov	r11, r24
    3e20:	a9 2e       	mov	r10, r25
    3e22:	d1 01       	movw	r26, r2
    3e24:	16 96       	adiw	r26, 0x06	; 6
    3e26:	6c 93       	st	X, r22
    3e28:	16 97       	sbiw	r26, 0x06	; 6
    3e2a:	17 96       	adiw	r26, 0x07	; 7
    3e2c:	7c 93       	st	X, r23
    3e2e:	17 97       	sbiw	r26, 0x07	; 7
    3e30:	18 96       	adiw	r26, 0x08	; 8
    3e32:	8c 93       	st	X, r24
    3e34:	18 97       	sbiw	r26, 0x08	; 8
    3e36:	19 96       	adiw	r26, 0x09	; 9
    3e38:	9c 93       	st	X, r25
    3e3a:	c8 01       	movw	r24, r16
    3e3c:	4c 96       	adiw	r24, 0x1c	; 28
    3e3e:	0e 94 82 0b 	call	0x1704	; 0x1704 <ld_dword>
    3e42:	8b 01       	movw	r16, r22
    3e44:	9c 01       	movw	r18, r24
    3e46:	f1 01       	movw	r30, r2
    3e48:	62 87       	std	Z+10, r22	; 0x0a
    3e4a:	73 87       	std	Z+11, r23	; 0x0b
    3e4c:	84 87       	std	Z+12, r24	; 0x0c
    3e4e:	95 87       	std	Z+13, r25	; 0x0d
    3e50:	f1 82       	std	Z+1, r15	; 0x01
    3e52:	e0 82       	st	Z, r14
    3e54:	d7 01       	movw	r26, r14
    3e56:	15 96       	adiw	r26, 0x05	; 5
    3e58:	8d 91       	ld	r24, X+
    3e5a:	9c 91       	ld	r25, X
    3e5c:	16 97       	sbiw	r26, 0x06	; 6
    3e5e:	93 83       	std	Z+3, r25	; 0x03
    3e60:	82 83       	std	Z+2, r24	; 0x02
    3e62:	bd a5       	ldd	r27, Y+45	; 0x2d
    3e64:	b6 87       	std	Z+14, r27	; 0x0e
    3e66:	17 86       	std	Z+15, r1	; 0x0f
    3e68:	10 8e       	std	Z+24, r1	; 0x18
    3e6a:	11 8e       	std	Z+25, r1	; 0x19
    3e6c:	12 8e       	std	Z+26, r1	; 0x1a
    3e6e:	13 8e       	std	Z+27, r1	; 0x1b
    3e70:	d1 01       	movw	r26, r2
    3e72:	50 96       	adiw	r26, 0x10	; 16
    3e74:	1d 92       	st	X+, r1
    3e76:	1d 92       	st	X+, r1
    3e78:	1d 92       	st	X+, r1
    3e7a:	1c 92       	st	X, r1
    3e7c:	53 97       	sbiw	r26, 0x13	; 19
    3e7e:	bd a5       	ldd	r27, Y+45	; 0x2d
    3e80:	b5 ff       	sbrs	r27, 5
    3e82:	b6 c0       	rjmp	.+364    	; 0x3ff0 <f_open+0x4dc>
    3e84:	01 15       	cp	r16, r1
    3e86:	11 05       	cpc	r17, r1
    3e88:	21 05       	cpc	r18, r1
    3e8a:	31 05       	cpc	r19, r1
    3e8c:	09 f4       	brne	.+2      	; 0x3e90 <f_open+0x37c>
    3e8e:	b0 c0       	rjmp	.+352    	; 0x3ff0 <f_open+0x4dc>
    3e90:	00 8b       	std	Z+16, r16	; 0x10
    3e92:	11 8b       	std	Z+17, r17	; 0x11
    3e94:	22 8b       	std	Z+18, r18	; 0x12
    3e96:	33 8b       	std	Z+19, r19	; 0x13
    3e98:	d7 01       	movw	r26, r14
    3e9a:	19 96       	adiw	r26, 0x09	; 9
    3e9c:	8d 91       	ld	r24, X+
    3e9e:	9c 91       	ld	r25, X
    3ea0:	1a 97       	sbiw	r26, 0x0a	; 10
    3ea2:	3c 01       	movw	r6, r24
    3ea4:	88 24       	eor	r8, r8
    3ea6:	99 24       	eor	r9, r9
    3ea8:	99 e0       	ldi	r25, 0x09	; 9
    3eaa:	66 0c       	add	r6, r6
    3eac:	77 1c       	adc	r7, r7
    3eae:	88 1c       	adc	r8, r8
    3eb0:	99 1c       	adc	r9, r9
    3eb2:	9a 95       	dec	r25
    3eb4:	d1 f7       	brne	.-12     	; 0x3eaa <f_open+0x396>
    3eb6:	8d 2d       	mov	r24, r13
    3eb8:	9c 2d       	mov	r25, r12
    3eba:	ab 2d       	mov	r26, r11
    3ebc:	ba 2d       	mov	r27, r10
    3ebe:	ac 01       	movw	r20, r24
    3ec0:	bd 01       	movw	r22, r26
    3ec2:	78 01       	movw	r14, r16
    3ec4:	89 01       	movw	r16, r18
    3ec6:	61 01       	movw	r12, r2
    3ec8:	88 27       	eor	r24, r24
    3eca:	99 27       	eor	r25, r25
    3ecc:	dc 01       	movw	r26, r24
    3ece:	86 19       	sub	r24, r6
    3ed0:	97 09       	sbc	r25, r7
    3ed2:	a8 09       	sbc	r26, r8
    3ed4:	b9 09       	sbc	r27, r9
    3ed6:	8a ab       	std	Y+50, r24	; 0x32
    3ed8:	9b ab       	std	Y+51, r25	; 0x33
    3eda:	ac ab       	std	Y+52, r26	; 0x34
    3edc:	bd ab       	std	Y+53, r27	; 0x35
    3ede:	22 c0       	rjmp	.+68     	; 0x3f24 <f_open+0x410>
    3ee0:	c6 01       	movw	r24, r12
    3ee2:	0e 94 e6 10 	call	0x21cc	; 0x21cc <get_fat>
    3ee6:	ab 01       	movw	r20, r22
    3ee8:	bc 01       	movw	r22, r24
    3eea:	42 30       	cpi	r20, 0x02	; 2
    3eec:	51 05       	cpc	r21, r1
    3eee:	61 05       	cpc	r22, r1
    3ef0:	71 05       	cpc	r23, r1
    3ef2:	18 f4       	brcc	.+6      	; 0x3efa <f_open+0x3e6>
    3ef4:	82 e0       	ldi	r24, 0x02	; 2
    3ef6:	b8 2e       	mov	r11, r24
    3ef8:	01 c0       	rjmp	.+2      	; 0x3efc <f_open+0x3e8>
    3efa:	bb 24       	eor	r11, r11
    3efc:	4f 3f       	cpi	r20, 0xFF	; 255
    3efe:	9f ef       	ldi	r25, 0xFF	; 255
    3f00:	59 07       	cpc	r21, r25
    3f02:	9f ef       	ldi	r25, 0xFF	; 255
    3f04:	69 07       	cpc	r22, r25
    3f06:	9f ef       	ldi	r25, 0xFF	; 255
    3f08:	79 07       	cpc	r23, r25
    3f0a:	11 f4       	brne	.+4      	; 0x3f10 <f_open+0x3fc>
    3f0c:	bb 24       	eor	r11, r11
    3f0e:	b3 94       	inc	r11
    3f10:	8a a9       	ldd	r24, Y+50	; 0x32
    3f12:	9b a9       	ldd	r25, Y+51	; 0x33
    3f14:	ac a9       	ldd	r26, Y+52	; 0x34
    3f16:	bd a9       	ldd	r27, Y+53	; 0x35
    3f18:	e8 0e       	add	r14, r24
    3f1a:	f9 1e       	adc	r15, r25
    3f1c:	0a 1f       	adc	r16, r26
    3f1e:	1b 1f       	adc	r17, r27
    3f20:	bb 20       	and	r11, r11
    3f22:	31 f4       	brne	.+12     	; 0x3f30 <f_open+0x41c>
    3f24:	6e 14       	cp	r6, r14
    3f26:	7f 04       	cpc	r7, r15
    3f28:	80 06       	cpc	r8, r16
    3f2a:	91 06       	cpc	r9, r17
    3f2c:	c8 f2       	brcs	.-78     	; 0x3ee0 <f_open+0x3cc>
    3f2e:	bb 24       	eor	r11, r11
    3f30:	d1 01       	movw	r26, r2
    3f32:	54 96       	adiw	r26, 0x14	; 20
    3f34:	4d 93       	st	X+, r20
    3f36:	5d 93       	st	X+, r21
    3f38:	6d 93       	st	X+, r22
    3f3a:	7c 93       	st	X, r23
    3f3c:	57 97       	sbiw	r26, 0x17	; 23
    3f3e:	bb 20       	and	r11, r11
    3f40:	09 f0       	breq	.+2      	; 0x3f44 <f_open+0x430>
    3f42:	95 c0       	rjmp	.+298    	; 0x406e <f_open+0x55a>
    3f44:	d8 01       	movw	r26, r16
    3f46:	c7 01       	movw	r24, r14
    3f48:	91 70       	andi	r25, 0x01	; 1
    3f4a:	a0 70       	andi	r26, 0x00	; 0
    3f4c:	b0 70       	andi	r27, 0x00	; 0
    3f4e:	00 97       	sbiw	r24, 0x00	; 0
    3f50:	a1 05       	cpc	r26, r1
    3f52:	b1 05       	cpc	r27, r1
    3f54:	09 f4       	brne	.+2      	; 0x3f58 <f_open+0x444>
    3f56:	4d c0       	rjmp	.+154    	; 0x3ff2 <f_open+0x4de>
    3f58:	c9 80       	ldd	r12, Y+1	; 0x01
    3f5a:	da 80       	ldd	r13, Y+2	; 0x02
    3f5c:	be ef       	ldi	r27, 0xFE	; 254
    3f5e:	6b 2e       	mov	r6, r27
    3f60:	bf ef       	ldi	r27, 0xFF	; 255
    3f62:	7b 2e       	mov	r7, r27
    3f64:	bf ef       	ldi	r27, 0xFF	; 255
    3f66:	8b 2e       	mov	r8, r27
    3f68:	bf ef       	ldi	r27, 0xFF	; 255
    3f6a:	9b 2e       	mov	r9, r27
    3f6c:	64 0e       	add	r6, r20
    3f6e:	75 1e       	adc	r7, r21
    3f70:	86 1e       	adc	r8, r22
    3f72:	97 1e       	adc	r9, r23
    3f74:	f6 01       	movw	r30, r12
    3f76:	87 89       	ldd	r24, Z+23	; 0x17
    3f78:	90 8d       	ldd	r25, Z+24	; 0x18
    3f7a:	a1 8d       	ldd	r26, Z+25	; 0x19
    3f7c:	b2 8d       	ldd	r27, Z+26	; 0x1a
    3f7e:	02 97       	sbiw	r24, 0x02	; 2
    3f80:	a1 09       	sbc	r26, r1
    3f82:	b1 09       	sbc	r27, r1
    3f84:	68 16       	cp	r6, r24
    3f86:	79 06       	cpc	r7, r25
    3f88:	8a 06       	cpc	r8, r26
    3f8a:	9b 06       	cpc	r9, r27
    3f8c:	58 f5       	brcc	.+86     	; 0x3fe4 <f_open+0x4d0>
    3f8e:	21 85       	ldd	r18, Z+9	; 0x09
    3f90:	32 85       	ldd	r19, Z+10	; 0x0a
    3f92:	40 e0       	ldi	r20, 0x00	; 0
    3f94:	50 e0       	ldi	r21, 0x00	; 0
    3f96:	c4 01       	movw	r24, r8
    3f98:	b3 01       	movw	r22, r6
    3f9a:	0e 94 71 2b 	call	0x56e2	; 0x56e2 <__mulsi3>
    3f9e:	9b 01       	movw	r18, r22
    3fa0:	ac 01       	movw	r20, r24
    3fa2:	f6 01       	movw	r30, r12
    3fa4:	83 a5       	ldd	r24, Z+43	; 0x2b
    3fa6:	94 a5       	ldd	r25, Z+44	; 0x2c
    3fa8:	a5 a5       	ldd	r26, Z+45	; 0x2d
    3faa:	b6 a5       	ldd	r27, Z+46	; 0x2e
    3fac:	28 0f       	add	r18, r24
    3fae:	39 1f       	adc	r19, r25
    3fb0:	4a 1f       	adc	r20, r26
    3fb2:	5b 1f       	adc	r21, r27
    3fb4:	21 15       	cp	r18, r1
    3fb6:	31 05       	cpc	r19, r1
    3fb8:	41 05       	cpc	r20, r1
    3fba:	51 05       	cpc	r21, r1
    3fbc:	99 f0       	breq	.+38     	; 0x3fe4 <f_open+0x4d0>
    3fbe:	a9 e0       	ldi	r26, 0x09	; 9
    3fc0:	16 95       	lsr	r17
    3fc2:	07 95       	ror	r16
    3fc4:	f7 94       	ror	r15
    3fc6:	e7 94       	ror	r14
    3fc8:	aa 95       	dec	r26
    3fca:	d1 f7       	brne	.-12     	; 0x3fc0 <f_open+0x4ac>
    3fcc:	2e 0d       	add	r18, r14
    3fce:	3f 1d       	adc	r19, r15
    3fd0:	40 1f       	adc	r20, r16
    3fd2:	51 1f       	adc	r21, r17
    3fd4:	d1 01       	movw	r26, r2
    3fd6:	58 96       	adiw	r26, 0x18	; 24
    3fd8:	2d 93       	st	X+, r18
    3fda:	3d 93       	st	X+, r19
    3fdc:	4d 93       	st	X+, r20
    3fde:	5c 93       	st	X, r21
    3fe0:	5b 97       	sbiw	r26, 0x1b	; 27
    3fe2:	07 c0       	rjmp	.+14     	; 0x3ff2 <f_open+0x4de>
    3fe4:	f2 e0       	ldi	r31, 0x02	; 2
    3fe6:	bf 2e       	mov	r11, r31
    3fe8:	f1 01       	movw	r30, r2
    3fea:	11 82       	std	Z+1, r1	; 0x01
    3fec:	10 82       	st	Z, r1
    3fee:	01 c0       	rjmp	.+2      	; 0x3ff2 <f_open+0x4de>
    3ff0:	bb 24       	eor	r11, r11
    3ff2:	8b 2d       	mov	r24, r11
    3ff4:	e5 96       	adiw	r28, 0x35	; 53
    3ff6:	0f b6       	in	r0, 0x3f	; 63
    3ff8:	f8 94       	cli
    3ffa:	de bf       	out	0x3e, r29	; 62
    3ffc:	0f be       	out	0x3f, r0	; 63
    3ffe:	cd bf       	out	0x3d, r28	; 61
    4000:	cf 91       	pop	r28
    4002:	df 91       	pop	r29
    4004:	1f 91       	pop	r17
    4006:	0f 91       	pop	r16
    4008:	ff 90       	pop	r15
    400a:	ef 90       	pop	r14
    400c:	df 90       	pop	r13
    400e:	cf 90       	pop	r12
    4010:	bf 90       	pop	r11
    4012:	af 90       	pop	r10
    4014:	9f 90       	pop	r9
    4016:	8f 90       	pop	r8
    4018:	7f 90       	pop	r7
    401a:	6f 90       	pop	r6
    401c:	5f 90       	pop	r5
    401e:	4f 90       	pop	r4
    4020:	3f 90       	pop	r3
    4022:	2f 90       	pop	r2
    4024:	08 95       	ret
    4026:	e8 e0       	ldi	r30, 0x08	; 8
    4028:	be 2e       	mov	r11, r30
    402a:	de cf       	rjmp	.-68     	; 0x3fe8 <f_open+0x4d4>
    402c:	bb 24       	eor	r11, r11
    402e:	b3 94       	inc	r11
    4030:	db cf       	rjmp	.-74     	; 0x3fe8 <f_open+0x4d4>
    4032:	89 81       	ldd	r24, Y+1	; 0x01
    4034:	9a 81       	ldd	r25, Y+2	; 0x02
    4036:	4e a5       	ldd	r20, Y+46	; 0x2e
    4038:	5f a5       	ldd	r21, Y+47	; 0x2f
    403a:	68 a9       	ldd	r22, Y+48	; 0x30
    403c:	79 a9       	ldd	r23, Y+49	; 0x31
    403e:	0e 94 a1 0c 	call	0x1942	; 0x1942 <move_window>
    4042:	b8 2e       	mov	r11, r24
    4044:	e9 81       	ldd	r30, Y+1	; 0x01
    4046:	fa 81       	ldd	r31, Y+2	; 0x02
    4048:	08 94       	sec
    404a:	61 08       	sbc	r6, r1
    404c:	71 08       	sbc	r7, r1
    404e:	81 08       	sbc	r8, r1
    4050:	91 08       	sbc	r9, r1
    4052:	63 86       	std	Z+11, r6	; 0x0b
    4054:	74 86       	std	Z+12, r7	; 0x0c
    4056:	85 86       	std	Z+13, r8	; 0x0d
    4058:	96 86       	std	Z+14, r9	; 0x0e
    405a:	88 23       	and	r24, r24
    405c:	09 f4       	brne	.+2      	; 0x4060 <f_open+0x54c>
    405e:	c4 ce       	rjmp	.-632    	; 0x3de8 <f_open+0x2d4>
    4060:	c3 cf       	rjmp	.-122    	; 0x3fe8 <f_open+0x4d4>
    4062:	77 e0       	ldi	r23, 0x07	; 7
    4064:	b7 2e       	mov	r11, r23
    4066:	c0 cf       	rjmp	.-128    	; 0x3fe8 <f_open+0x4d4>
    4068:	bb 20       	and	r11, r11
    406a:	19 f2       	breq	.-122    	; 0x3ff2 <f_open+0x4de>
    406c:	bd cf       	rjmp	.-134    	; 0x3fe8 <f_open+0x4d4>
    406e:	8b 2d       	mov	r24, r11
    4070:	b8 2e       	mov	r11, r24
    4072:	ba cf       	rjmp	.-140    	; 0x3fe8 <f_open+0x4d4>
    4074:	49 8d       	ldd	r20, Y+25	; 0x19
    4076:	5a 8d       	ldd	r21, Y+26	; 0x1a
    4078:	6b 8d       	ldd	r22, Y+27	; 0x1b
    407a:	7c 8d       	ldd	r23, Y+28	; 0x1c
    407c:	c7 01       	movw	r24, r14
    407e:	0e 94 a1 0c 	call	0x1942	; 0x1942 <move_window>
    4082:	b8 2e       	mov	r11, r24
    4084:	88 23       	and	r24, r24
    4086:	81 f7       	brne	.-32     	; 0x4068 <f_open+0x554>
    4088:	c4 cd       	rjmp	.-1144   	; 0x3c12 <f_open+0xfe>

0000408a <get_fattime>:
    408a:	60 e0       	ldi	r22, 0x00	; 0
    408c:	70 e0       	ldi	r23, 0x00	; 0
    408e:	8c ef       	ldi	r24, 0xFC	; 252
    4090:	92 e4       	ldi	r25, 0x42	; 66
    4092:	08 95       	ret

00004094 <__vector_4>:
    4094:	1f 92       	push	r1
    4096:	0f 92       	push	r0
    4098:	0f b6       	in	r0, 0x3f	; 63
    409a:	0f 92       	push	r0
    409c:	11 24       	eor	r1, r1
    409e:	2f 93       	push	r18
    40a0:	3f 93       	push	r19
    40a2:	4f 93       	push	r20
    40a4:	5f 93       	push	r21
    40a6:	6f 93       	push	r22
    40a8:	7f 93       	push	r23
    40aa:	8f 93       	push	r24
    40ac:	9f 93       	push	r25
    40ae:	af 93       	push	r26
    40b0:	bf 93       	push	r27
    40b2:	ef 93       	push	r30
    40b4:	ff 93       	push	r31
    40b6:	80 91 2e 04 	lds	r24, 0x042E
    40ba:	90 91 2f 04 	lds	r25, 0x042F
    40be:	01 96       	adiw	r24, 0x01	; 1
    40c0:	90 93 2f 04 	sts	0x042F, r25
    40c4:	80 93 2e 04 	sts	0x042E, r24
    40c8:	0e 94 4a 0b 	call	0x1694	; 0x1694 <disk_timerproc>
    40cc:	ff 91       	pop	r31
    40ce:	ef 91       	pop	r30
    40d0:	bf 91       	pop	r27
    40d2:	af 91       	pop	r26
    40d4:	9f 91       	pop	r25
    40d6:	8f 91       	pop	r24
    40d8:	7f 91       	pop	r23
    40da:	6f 91       	pop	r22
    40dc:	5f 91       	pop	r21
    40de:	4f 91       	pop	r20
    40e0:	3f 91       	pop	r19
    40e2:	2f 91       	pop	r18
    40e4:	0f 90       	pop	r0
    40e6:	0f be       	out	0x3f, r0	; 63
    40e8:	0f 90       	pop	r0
    40ea:	1f 90       	pop	r1
    40ec:	18 95       	reti

000040ee <kalibruj>:
    40ee:	0f 93       	push	r16
    40f0:	1f 93       	push	r17
    40f2:	df 93       	push	r29
    40f4:	cf 93       	push	r28
    40f6:	cd b7       	in	r28, 0x3d	; 61
    40f8:	de b7       	in	r29, 0x3e	; 62
    40fa:	6d 97       	sbiw	r28, 0x1d	; 29
    40fc:	0f b6       	in	r0, 0x3f	; 63
    40fe:	f8 94       	cli
    4100:	de bf       	out	0x3e, r29	; 62
    4102:	0f be       	out	0x3f, r0	; 63
    4104:	cd bf       	out	0x3d, r28	; 61
    4106:	0e 94 9e 00 	call	0x13c	; 0x13c <LCD_Clear>
    410a:	8e 01       	movw	r16, r28
    410c:	06 5f       	subi	r16, 0xF6	; 246
    410e:	1f 4f       	sbci	r17, 0xFF	; 255
    4110:	c8 01       	movw	r24, r16
    4112:	68 e7       	ldi	r22, 0x78	; 120
    4114:	70 e0       	ldi	r23, 0x00	; 0
    4116:	0e 94 ee 2b 	call	0x57dc	; 0x57dc <strcpy>
    411a:	80 e0       	ldi	r24, 0x00	; 0
    411c:	60 e0       	ldi	r22, 0x00	; 0
    411e:	0e 94 94 00 	call	0x128	; 0x128 <LCD_GoTo>
    4122:	c8 01       	movw	r24, r16
    4124:	0e 94 87 00 	call	0x10e	; 0x10e <LCD_WriteText>
    4128:	c8 01       	movw	r24, r16
    412a:	66 e8       	ldi	r22, 0x86	; 134
    412c:	70 e0       	ldi	r23, 0x00	; 0
    412e:	0e 94 ee 2b 	call	0x57dc	; 0x57dc <strcpy>
    4132:	80 e0       	ldi	r24, 0x00	; 0
    4134:	61 e0       	ldi	r22, 0x01	; 1
    4136:	0e 94 94 00 	call	0x128	; 0x128 <LCD_GoTo>
    413a:	c8 01       	movw	r24, r16
    413c:	0e 94 87 00 	call	0x10e	; 0x10e <LCD_WriteText>
    4140:	8e 01       	movw	r16, r28
    4142:	0f 5f       	subi	r16, 0xFF	; 255
    4144:	1f 4f       	sbci	r17, 0xFF	; 255
    4146:	60 e0       	ldi	r22, 0x00	; 0
    4148:	71 e0       	ldi	r23, 0x01	; 1
    414a:	80 e0       	ldi	r24, 0x00	; 0
    414c:	90 e0       	ldi	r25, 0x00	; 0
    414e:	42 e0       	ldi	r20, 0x02	; 2
    4150:	0e 94 f8 00 	call	0x1f0	; 0x1f0 <half_step_motor_left>
    4154:	c8 01       	movw	r24, r16
    4156:	0e 94 63 07 	call	0xec6	; 0xec6 <readRangeSingleMillimeters>
    415a:	88 3c       	cpi	r24, 0xC8	; 200
    415c:	91 05       	cpc	r25, r1
    415e:	98 f7       	brcc	.-26     	; 0x4146 <kalibruj+0x58>
    4160:	0e 94 9e 00 	call	0x13c	; 0x13c <LCD_Clear>
    4164:	8e 01       	movw	r16, r28
    4166:	06 5f       	subi	r16, 0xF6	; 246
    4168:	1f 4f       	sbci	r17, 0xFF	; 255
    416a:	c8 01       	movw	r24, r16
    416c:	62 e9       	ldi	r22, 0x92	; 146
    416e:	70 e0       	ldi	r23, 0x00	; 0
    4170:	0e 94 ee 2b 	call	0x57dc	; 0x57dc <strcpy>
    4174:	80 e0       	ldi	r24, 0x00	; 0
    4176:	60 e0       	ldi	r22, 0x00	; 0
    4178:	0e 94 94 00 	call	0x128	; 0x128 <LCD_GoTo>
    417c:	c8 01       	movw	r24, r16
    417e:	0e 94 87 00 	call	0x10e	; 0x10e <LCD_WriteText>
    4182:	c8 01       	movw	r24, r16
    4184:	61 ea       	ldi	r22, 0xA1	; 161
    4186:	70 e0       	ldi	r23, 0x00	; 0
    4188:	0e 94 ee 2b 	call	0x57dc	; 0x57dc <strcpy>
    418c:	80 e0       	ldi	r24, 0x00	; 0
    418e:	61 e0       	ldi	r22, 0x01	; 1
    4190:	0e 94 94 00 	call	0x128	; 0x128 <LCD_GoTo>
    4194:	c8 01       	movw	r24, r16
    4196:	0e 94 87 00 	call	0x10e	; 0x10e <LCD_WriteText>
    419a:	60 e0       	ldi	r22, 0x00	; 0
    419c:	72 e0       	ldi	r23, 0x02	; 2
    419e:	80 e0       	ldi	r24, 0x00	; 0
    41a0:	90 e0       	ldi	r25, 0x00	; 0
    41a2:	42 e0       	ldi	r20, 0x02	; 2
    41a4:	0e 94 91 01 	call	0x322	; 0x322 <half_step_motor_right>
    41a8:	6d 96       	adiw	r28, 0x1d	; 29
    41aa:	0f b6       	in	r0, 0x3f	; 63
    41ac:	f8 94       	cli
    41ae:	de bf       	out	0x3e, r29	; 62
    41b0:	0f be       	out	0x3f, r0	; 63
    41b2:	cd bf       	out	0x3d, r28	; 61
    41b4:	cf 91       	pop	r28
    41b6:	df 91       	pop	r29
    41b8:	1f 91       	pop	r17
    41ba:	0f 91       	pop	r16
    41bc:	08 95       	ret

000041be <main>:
    41be:	2f 92       	push	r2
    41c0:	3f 92       	push	r3
    41c2:	4f 92       	push	r4
    41c4:	5f 92       	push	r5
    41c6:	6f 92       	push	r6
    41c8:	7f 92       	push	r7
    41ca:	8f 92       	push	r8
    41cc:	9f 92       	push	r9
    41ce:	af 92       	push	r10
    41d0:	bf 92       	push	r11
    41d2:	cf 92       	push	r12
    41d4:	df 92       	push	r13
    41d6:	ef 92       	push	r14
    41d8:	ff 92       	push	r15
    41da:	0f 93       	push	r16
    41dc:	1f 93       	push	r17
    41de:	df 93       	push	r29
    41e0:	cf 93       	push	r28
    41e2:	cd b7       	in	r28, 0x3d	; 61
    41e4:	de b7       	in	r29, 0x3e	; 62
    41e6:	c1 56       	subi	r28, 0x61	; 97
    41e8:	d0 40       	sbci	r29, 0x00	; 0
    41ea:	0f b6       	in	r0, 0x3f	; 63
    41ec:	f8 94       	cli
    41ee:	de bf       	out	0x3e, r29	; 62
    41f0:	0f be       	out	0x3f, r0	; 63
    41f2:	cd bf       	out	0x3d, r28	; 61
    41f4:	0e 94 4f 0a 	call	0x149e	; 0x149e <init>
    41f8:	81 e0       	ldi	r24, 0x01	; 1
    41fa:	0e 94 02 08 	call	0x1004	; 0x1004 <initVL53L0X>
    41fe:	85 b5       	in	r24, 0x25	; 37
    4200:	8f 60       	ori	r24, 0x0F	; 15
    4202:	85 bd       	out	0x25, r24	; 37
    4204:	8e e4       	ldi	r24, 0x4E	; 78
    4206:	83 bd       	out	0x23, r24	; 35
    4208:	89 b7       	in	r24, 0x39	; 57
    420a:	80 68       	ori	r24, 0x80	; 128
    420c:	89 bf       	out	0x39, r24	; 57
    420e:	78 94       	sei
    4210:	80 e0       	ldi	r24, 0x00	; 0
    4212:	0e 94 74 0b 	call	0x16e8	; 0x16e8 <disk_initialize>
    4216:	60 e2       	ldi	r22, 0x20	; 32
    4218:	71 ea       	ldi	r23, 0xA1	; 161
    421a:	87 e0       	ldi	r24, 0x07	; 7
    421c:	90 e0       	ldi	r25, 0x00	; 0
    421e:	0e 94 65 05 	call	0xaca	; 0xaca <setMeasurementTimingBudget>
    4222:	0e 94 ae 00 	call	0x15c	; 0x15c <LCD_Initalize>
    4226:	0e 94 a6 00 	call	0x14c	; 0x14c <LCD_Home>
    422a:	d7 98       	cbi	0x1a, 7	; 26
    422c:	df 9a       	sbi	0x1b, 7	; 27
    422e:	8e 01       	movw	r16, r28
    4230:	0a 5e       	subi	r16, 0xEA	; 234
    4232:	1f 4f       	sbci	r17, 0xFF	; 255
    4234:	c8 01       	movw	r24, r16
    4236:	6d ea       	ldi	r22, 0xAD	; 173
    4238:	70 e0       	ldi	r23, 0x00	; 0
    423a:	0e 94 ee 2b 	call	0x57dc	; 0x57dc <strcpy>
    423e:	0e 94 9e 00 	call	0x13c	; 0x13c <LCD_Clear>
    4242:	80 e0       	ldi	r24, 0x00	; 0
    4244:	60 e0       	ldi	r22, 0x00	; 0
    4246:	0e 94 94 00 	call	0x128	; 0x128 <LCD_GoTo>
    424a:	c8 01       	movw	r24, r16
    424c:	0e 94 87 00 	call	0x10e	; 0x10e <LCD_WriteText>
    4250:	80 e5       	ldi	r24, 0x50	; 80
    4252:	93 ec       	ldi	r25, 0xC3	; 195
    4254:	28 ec       	ldi	r18, 0xC8	; 200
    4256:	30 e0       	ldi	r19, 0x00	; 0
    4258:	f9 01       	movw	r30, r18
    425a:	31 97       	sbiw	r30, 0x01	; 1
    425c:	f1 f7       	brne	.-4      	; 0x425a <main+0x9c>
    425e:	01 97       	sbiw	r24, 0x01	; 1
    4260:	d9 f7       	brne	.-10     	; 0x4258 <main+0x9a>
    4262:	85 ee       	ldi	r24, 0xE5	; 229
    4264:	91 e0       	ldi	r25, 0x01	; 1
    4266:	6a eb       	ldi	r22, 0xBA	; 186
    4268:	70 e0       	ldi	r23, 0x00	; 0
    426a:	41 e0       	ldi	r20, 0x01	; 1
    426c:	0e 94 a2 10 	call	0x2144	; 0x2144 <f_mount>
    4270:	18 2f       	mov	r17, r24
    4272:	84 ef       	ldi	r24, 0xF4	; 244
    4274:	91 e0       	ldi	r25, 0x01	; 1
    4276:	28 ec       	ldi	r18, 0xC8	; 200
    4278:	30 e0       	ldi	r19, 0x00	; 0
    427a:	f9 01       	movw	r30, r18
    427c:	31 97       	sbiw	r30, 0x01	; 1
    427e:	f1 f7       	brne	.-4      	; 0x427c <main+0xbe>
    4280:	01 97       	sbiw	r24, 0x01	; 1
    4282:	d9 f7       	brne	.-10     	; 0x427a <main+0xbc>
    4284:	3e c0       	rjmp	.+124    	; 0x4302 <main+0x144>
    4286:	0e 94 9e 00 	call	0x13c	; 0x13c <LCD_Clear>
    428a:	80 e0       	ldi	r24, 0x00	; 0
    428c:	60 e0       	ldi	r22, 0x00	; 0
    428e:	0e 94 94 00 	call	0x128	; 0x128 <LCD_GoTo>
    4292:	8b eb       	ldi	r24, 0xBB	; 187
    4294:	90 e0       	ldi	r25, 0x00	; 0
    4296:	0e 94 87 00 	call	0x10e	; 0x10e <LCD_WriteText>
    429a:	00 d0       	rcall	.+0      	; 0x429c <main+0xde>
    429c:	00 d0       	rcall	.+0      	; 0x429e <main+0xe0>
    429e:	00 d0       	rcall	.+0      	; 0x42a0 <main+0xe2>
    42a0:	ed b7       	in	r30, 0x3d	; 61
    42a2:	fe b7       	in	r31, 0x3e	; 62
    42a4:	31 96       	adiw	r30, 0x01	; 1
    42a6:	ad b7       	in	r26, 0x3d	; 61
    42a8:	be b7       	in	r27, 0x3e	; 62
    42aa:	12 96       	adiw	r26, 0x02	; 2
    42ac:	dc 92       	st	X, r13
    42ae:	ce 92       	st	-X, r12
    42b0:	11 97       	sbiw	r26, 0x01	; 1
    42b2:	f3 82       	std	Z+3, r15	; 0x03
    42b4:	e2 82       	std	Z+2, r14	; 0x02
    42b6:	14 83       	std	Z+4, r17	; 0x04
    42b8:	15 82       	std	Z+5, r1	; 0x05
    42ba:	0e 94 f5 2b 	call	0x57ea	; 0x57ea <sprintf>
    42be:	ed b7       	in	r30, 0x3d	; 61
    42c0:	fe b7       	in	r31, 0x3e	; 62
    42c2:	36 96       	adiw	r30, 0x06	; 6
    42c4:	0f b6       	in	r0, 0x3f	; 63
    42c6:	f8 94       	cli
    42c8:	fe bf       	out	0x3e, r31	; 62
    42ca:	0f be       	out	0x3f, r0	; 63
    42cc:	ed bf       	out	0x3d, r30	; 61
    42ce:	80 e0       	ldi	r24, 0x00	; 0
    42d0:	61 e0       	ldi	r22, 0x01	; 1
    42d2:	0e 94 94 00 	call	0x128	; 0x128 <LCD_GoTo>
    42d6:	c6 01       	movw	r24, r12
    42d8:	0e 94 87 00 	call	0x10e	; 0x10e <LCD_WriteText>
    42dc:	80 e4       	ldi	r24, 0x40	; 64
    42de:	9c e9       	ldi	r25, 0x9C	; 156
    42e0:	f1 01       	movw	r30, r2
    42e2:	31 97       	sbiw	r30, 0x01	; 1
    42e4:	f1 f7       	brne	.-4      	; 0x42e2 <main+0x124>
    42e6:	01 97       	sbiw	r24, 0x01	; 1
    42e8:	d9 f7       	brne	.-10     	; 0x42e0 <main+0x122>
    42ea:	80 e0       	ldi	r24, 0x00	; 0
    42ec:	0e 94 74 0b 	call	0x16e8	; 0x16e8 <disk_initialize>
    42f0:	85 ee       	ldi	r24, 0xE5	; 229
    42f2:	91 e0       	ldi	r25, 0x01	; 1
    42f4:	6a eb       	ldi	r22, 0xBA	; 186
    42f6:	70 e0       	ldi	r23, 0x00	; 0
    42f8:	41 e0       	ldi	r20, 0x01	; 1
    42fa:	0e 94 a2 10 	call	0x2144	; 0x2144 <f_mount>
    42fe:	18 2f       	mov	r17, r24
    4300:	0c c0       	rjmp	.+24     	; 0x431a <main+0x15c>
    4302:	76 e1       	ldi	r23, 0x16	; 22
    4304:	c7 2e       	mov	r12, r23
    4306:	d1 2c       	mov	r13, r1
    4308:	cc 0e       	add	r12, r28
    430a:	dd 1e       	adc	r13, r29
    430c:	69 ec       	ldi	r22, 0xC9	; 201
    430e:	e6 2e       	mov	r14, r22
    4310:	60 e0       	ldi	r22, 0x00	; 0
    4312:	f6 2e       	mov	r15, r22
    4314:	58 ec       	ldi	r21, 0xC8	; 200
    4316:	25 2e       	mov	r2, r21
    4318:	31 2c       	mov	r3, r1
    431a:	11 23       	and	r17, r17
    431c:	09 f0       	breq	.+2      	; 0x4320 <main+0x162>
    431e:	b3 cf       	rjmp	.-154    	; 0x4286 <main+0xc8>
    4320:	00 e0       	ldi	r16, 0x00	; 0
    4322:	10 e0       	ldi	r17, 0x00	; 0
    4324:	4a e0       	ldi	r20, 0x0A	; 10
    4326:	c4 2e       	mov	r12, r20
    4328:	d1 2c       	mov	r13, r1
    432a:	cc 0e       	add	r12, r28
    432c:	dd 1e       	adc	r13, r29
    432e:	36 ed       	ldi	r19, 0xD6	; 214
    4330:	23 2e       	mov	r2, r19
    4332:	30 e0       	ldi	r19, 0x00	; 0
    4334:	33 2e       	mov	r3, r19
    4336:	00 d0       	rcall	.+0      	; 0x4338 <main+0x17a>
    4338:	00 d0       	rcall	.+0      	; 0x433a <main+0x17c>
    433a:	00 d0       	rcall	.+0      	; 0x433c <main+0x17e>
    433c:	ed b7       	in	r30, 0x3d	; 61
    433e:	fe b7       	in	r31, 0x3e	; 62
    4340:	31 96       	adiw	r30, 0x01	; 1
    4342:	ad b7       	in	r26, 0x3d	; 61
    4344:	be b7       	in	r27, 0x3e	; 62
    4346:	12 96       	adiw	r26, 0x02	; 2
    4348:	dc 92       	st	X, r13
    434a:	ce 92       	st	-X, r12
    434c:	11 97       	sbiw	r26, 0x01	; 1
    434e:	33 82       	std	Z+3, r3	; 0x03
    4350:	22 82       	std	Z+2, r2	; 0x02
    4352:	15 83       	std	Z+5, r17	; 0x05
    4354:	04 83       	std	Z+4, r16	; 0x04
    4356:	0e 94 f5 2b 	call	0x57ea	; 0x57ea <sprintf>
    435a:	ed b7       	in	r30, 0x3d	; 61
    435c:	fe b7       	in	r31, 0x3e	; 62
    435e:	36 96       	adiw	r30, 0x06	; 6
    4360:	0f b6       	in	r0, 0x3f	; 63
    4362:	f8 94       	cli
    4364:	fe bf       	out	0x3e, r31	; 62
    4366:	0f be       	out	0x3f, r0	; 63
    4368:	ed bf       	out	0x3d, r30	; 61
    436a:	82 e3       	ldi	r24, 0x32	; 50
    436c:	94 e0       	ldi	r25, 0x04	; 4
    436e:	b6 01       	movw	r22, r12
    4370:	46 e0       	ldi	r20, 0x06	; 6
    4372:	0e 94 8a 1d 	call	0x3b14	; 0x3b14 <f_open>
    4376:	e8 2e       	mov	r14, r24
    4378:	82 e3       	ldi	r24, 0x32	; 50
    437a:	94 e0       	ldi	r25, 0x04	; 4
    437c:	0e 94 cb 18 	call	0x3196	; 0x3196 <f_sync>
    4380:	0f 5f       	subi	r16, 0xFF	; 255
    4382:	1f 4f       	sbci	r17, 0xFF	; 255
    4384:	0a 30       	cpi	r16, 0x0A	; 10
    4386:	11 05       	cpc	r17, r1
    4388:	89 f4       	brne	.+34     	; 0x43ac <main+0x1ee>
    438a:	0e 94 9e 00 	call	0x13c	; 0x13c <LCD_Clear>
    438e:	80 e0       	ldi	r24, 0x00	; 0
    4390:	60 e0       	ldi	r22, 0x00	; 0
    4392:	0e 94 94 00 	call	0x128	; 0x128 <LCD_GoTo>
    4396:	83 ee       	ldi	r24, 0xE3	; 227
    4398:	90 e0       	ldi	r25, 0x00	; 0
    439a:	0e 94 87 00 	call	0x10e	; 0x10e <LCD_WriteText>
    439e:	80 e0       	ldi	r24, 0x00	; 0
    43a0:	61 e0       	ldi	r22, 0x01	; 1
    43a2:	0e 94 94 00 	call	0x128	; 0x128 <LCD_GoTo>
    43a6:	8e ee       	ldi	r24, 0xEE	; 238
    43a8:	90 e0       	ldi	r25, 0x00	; 0
    43aa:	54 c1       	rjmp	.+680    	; 0x4654 <main+0x496>
    43ac:	ee 20       	and	r14, r14
    43ae:	19 f6       	brne	.-122    	; 0x4336 <main+0x178>
    43b0:	0e 94 77 20 	call	0x40ee	; 0x40ee <kalibruj>
    43b4:	cf 99       	sbic	0x19, 7	; 25
    43b6:	fe cf       	rjmp	.-4      	; 0x43b4 <main+0x1f6>
    43b8:	8e 01       	movw	r16, r28
    43ba:	0a 5e       	subi	r16, 0xEA	; 234
    43bc:	1f 4f       	sbci	r17, 0xFF	; 255
    43be:	c8 01       	movw	r24, r16
    43c0:	67 ef       	ldi	r22, 0xF7	; 247
    43c2:	70 e0       	ldi	r23, 0x00	; 0
    43c4:	0e 94 ee 2b 	call	0x57dc	; 0x57dc <strcpy>
    43c8:	0e 94 9e 00 	call	0x13c	; 0x13c <LCD_Clear>
    43cc:	80 e0       	ldi	r24, 0x00	; 0
    43ce:	60 e0       	ldi	r22, 0x00	; 0
    43d0:	0e 94 94 00 	call	0x128	; 0x128 <LCD_GoTo>
    43d4:	c8 01       	movw	r24, r16
    43d6:	0e 94 87 00 	call	0x10e	; 0x10e <LCD_WriteText>
    43da:	80 e0       	ldi	r24, 0x00	; 0
    43dc:	61 e0       	ldi	r22, 0x01	; 1
    43de:	0e 94 94 00 	call	0x128	; 0x128 <LCD_GoTo>
    43e2:	85 e0       	ldi	r24, 0x05	; 5
    43e4:	91 e0       	ldi	r25, 0x01	; 1
    43e6:	0e 94 87 00 	call	0x10e	; 0x10e <LCD_WriteText>
    43ea:	80 e4       	ldi	r24, 0x40	; 64
    43ec:	9c e9       	ldi	r25, 0x9C	; 156
    43ee:	28 ec       	ldi	r18, 0xC8	; 200
    43f0:	30 e0       	ldi	r19, 0x00	; 0
    43f2:	f9 01       	movw	r30, r18
    43f4:	31 97       	sbiw	r30, 0x01	; 1
    43f6:	f1 f7       	brne	.-4      	; 0x43f4 <main+0x236>
    43f8:	01 97       	sbiw	r24, 0x01	; 1
    43fa:	d9 f7       	brne	.-10     	; 0x43f2 <main+0x234>
    43fc:	00 e0       	ldi	r16, 0x00	; 0
    43fe:	10 e0       	ldi	r17, 0x00	; 0
    4400:	a0 96       	adiw	r28, 0x20	; 32
    4402:	1f ae       	std	Y+63, r1	; 0x3f
    4404:	1e ae       	std	Y+62, r1	; 0x3e
    4406:	a0 97       	sbiw	r28, 0x20	; 32
    4408:	6e 96       	adiw	r28, 0x1e	; 30
    440a:	1f ae       	std	Y+63, r1	; 0x3f
    440c:	1e ae       	std	Y+62, r1	; 0x3e
    440e:	6e 97       	sbiw	r28, 0x1e	; 30
    4410:	ce 01       	movw	r24, r28
    4412:	8a 96       	adiw	r24, 0x2a	; 42
    4414:	a2 96       	adiw	r28, 0x22	; 34
    4416:	9f af       	std	Y+63, r25	; 0x3f
    4418:	8e af       	std	Y+62, r24	; 0x3e
    441a:	a2 97       	sbiw	r28, 0x22	; 34
    441c:	03 c1       	rjmp	.+518    	; 0x4624 <main+0x466>
    441e:	ce 01       	movw	r24, r28
    4420:	01 96       	adiw	r24, 0x01	; 1
    4422:	0e 94 63 07 	call	0xec6	; 0xec6 <readRangeSingleMillimeters>
    4426:	26 ef       	ldi	r18, 0xF6	; 246
    4428:	c2 2e       	mov	r12, r18
    442a:	2f ef       	ldi	r18, 0xFF	; 255
    442c:	d2 2e       	mov	r13, r18
    442e:	c8 0e       	add	r12, r24
    4430:	d9 1e       	adc	r13, r25
    4432:	92 e8       	ldi	r25, 0x82	; 130
    4434:	c9 16       	cp	r12, r25
    4436:	d1 04       	cpc	r13, r1
    4438:	08 f0       	brcs	.+2      	; 0x443c <main+0x27e>
    443a:	93 c0       	rjmp	.+294    	; 0x4562 <main+0x3a4>
    443c:	b1 01       	movw	r22, r2
    443e:	88 27       	eor	r24, r24
    4440:	77 fd       	sbrc	r23, 7
    4442:	80 95       	com	r24
    4444:	98 2f       	mov	r25, r24
    4446:	0e 94 77 29 	call	0x52ee	; 0x52ee <__floatsisf>
    444a:	2b ed       	ldi	r18, 0xDB	; 219
    444c:	3f e0       	ldi	r19, 0x0F	; 15
    444e:	49 ec       	ldi	r20, 0xC9	; 201
    4450:	50 e4       	ldi	r21, 0x40	; 64
    4452:	0e 94 3c 2a 	call	0x5478	; 0x5478 <__mulsf3>
    4456:	20 e0       	ldi	r18, 0x00	; 0
    4458:	30 e0       	ldi	r19, 0x00	; 0
    445a:	40 e0       	ldi	r20, 0x00	; 0
    445c:	51 e4       	ldi	r21, 0x41	; 65
    445e:	0e 94 3c 2a 	call	0x5478	; 0x5478 <__mulsf3>
    4462:	20 e0       	ldi	r18, 0x00	; 0
    4464:	30 e0       	ldi	r19, 0x00	; 0
    4466:	40 e0       	ldi	r20, 0x00	; 0
    4468:	5b e3       	ldi	r21, 0x3B	; 59
    446a:	0e 94 3c 2a 	call	0x5478	; 0x5478 <__mulsf3>
    446e:	7b 01       	movw	r14, r22
    4470:	8c 01       	movw	r16, r24
    4472:	62 e8       	ldi	r22, 0x82	; 130
    4474:	70 e0       	ldi	r23, 0x00	; 0
    4476:	6c 19       	sub	r22, r12
    4478:	7d 09       	sbc	r23, r13
    447a:	80 e0       	ldi	r24, 0x00	; 0
    447c:	90 e0       	ldi	r25, 0x00	; 0
    447e:	0e 94 75 29 	call	0x52ea	; 0x52ea <__floatunsisf>
    4482:	2b 01       	movw	r4, r22
    4484:	3c 01       	movw	r6, r24
    4486:	b7 01       	movw	r22, r14
    4488:	c8 01       	movw	r24, r16
    448a:	0e 94 46 29 	call	0x528c	; 0x528c <cos>
    448e:	4b 01       	movw	r8, r22
    4490:	5c 01       	movw	r10, r24
    4492:	b7 01       	movw	r22, r14
    4494:	c8 01       	movw	r24, r16
    4496:	0e 94 9f 2a 	call	0x553e	; 0x553e <sin>
    449a:	6b 01       	movw	r12, r22
    449c:	7c 01       	movw	r14, r24
    449e:	ad b7       	in	r26, 0x3d	; 61
    44a0:	be b7       	in	r27, 0x3e	; 62
    44a2:	1a 97       	sbiw	r26, 0x0a	; 10
    44a4:	0f b6       	in	r0, 0x3f	; 63
    44a6:	f8 94       	cli
    44a8:	be bf       	out	0x3e, r27	; 62
    44aa:	0f be       	out	0x3f, r0	; 63
    44ac:	ad bf       	out	0x3d, r26	; 61
    44ae:	0d b7       	in	r16, 0x3d	; 61
    44b0:	1e b7       	in	r17, 0x3e	; 62
    44b2:	0f 5f       	subi	r16, 0xFF	; 255
    44b4:	1f 4f       	sbci	r17, 0xFF	; 255
    44b6:	ea e2       	ldi	r30, 0x2A	; 42
    44b8:	f0 e0       	ldi	r31, 0x00	; 0
    44ba:	ec 0f       	add	r30, r28
    44bc:	fd 1f       	adc	r31, r29
    44be:	12 96       	adiw	r26, 0x02	; 2
    44c0:	fc 93       	st	X, r31
    44c2:	ee 93       	st	-X, r30
    44c4:	11 97       	sbiw	r26, 0x01	; 1
    44c6:	e3 e1       	ldi	r30, 0x13	; 19
    44c8:	f1 e0       	ldi	r31, 0x01	; 1
    44ca:	d8 01       	movw	r26, r16
    44cc:	13 96       	adiw	r26, 0x03	; 3
    44ce:	fc 93       	st	X, r31
    44d0:	ee 93       	st	-X, r30
    44d2:	12 97       	sbiw	r26, 0x02	; 2
    44d4:	c3 01       	movw	r24, r6
    44d6:	b2 01       	movw	r22, r4
    44d8:	a5 01       	movw	r20, r10
    44da:	94 01       	movw	r18, r8
    44dc:	0e 94 3c 2a 	call	0x5478	; 0x5478 <__mulsf3>
    44e0:	0e 94 49 29 	call	0x5292	; 0x5292 <__fixunssfsi>
    44e4:	d8 01       	movw	r26, r16
    44e6:	15 96       	adiw	r26, 0x05	; 5
    44e8:	7c 93       	st	X, r23
    44ea:	6e 93       	st	-X, r22
    44ec:	14 97       	sbiw	r26, 0x04	; 4
    44ee:	c3 01       	movw	r24, r6
    44f0:	b2 01       	movw	r22, r4
    44f2:	a7 01       	movw	r20, r14
    44f4:	96 01       	movw	r18, r12
    44f6:	0e 94 3c 2a 	call	0x5478	; 0x5478 <__mulsf3>
    44fa:	0e 94 49 29 	call	0x5292	; 0x5292 <__fixunssfsi>
    44fe:	f8 01       	movw	r30, r16
    4500:	77 83       	std	Z+7, r23	; 0x07
    4502:	66 83       	std	Z+6, r22	; 0x06
    4504:	6e 96       	adiw	r28, 0x1e	; 30
    4506:	8e ad       	ldd	r24, Y+62	; 0x3e
    4508:	9f ad       	ldd	r25, Y+63	; 0x3f
    450a:	6e 97       	sbiw	r28, 0x1e	; 30
    450c:	91 87       	std	Z+9, r25	; 0x09
    450e:	80 87       	std	Z+8, r24	; 0x08
    4510:	0e 94 f5 2b 	call	0x57ea	; 0x57ea <sprintf>
    4514:	a2 96       	adiw	r28, 0x22	; 34
    4516:	ee ad       	ldd	r30, Y+62	; 0x3e
    4518:	ff ad       	ldd	r31, Y+63	; 0x3f
    451a:	a2 97       	sbiw	r28, 0x22	; 34
    451c:	01 90       	ld	r0, Z+
    451e:	00 20       	and	r0, r0
    4520:	e9 f7       	brne	.-6      	; 0x451c <main+0x35e>
    4522:	31 97       	sbiw	r30, 0x01	; 1
    4524:	a2 96       	adiw	r28, 0x22	; 34
    4526:	ae ad       	ldd	r26, Y+62	; 0x3e
    4528:	bf ad       	ldd	r27, Y+63	; 0x3f
    452a:	a2 97       	sbiw	r28, 0x22	; 34
    452c:	ea 1b       	sub	r30, r26
    452e:	fb 0b       	sbc	r31, r27
    4530:	8d b7       	in	r24, 0x3d	; 61
    4532:	9e b7       	in	r25, 0x3e	; 62
    4534:	0a 96       	adiw	r24, 0x0a	; 10
    4536:	0f b6       	in	r0, 0x3f	; 63
    4538:	f8 94       	cli
    453a:	9e bf       	out	0x3e, r25	; 62
    453c:	0f be       	out	0x3f, r0	; 63
    453e:	8d bf       	out	0x3d, r24	; 61
    4540:	82 e3       	ldi	r24, 0x32	; 50
    4542:	94 e0       	ldi	r25, 0x04	; 4
    4544:	be 01       	movw	r22, r28
    4546:	66 5d       	subi	r22, 0xD6	; 214
    4548:	7f 4f       	sbci	r23, 0xFF	; 255
    454a:	af 01       	movw	r20, r30
    454c:	20 e3       	ldi	r18, 0x30	; 48
    454e:	34 e0       	ldi	r19, 0x04	; 4
    4550:	0e 94 de 19 	call	0x33bc	; 0x33bc <f_write>
    4554:	82 e3       	ldi	r24, 0x32	; 50
    4556:	94 e0       	ldi	r25, 0x04	; 4
    4558:	0e 94 cb 18 	call	0x3196	; 0x3196 <f_sync>
    455c:	00 e0       	ldi	r16, 0x00	; 0
    455e:	10 e0       	ldi	r17, 0x00	; 0
    4560:	02 c0       	rjmp	.+4      	; 0x4566 <main+0x3a8>
    4562:	0f 5f       	subi	r16, 0xFF	; 255
    4564:	1f 4f       	sbci	r17, 0xFF	; 255
    4566:	68 e0       	ldi	r22, 0x08	; 8
    4568:	70 e0       	ldi	r23, 0x00	; 0
    456a:	80 e0       	ldi	r24, 0x00	; 0
    456c:	90 e0       	ldi	r25, 0x00	; 0
    456e:	41 e0       	ldi	r20, 0x01	; 1
    4570:	0e 94 91 01 	call	0x322	; 0x322 <half_step_motor_right>
    4574:	08 94       	sec
    4576:	21 1c       	adc	r2, r1
    4578:	31 1c       	adc	r3, r1
    457a:	91 e4       	ldi	r25, 0x41	; 65
    457c:	29 16       	cp	r2, r25
    457e:	31 04       	cpc	r3, r1
    4580:	09 f0       	breq	.+2      	; 0x4584 <main+0x3c6>
    4582:	4d cf       	rjmp	.-358    	; 0x441e <main+0x260>
    4584:	a0 96       	adiw	r28, 0x20	; 32
    4586:	ae ad       	ldd	r26, Y+62	; 0x3e
    4588:	bf ad       	ldd	r27, Y+63	; 0x3f
    458a:	a0 97       	sbiw	r28, 0x20	; 32
    458c:	11 96       	adiw	r26, 0x01	; 1
    458e:	a0 96       	adiw	r28, 0x20	; 32
    4590:	bf af       	std	Y+63, r27	; 0x3f
    4592:	ae af       	std	Y+62, r26	; 0x3e
    4594:	a0 97       	sbiw	r28, 0x20	; 32
    4596:	00 d0       	rcall	.+0      	; 0x4598 <main+0x3da>
    4598:	00 d0       	rcall	.+0      	; 0x459a <main+0x3dc>
    459a:	00 d0       	rcall	.+0      	; 0x459c <main+0x3de>
    459c:	ed b7       	in	r30, 0x3d	; 61
    459e:	fe b7       	in	r31, 0x3e	; 62
    45a0:	31 96       	adiw	r30, 0x01	; 1
    45a2:	86 e1       	ldi	r24, 0x16	; 22
    45a4:	90 e0       	ldi	r25, 0x00	; 0
    45a6:	8c 0f       	add	r24, r28
    45a8:	9d 1f       	adc	r25, r29
    45aa:	ad b7       	in	r26, 0x3d	; 61
    45ac:	be b7       	in	r27, 0x3e	; 62
    45ae:	12 96       	adiw	r26, 0x02	; 2
    45b0:	9c 93       	st	X, r25
    45b2:	8e 93       	st	-X, r24
    45b4:	11 97       	sbiw	r26, 0x01	; 1
    45b6:	ad e1       	ldi	r26, 0x1D	; 29
    45b8:	b1 e0       	ldi	r27, 0x01	; 1
    45ba:	b3 83       	std	Z+3, r27	; 0x03
    45bc:	a2 83       	std	Z+2, r26	; 0x02
    45be:	a0 96       	adiw	r28, 0x20	; 32
    45c0:	8e ad       	ldd	r24, Y+62	; 0x3e
    45c2:	9f ad       	ldd	r25, Y+63	; 0x3f
    45c4:	a0 97       	sbiw	r28, 0x20	; 32
    45c6:	95 83       	std	Z+5, r25	; 0x05
    45c8:	84 83       	std	Z+4, r24	; 0x04
    45ca:	0e 94 f5 2b 	call	0x57ea	; 0x57ea <sprintf>
    45ce:	ad b7       	in	r26, 0x3d	; 61
    45d0:	be b7       	in	r27, 0x3e	; 62
    45d2:	16 96       	adiw	r26, 0x06	; 6
    45d4:	0f b6       	in	r0, 0x3f	; 63
    45d6:	f8 94       	cli
    45d8:	be bf       	out	0x3e, r27	; 62
    45da:	0f be       	out	0x3f, r0	; 63
    45dc:	ad bf       	out	0x3d, r26	; 61
    45de:	0e 94 9e 00 	call	0x13c	; 0x13c <LCD_Clear>
    45e2:	80 e0       	ldi	r24, 0x00	; 0
    45e4:	61 e0       	ldi	r22, 0x01	; 1
    45e6:	0e 94 94 00 	call	0x128	; 0x128 <LCD_GoTo>
    45ea:	ce 01       	movw	r24, r28
    45ec:	46 96       	adiw	r24, 0x16	; 22
    45ee:	0e 94 87 00 	call	0x10e	; 0x10e <LCD_WriteText>
    45f2:	60 e0       	ldi	r22, 0x00	; 0
    45f4:	74 e0       	ldi	r23, 0x04	; 4
    45f6:	80 e0       	ldi	r24, 0x00	; 0
    45f8:	90 e0       	ldi	r25, 0x00	; 0
    45fa:	42 e0       	ldi	r20, 0x02	; 2
    45fc:	0e 94 91 01 	call	0x322	; 0x322 <half_step_motor_right>
    4600:	a0 96       	adiw	r28, 0x20	; 32
    4602:	ee ad       	ldd	r30, Y+62	; 0x3e
    4604:	ff ad       	ldd	r31, Y+63	; 0x3f
    4606:	a0 97       	sbiw	r28, 0x20	; 32
    4608:	74 97       	sbiw	r30, 0x14	; 20
    460a:	81 f0       	breq	.+32     	; 0x462c <main+0x46e>
    460c:	6e 96       	adiw	r28, 0x1e	; 30
    460e:	8e ad       	ldd	r24, Y+62	; 0x3e
    4610:	9f ad       	ldd	r25, Y+63	; 0x3f
    4612:	6e 97       	sbiw	r28, 0x1e	; 30
    4614:	03 96       	adiw	r24, 0x03	; 3
    4616:	6e 96       	adiw	r28, 0x1e	; 30
    4618:	9f af       	std	Y+63, r25	; 0x3f
    461a:	8e af       	std	Y+62, r24	; 0x3e
    461c:	6e 97       	sbiw	r28, 0x1e	; 30
    461e:	08 32       	cpi	r16, 0x28	; 40
    4620:	11 05       	cpc	r17, r1
    4622:	20 f4       	brcc	.+8      	; 0x462c <main+0x46e>
    4624:	81 e0       	ldi	r24, 0x01	; 1
    4626:	28 2e       	mov	r2, r24
    4628:	31 2c       	mov	r3, r1
    462a:	f9 ce       	rjmp	.-526    	; 0x441e <main+0x260>
    462c:	82 e3       	ldi	r24, 0x32	; 50
    462e:	94 e0       	ldi	r25, 0x04	; 4
    4630:	0e 94 c0 19 	call	0x3380	; 0x3380 <f_close>
    4634:	0e 94 9e 00 	call	0x13c	; 0x13c <LCD_Clear>
    4638:	80 e0       	ldi	r24, 0x00	; 0
    463a:	60 e0       	ldi	r22, 0x00	; 0
    463c:	0e 94 94 00 	call	0x128	; 0x128 <LCD_GoTo>
    4640:	8c e2       	ldi	r24, 0x2C	; 44
    4642:	91 e0       	ldi	r25, 0x01	; 1
    4644:	0e 94 87 00 	call	0x10e	; 0x10e <LCD_WriteText>
    4648:	80 e0       	ldi	r24, 0x00	; 0
    464a:	61 e0       	ldi	r22, 0x01	; 1
    464c:	0e 94 94 00 	call	0x128	; 0x128 <LCD_GoTo>
    4650:	89 e3       	ldi	r24, 0x39	; 57
    4652:	91 e0       	ldi	r25, 0x01	; 1
    4654:	0e 94 87 00 	call	0x10e	; 0x10e <LCD_WriteText>
    4658:	80 e0       	ldi	r24, 0x00	; 0
    465a:	90 e0       	ldi	r25, 0x00	; 0
    465c:	cf 59       	subi	r28, 0x9F	; 159
    465e:	df 4f       	sbci	r29, 0xFF	; 255
    4660:	0f b6       	in	r0, 0x3f	; 63
    4662:	f8 94       	cli
    4664:	de bf       	out	0x3e, r29	; 62
    4666:	0f be       	out	0x3f, r0	; 63
    4668:	cd bf       	out	0x3d, r28	; 61
    466a:	cf 91       	pop	r28
    466c:	df 91       	pop	r29
    466e:	1f 91       	pop	r17
    4670:	0f 91       	pop	r16
    4672:	ff 90       	pop	r15
    4674:	ef 90       	pop	r14
    4676:	df 90       	pop	r13
    4678:	cf 90       	pop	r12
    467a:	bf 90       	pop	r11
    467c:	af 90       	pop	r10
    467e:	9f 90       	pop	r9
    4680:	8f 90       	pop	r8
    4682:	7f 90       	pop	r7
    4684:	6f 90       	pop	r6
    4686:	5f 90       	pop	r5
    4688:	4f 90       	pop	r4
    468a:	3f 90       	pop	r3
    468c:	2f 90       	pop	r2
    468e:	08 95       	ret

00004690 <wait_ready>:
    4690:	6a e0       	ldi	r22, 0x0A	; 10
    4692:	70 e0       	ldi	r23, 0x00	; 0
    4694:	0e 94 90 2b 	call	0x5720	; 0x5720 <__udivmodhi4>
    4698:	70 93 dc 01 	sts	0x01DC, r23
    469c:	60 93 db 01 	sts	0x01DB, r22
    46a0:	2f ef       	ldi	r18, 0xFF	; 255
    46a2:	2f b9       	out	0x0f, r18	; 15
    46a4:	77 9b       	sbis	0x0e, 7	; 14
    46a6:	fe cf       	rjmp	.-4      	; 0x46a4 <wait_ready+0x14>
    46a8:	4f b1       	in	r20, 0x0f	; 15
    46aa:	4f 3f       	cpi	r20, 0xFF	; 255
    46ac:	31 f0       	breq	.+12     	; 0x46ba <wait_ready+0x2a>
    46ae:	80 91 db 01 	lds	r24, 0x01DB
    46b2:	90 91 dc 01 	lds	r25, 0x01DC
    46b6:	89 2b       	or	r24, r25
    46b8:	a1 f7       	brne	.-24     	; 0x46a2 <wait_ready+0x12>
    46ba:	20 e0       	ldi	r18, 0x00	; 0
    46bc:	30 e0       	ldi	r19, 0x00	; 0
    46be:	4f 3f       	cpi	r20, 0xFF	; 255
    46c0:	11 f4       	brne	.+4      	; 0x46c6 <wait_ready+0x36>
    46c2:	21 e0       	ldi	r18, 0x01	; 1
    46c4:	30 e0       	ldi	r19, 0x00	; 0
    46c6:	c9 01       	movw	r24, r18
    46c8:	08 95       	ret

000046ca <select>:
    46ca:	c4 98       	cbi	0x18, 4	; 24
    46cc:	8f ef       	ldi	r24, 0xFF	; 255
    46ce:	8f b9       	out	0x0f, r24	; 15
    46d0:	77 9b       	sbis	0x0e, 7	; 14
    46d2:	fe cf       	rjmp	.-4      	; 0x46d0 <select+0x6>
    46d4:	8f b1       	in	r24, 0x0f	; 15
    46d6:	84 ef       	ldi	r24, 0xF4	; 244
    46d8:	91 e0       	ldi	r25, 0x01	; 1
    46da:	0e 94 48 23 	call	0x4690	; 0x4690 <wait_ready>
    46de:	89 2b       	or	r24, r25
    46e0:	19 f0       	breq	.+6      	; 0x46e8 <select+0x1e>
    46e2:	21 e0       	ldi	r18, 0x01	; 1
    46e4:	30 e0       	ldi	r19, 0x00	; 0
    46e6:	08 c0       	rjmp	.+16     	; 0x46f8 <select+0x2e>
    46e8:	c4 9a       	sbi	0x18, 4	; 24
    46ea:	8f ef       	ldi	r24, 0xFF	; 255
    46ec:	8f b9       	out	0x0f, r24	; 15
    46ee:	77 9b       	sbis	0x0e, 7	; 14
    46f0:	fe cf       	rjmp	.-4      	; 0x46ee <select+0x24>
    46f2:	8f b1       	in	r24, 0x0f	; 15
    46f4:	20 e0       	ldi	r18, 0x00	; 0
    46f6:	30 e0       	ldi	r19, 0x00	; 0
    46f8:	c9 01       	movw	r24, r18
    46fa:	08 95       	ret

000046fc <rcvr_datablock>:
    46fc:	fc 01       	movw	r30, r24
    46fe:	84 e1       	ldi	r24, 0x14	; 20
    4700:	80 93 da 01 	sts	0x01DA, r24
    4704:	9f ef       	ldi	r25, 0xFF	; 255
    4706:	9f b9       	out	0x0f, r25	; 15
    4708:	77 9b       	sbis	0x0e, 7	; 14
    470a:	fe cf       	rjmp	.-4      	; 0x4708 <rcvr_datablock+0xc>
    470c:	8f b1       	in	r24, 0x0f	; 15
    470e:	8f 3f       	cpi	r24, 0xFF	; 255
    4710:	29 f4       	brne	.+10     	; 0x471c <rcvr_datablock+0x20>
    4712:	80 91 da 01 	lds	r24, 0x01DA
    4716:	88 23       	and	r24, r24
    4718:	b1 f7       	brne	.-20     	; 0x4706 <rcvr_datablock+0xa>
    471a:	1f c0       	rjmp	.+62     	; 0x475a <rcvr_datablock+0x5e>
    471c:	8e 3f       	cpi	r24, 0xFE	; 254
    471e:	e9 f4       	brne	.+58     	; 0x475a <rcvr_datablock+0x5e>
    4720:	9f ef       	ldi	r25, 0xFF	; 255
    4722:	9f b9       	out	0x0f, r25	; 15
    4724:	77 9b       	sbis	0x0e, 7	; 14
    4726:	fe cf       	rjmp	.-4      	; 0x4724 <rcvr_datablock+0x28>
    4728:	8f b1       	in	r24, 0x0f	; 15
    472a:	80 83       	st	Z, r24
    472c:	9f b9       	out	0x0f, r25	; 15
    472e:	77 9b       	sbis	0x0e, 7	; 14
    4730:	fe cf       	rjmp	.-4      	; 0x472e <rcvr_datablock+0x32>
    4732:	8f b1       	in	r24, 0x0f	; 15
    4734:	81 83       	std	Z+1, r24	; 0x01
    4736:	62 50       	subi	r22, 0x02	; 2
    4738:	70 40       	sbci	r23, 0x00	; 0
    473a:	11 f0       	breq	.+4      	; 0x4740 <rcvr_datablock+0x44>
    473c:	32 96       	adiw	r30, 0x02	; 2
    473e:	f1 cf       	rjmp	.-30     	; 0x4722 <rcvr_datablock+0x26>
    4740:	8f ef       	ldi	r24, 0xFF	; 255
    4742:	8f b9       	out	0x0f, r24	; 15
    4744:	77 9b       	sbis	0x0e, 7	; 14
    4746:	fe cf       	rjmp	.-4      	; 0x4744 <rcvr_datablock+0x48>
    4748:	8f b1       	in	r24, 0x0f	; 15
    474a:	8f ef       	ldi	r24, 0xFF	; 255
    474c:	8f b9       	out	0x0f, r24	; 15
    474e:	77 9b       	sbis	0x0e, 7	; 14
    4750:	fe cf       	rjmp	.-4      	; 0x474e <rcvr_datablock+0x52>
    4752:	8f b1       	in	r24, 0x0f	; 15
    4754:	21 e0       	ldi	r18, 0x01	; 1
    4756:	30 e0       	ldi	r19, 0x00	; 0
    4758:	02 c0       	rjmp	.+4      	; 0x475e <rcvr_datablock+0x62>
    475a:	20 e0       	ldi	r18, 0x00	; 0
    475c:	30 e0       	ldi	r19, 0x00	; 0
    475e:	c9 01       	movw	r24, r18
    4760:	08 95       	ret

00004762 <xmit_datablock>:
    4762:	1f 93       	push	r17
    4764:	cf 93       	push	r28
    4766:	df 93       	push	r29
    4768:	ec 01       	movw	r28, r24
    476a:	16 2f       	mov	r17, r22
    476c:	84 ef       	ldi	r24, 0xF4	; 244
    476e:	91 e0       	ldi	r25, 0x01	; 1
    4770:	0e 94 48 23 	call	0x4690	; 0x4690 <wait_ready>
    4774:	89 2b       	or	r24, r25
    4776:	19 f4       	brne	.+6      	; 0x477e <xmit_datablock+0x1c>
    4778:	20 e0       	ldi	r18, 0x00	; 0
    477a:	30 e0       	ldi	r19, 0x00	; 0
    477c:	2b c0       	rjmp	.+86     	; 0x47d4 <xmit_datablock+0x72>
    477e:	1f b9       	out	0x0f, r17	; 15
    4780:	77 9b       	sbis	0x0e, 7	; 14
    4782:	fe cf       	rjmp	.-4      	; 0x4780 <xmit_datablock+0x1e>
    4784:	8f b1       	in	r24, 0x0f	; 15
    4786:	1d 3f       	cpi	r17, 0xFD	; 253
    4788:	19 f1       	breq	.+70     	; 0x47d0 <xmit_datablock+0x6e>
    478a:	20 e0       	ldi	r18, 0x00	; 0
    478c:	32 e0       	ldi	r19, 0x02	; 2
    478e:	88 81       	ld	r24, Y
    4790:	8f b9       	out	0x0f, r24	; 15
    4792:	77 9b       	sbis	0x0e, 7	; 14
    4794:	fe cf       	rjmp	.-4      	; 0x4792 <xmit_datablock+0x30>
    4796:	89 81       	ldd	r24, Y+1	; 0x01
    4798:	8f b9       	out	0x0f, r24	; 15
    479a:	77 9b       	sbis	0x0e, 7	; 14
    479c:	fe cf       	rjmp	.-4      	; 0x479a <xmit_datablock+0x38>
    479e:	22 50       	subi	r18, 0x02	; 2
    47a0:	30 40       	sbci	r19, 0x00	; 0
    47a2:	11 f0       	breq	.+4      	; 0x47a8 <xmit_datablock+0x46>
    47a4:	22 96       	adiw	r28, 0x02	; 2
    47a6:	f3 cf       	rjmp	.-26     	; 0x478e <xmit_datablock+0x2c>
    47a8:	8f ef       	ldi	r24, 0xFF	; 255
    47aa:	8f b9       	out	0x0f, r24	; 15
    47ac:	77 9b       	sbis	0x0e, 7	; 14
    47ae:	fe cf       	rjmp	.-4      	; 0x47ac <xmit_datablock+0x4a>
    47b0:	8f b1       	in	r24, 0x0f	; 15
    47b2:	8f ef       	ldi	r24, 0xFF	; 255
    47b4:	8f b9       	out	0x0f, r24	; 15
    47b6:	77 9b       	sbis	0x0e, 7	; 14
    47b8:	fe cf       	rjmp	.-4      	; 0x47b6 <xmit_datablock+0x54>
    47ba:	8f b1       	in	r24, 0x0f	; 15
    47bc:	8f ef       	ldi	r24, 0xFF	; 255
    47be:	8f b9       	out	0x0f, r24	; 15
    47c0:	77 9b       	sbis	0x0e, 7	; 14
    47c2:	fe cf       	rjmp	.-4      	; 0x47c0 <xmit_datablock+0x5e>
    47c4:	8f b1       	in	r24, 0x0f	; 15
    47c6:	20 e0       	ldi	r18, 0x00	; 0
    47c8:	30 e0       	ldi	r19, 0x00	; 0
    47ca:	8f 71       	andi	r24, 0x1F	; 31
    47cc:	85 30       	cpi	r24, 0x05	; 5
    47ce:	11 f4       	brne	.+4      	; 0x47d4 <xmit_datablock+0x72>
    47d0:	21 e0       	ldi	r18, 0x01	; 1
    47d2:	30 e0       	ldi	r19, 0x00	; 0
    47d4:	c9 01       	movw	r24, r18
    47d6:	df 91       	pop	r29
    47d8:	cf 91       	pop	r28
    47da:	1f 91       	pop	r17
    47dc:	08 95       	ret

000047de <send_cmd>:
    47de:	df 92       	push	r13
    47e0:	ef 92       	push	r14
    47e2:	ff 92       	push	r15
    47e4:	0f 93       	push	r16
    47e6:	1f 93       	push	r17
    47e8:	d8 2e       	mov	r13, r24
    47ea:	7a 01       	movw	r14, r20
    47ec:	8b 01       	movw	r16, r22
    47ee:	87 ff       	sbrs	r24, 7
    47f0:	0c c0       	rjmp	.+24     	; 0x480a <send_cmd+0x2c>
    47f2:	87 e3       	ldi	r24, 0x37	; 55
    47f4:	40 e0       	ldi	r20, 0x00	; 0
    47f6:	50 e0       	ldi	r21, 0x00	; 0
    47f8:	60 e0       	ldi	r22, 0x00	; 0
    47fa:	70 e0       	ldi	r23, 0x00	; 0
    47fc:	0e 94 ef 23 	call	0x47de	; 0x47de <send_cmd>
    4800:	82 30       	cpi	r24, 0x02	; 2
    4802:	08 f0       	brcs	.+2      	; 0x4806 <send_cmd+0x28>
    4804:	52 c0       	rjmp	.+164    	; 0x48aa <send_cmd+0xcc>
    4806:	8f e7       	ldi	r24, 0x7F	; 127
    4808:	d8 22       	and	r13, r24
    480a:	8c e0       	ldi	r24, 0x0C	; 12
    480c:	d8 16       	cp	r13, r24
    480e:	61 f0       	breq	.+24     	; 0x4828 <send_cmd+0x4a>
    4810:	c4 9a       	sbi	0x18, 4	; 24
    4812:	8f ef       	ldi	r24, 0xFF	; 255
    4814:	8f b9       	out	0x0f, r24	; 15
    4816:	77 9b       	sbis	0x0e, 7	; 14
    4818:	fe cf       	rjmp	.-4      	; 0x4816 <send_cmd+0x38>
    481a:	8f b1       	in	r24, 0x0f	; 15
    481c:	0e 94 65 23 	call	0x46ca	; 0x46ca <select>
    4820:	89 2b       	or	r24, r25
    4822:	11 f4       	brne	.+4      	; 0x4828 <send_cmd+0x4a>
    4824:	8f ef       	ldi	r24, 0xFF	; 255
    4826:	41 c0       	rjmp	.+130    	; 0x48aa <send_cmd+0xcc>
    4828:	8d 2d       	mov	r24, r13
    482a:	80 64       	ori	r24, 0x40	; 64
    482c:	8f b9       	out	0x0f, r24	; 15
    482e:	77 9b       	sbis	0x0e, 7	; 14
    4830:	fe cf       	rjmp	.-4      	; 0x482e <send_cmd+0x50>
    4832:	8f b1       	in	r24, 0x0f	; 15
    4834:	81 2f       	mov	r24, r17
    4836:	99 27       	eor	r25, r25
    4838:	aa 27       	eor	r26, r26
    483a:	bb 27       	eor	r27, r27
    483c:	8f b9       	out	0x0f, r24	; 15
    483e:	77 9b       	sbis	0x0e, 7	; 14
    4840:	fe cf       	rjmp	.-4      	; 0x483e <send_cmd+0x60>
    4842:	8f b1       	in	r24, 0x0f	; 15
    4844:	c8 01       	movw	r24, r16
    4846:	aa 27       	eor	r26, r26
    4848:	bb 27       	eor	r27, r27
    484a:	8f b9       	out	0x0f, r24	; 15
    484c:	77 9b       	sbis	0x0e, 7	; 14
    484e:	fe cf       	rjmp	.-4      	; 0x484c <send_cmd+0x6e>
    4850:	8f b1       	in	r24, 0x0f	; 15
    4852:	bb 27       	eor	r27, r27
    4854:	a1 2f       	mov	r26, r17
    4856:	90 2f       	mov	r25, r16
    4858:	8f 2d       	mov	r24, r15
    485a:	8f b9       	out	0x0f, r24	; 15
    485c:	77 9b       	sbis	0x0e, 7	; 14
    485e:	fe cf       	rjmp	.-4      	; 0x485c <send_cmd+0x7e>
    4860:	8f b1       	in	r24, 0x0f	; 15
    4862:	ef b8       	out	0x0f, r14	; 15
    4864:	77 9b       	sbis	0x0e, 7	; 14
    4866:	fe cf       	rjmp	.-4      	; 0x4864 <send_cmd+0x86>
    4868:	8f b1       	in	r24, 0x0f	; 15
    486a:	dd 20       	and	r13, r13
    486c:	11 f4       	brne	.+4      	; 0x4872 <send_cmd+0x94>
    486e:	85 e9       	ldi	r24, 0x95	; 149
    4870:	06 c0       	rjmp	.+12     	; 0x487e <send_cmd+0xa0>
    4872:	88 e0       	ldi	r24, 0x08	; 8
    4874:	d8 16       	cp	r13, r24
    4876:	11 f4       	brne	.+4      	; 0x487c <send_cmd+0x9e>
    4878:	87 e8       	ldi	r24, 0x87	; 135
    487a:	01 c0       	rjmp	.+2      	; 0x487e <send_cmd+0xa0>
    487c:	81 e0       	ldi	r24, 0x01	; 1
    487e:	8f b9       	out	0x0f, r24	; 15
    4880:	77 9b       	sbis	0x0e, 7	; 14
    4882:	fe cf       	rjmp	.-4      	; 0x4880 <send_cmd+0xa2>
    4884:	8f b1       	in	r24, 0x0f	; 15
    4886:	8c e0       	ldi	r24, 0x0C	; 12
    4888:	d8 16       	cp	r13, r24
    488a:	29 f4       	brne	.+10     	; 0x4896 <send_cmd+0xb8>
    488c:	8f ef       	ldi	r24, 0xFF	; 255
    488e:	8f b9       	out	0x0f, r24	; 15
    4890:	77 9b       	sbis	0x0e, 7	; 14
    4892:	fe cf       	rjmp	.-4      	; 0x4890 <send_cmd+0xb2>
    4894:	8f b1       	in	r24, 0x0f	; 15
    4896:	9a e0       	ldi	r25, 0x0A	; 10
    4898:	2f ef       	ldi	r18, 0xFF	; 255
    489a:	2f b9       	out	0x0f, r18	; 15
    489c:	77 9b       	sbis	0x0e, 7	; 14
    489e:	fe cf       	rjmp	.-4      	; 0x489c <send_cmd+0xbe>
    48a0:	8f b1       	in	r24, 0x0f	; 15
    48a2:	87 ff       	sbrs	r24, 7
    48a4:	02 c0       	rjmp	.+4      	; 0x48aa <send_cmd+0xcc>
    48a6:	91 50       	subi	r25, 0x01	; 1
    48a8:	c1 f7       	brne	.-16     	; 0x489a <send_cmd+0xbc>
    48aa:	1f 91       	pop	r17
    48ac:	0f 91       	pop	r16
    48ae:	ff 90       	pop	r15
    48b0:	ef 90       	pop	r14
    48b2:	df 90       	pop	r13
    48b4:	08 95       	ret

000048b6 <mmc_disk_initialize>:
    48b6:	ef 92       	push	r14
    48b8:	ff 92       	push	r15
    48ba:	0f 93       	push	r16
    48bc:	1f 93       	push	r17
    48be:	df 93       	push	r29
    48c0:	cf 93       	push	r28
    48c2:	00 d0       	rcall	.+0      	; 0x48c4 <mmc_disk_initialize+0xe>
    48c4:	00 d0       	rcall	.+0      	; 0x48c6 <mmc_disk_initialize+0x10>
    48c6:	cd b7       	in	r28, 0x3d	; 61
    48c8:	de b7       	in	r29, 0x3e	; 62
    48ca:	1d b8       	out	0x0d, r1	; 13
    48cc:	87 b3       	in	r24, 0x17	; 23
    48ce:	8f 74       	andi	r24, 0x4F	; 79
    48d0:	87 bb       	out	0x17, r24	; 23
    48d2:	88 b3       	in	r24, 0x18	; 24
    48d4:	8f 74       	andi	r24, 0x4F	; 79
    48d6:	88 bb       	out	0x18, r24	; 24
    48d8:	88 b3       	in	r24, 0x18	; 24
    48da:	8c 60       	ori	r24, 0x0C	; 12
    48dc:	88 bb       	out	0x18, r24	; 24
    48de:	8a e0       	ldi	r24, 0x0A	; 10
    48e0:	80 93 da 01 	sts	0x01DA, r24
    48e4:	80 91 da 01 	lds	r24, 0x01DA
    48e8:	88 23       	and	r24, r24
    48ea:	e1 f7       	brne	.-8      	; 0x48e4 <mmc_disk_initialize+0x2e>
    48ec:	80 91 48 01 	lds	r24, 0x0148
    48f0:	81 fd       	sbrc	r24, 1
    48f2:	b5 c0       	rjmp	.+362    	; 0x4a5e <mmc_disk_initialize+0x1a8>
    48f4:	88 b3       	in	r24, 0x18	; 24
    48f6:	80 63       	ori	r24, 0x30	; 48
    48f8:	88 bb       	out	0x18, r24	; 24
    48fa:	87 b3       	in	r24, 0x17	; 23
    48fc:	80 6b       	ori	r24, 0xB0	; 176
    48fe:	87 bb       	out	0x17, r24	; 23
    4900:	92 e5       	ldi	r25, 0x52	; 82
    4902:	9d b9       	out	0x0d, r25	; 13
    4904:	81 e0       	ldi	r24, 0x01	; 1
    4906:	8e b9       	out	0x0e, r24	; 14
    4908:	9d b9       	out	0x0d, r25	; 13
    490a:	8a e0       	ldi	r24, 0x0A	; 10
    490c:	9f ef       	ldi	r25, 0xFF	; 255
    490e:	9f b9       	out	0x0f, r25	; 15
    4910:	77 9b       	sbis	0x0e, 7	; 14
    4912:	fe cf       	rjmp	.-4      	; 0x4910 <mmc_disk_initialize+0x5a>
    4914:	2f b1       	in	r18, 0x0f	; 15
    4916:	81 50       	subi	r24, 0x01	; 1
    4918:	d1 f7       	brne	.-12     	; 0x490e <mmc_disk_initialize+0x58>
    491a:	40 e0       	ldi	r20, 0x00	; 0
    491c:	50 e0       	ldi	r21, 0x00	; 0
    491e:	60 e0       	ldi	r22, 0x00	; 0
    4920:	70 e0       	ldi	r23, 0x00	; 0
    4922:	0e 94 ef 23 	call	0x47de	; 0x47de <send_cmd>
    4926:	81 30       	cpi	r24, 0x01	; 1
    4928:	09 f0       	breq	.+2      	; 0x492c <mmc_disk_initialize+0x76>
    492a:	7c c0       	rjmp	.+248    	; 0x4a24 <mmc_disk_initialize+0x16e>
    492c:	84 e6       	ldi	r24, 0x64	; 100
    492e:	80 93 da 01 	sts	0x01DA, r24
    4932:	88 e0       	ldi	r24, 0x08	; 8
    4934:	4a ea       	ldi	r20, 0xAA	; 170
    4936:	51 e0       	ldi	r21, 0x01	; 1
    4938:	60 e0       	ldi	r22, 0x00	; 0
    493a:	70 e0       	ldi	r23, 0x00	; 0
    493c:	0e 94 ef 23 	call	0x47de	; 0x47de <send_cmd>
    4940:	81 30       	cpi	r24, 0x01	; 1
    4942:	09 f0       	breq	.+2      	; 0x4946 <mmc_disk_initialize+0x90>
    4944:	48 c0       	rjmp	.+144    	; 0x49d6 <mmc_disk_initialize+0x120>
    4946:	7e 01       	movw	r14, r28
    4948:	08 94       	sec
    494a:	e1 1c       	adc	r14, r1
    494c:	f1 1c       	adc	r15, r1
    494e:	87 01       	movw	r16, r14
    4950:	9f ef       	ldi	r25, 0xFF	; 255
    4952:	9e 01       	movw	r18, r28
    4954:	2b 5f       	subi	r18, 0xFB	; 251
    4956:	3f 4f       	sbci	r19, 0xFF	; 255
    4958:	9f b9       	out	0x0f, r25	; 15
    495a:	77 9b       	sbis	0x0e, 7	; 14
    495c:	fe cf       	rjmp	.-4      	; 0x495a <mmc_disk_initialize+0xa4>
    495e:	8f b1       	in	r24, 0x0f	; 15
    4960:	f8 01       	movw	r30, r16
    4962:	81 93       	st	Z+, r24
    4964:	8f 01       	movw	r16, r30
    4966:	e2 17       	cp	r30, r18
    4968:	f3 07       	cpc	r31, r19
    496a:	b1 f7       	brne	.-20     	; 0x4958 <mmc_disk_initialize+0xa2>
    496c:	8b 81       	ldd	r24, Y+3	; 0x03
    496e:	81 30       	cpi	r24, 0x01	; 1
    4970:	09 f0       	breq	.+2      	; 0x4974 <mmc_disk_initialize+0xbe>
    4972:	58 c0       	rjmp	.+176    	; 0x4a24 <mmc_disk_initialize+0x16e>
    4974:	8c 81       	ldd	r24, Y+4	; 0x04
    4976:	8a 3a       	cpi	r24, 0xAA	; 170
    4978:	09 f0       	breq	.+2      	; 0x497c <mmc_disk_initialize+0xc6>
    497a:	54 c0       	rjmp	.+168    	; 0x4a24 <mmc_disk_initialize+0x16e>
    497c:	80 91 da 01 	lds	r24, 0x01DA
    4980:	88 23       	and	r24, r24
    4982:	49 f0       	breq	.+18     	; 0x4996 <mmc_disk_initialize+0xe0>
    4984:	89 ea       	ldi	r24, 0xA9	; 169
    4986:	40 e0       	ldi	r20, 0x00	; 0
    4988:	50 e0       	ldi	r21, 0x00	; 0
    498a:	60 e0       	ldi	r22, 0x00	; 0
    498c:	70 e4       	ldi	r23, 0x40	; 64
    498e:	0e 94 ef 23 	call	0x47de	; 0x47de <send_cmd>
    4992:	88 23       	and	r24, r24
    4994:	99 f7       	brne	.-26     	; 0x497c <mmc_disk_initialize+0xc6>
    4996:	80 91 da 01 	lds	r24, 0x01DA
    499a:	88 23       	and	r24, r24
    499c:	09 f4       	brne	.+2      	; 0x49a0 <mmc_disk_initialize+0xea>
    499e:	42 c0       	rjmp	.+132    	; 0x4a24 <mmc_disk_initialize+0x16e>
    49a0:	8a e3       	ldi	r24, 0x3A	; 58
    49a2:	40 e0       	ldi	r20, 0x00	; 0
    49a4:	50 e0       	ldi	r21, 0x00	; 0
    49a6:	60 e0       	ldi	r22, 0x00	; 0
    49a8:	70 e0       	ldi	r23, 0x00	; 0
    49aa:	0e 94 ef 23 	call	0x47de	; 0x47de <send_cmd>
    49ae:	88 23       	and	r24, r24
    49b0:	c9 f5       	brne	.+114    	; 0x4a24 <mmc_disk_initialize+0x16e>
    49b2:	9f ef       	ldi	r25, 0xFF	; 255
    49b4:	9f b9       	out	0x0f, r25	; 15
    49b6:	77 9b       	sbis	0x0e, 7	; 14
    49b8:	fe cf       	rjmp	.-4      	; 0x49b6 <mmc_disk_initialize+0x100>
    49ba:	8f b1       	in	r24, 0x0f	; 15
    49bc:	f7 01       	movw	r30, r14
    49be:	81 93       	st	Z+, r24
    49c0:	7f 01       	movw	r14, r30
    49c2:	e0 17       	cp	r30, r16
    49c4:	f1 07       	cpc	r31, r17
    49c6:	b1 f7       	brne	.-20     	; 0x49b4 <mmc_disk_initialize+0xfe>
    49c8:	89 81       	ldd	r24, Y+1	; 0x01
    49ca:	86 fd       	sbrc	r24, 6
    49cc:	02 c0       	rjmp	.+4      	; 0x49d2 <mmc_disk_initialize+0x11c>
    49ce:	18 e0       	ldi	r17, 0x08	; 8
    49d0:	2a c0       	rjmp	.+84     	; 0x4a26 <mmc_disk_initialize+0x170>
    49d2:	18 e1       	ldi	r17, 0x18	; 24
    49d4:	28 c0       	rjmp	.+80     	; 0x4a26 <mmc_disk_initialize+0x170>
    49d6:	89 ea       	ldi	r24, 0xA9	; 169
    49d8:	40 e0       	ldi	r20, 0x00	; 0
    49da:	50 e0       	ldi	r21, 0x00	; 0
    49dc:	60 e0       	ldi	r22, 0x00	; 0
    49de:	70 e0       	ldi	r23, 0x00	; 0
    49e0:	0e 94 ef 23 	call	0x47de	; 0x47de <send_cmd>
    49e4:	82 30       	cpi	r24, 0x02	; 2
    49e6:	18 f0       	brcs	.+6      	; 0x49ee <mmc_disk_initialize+0x138>
    49e8:	01 e0       	ldi	r16, 0x01	; 1
    49ea:	11 e0       	ldi	r17, 0x01	; 1
    49ec:	02 c0       	rjmp	.+4      	; 0x49f2 <mmc_disk_initialize+0x13c>
    49ee:	09 ea       	ldi	r16, 0xA9	; 169
    49f0:	14 e0       	ldi	r17, 0x04	; 4
    49f2:	80 91 da 01 	lds	r24, 0x01DA
    49f6:	88 23       	and	r24, r24
    49f8:	49 f0       	breq	.+18     	; 0x4a0c <mmc_disk_initialize+0x156>
    49fa:	80 2f       	mov	r24, r16
    49fc:	40 e0       	ldi	r20, 0x00	; 0
    49fe:	50 e0       	ldi	r21, 0x00	; 0
    4a00:	60 e0       	ldi	r22, 0x00	; 0
    4a02:	70 e0       	ldi	r23, 0x00	; 0
    4a04:	0e 94 ef 23 	call	0x47de	; 0x47de <send_cmd>
    4a08:	88 23       	and	r24, r24
    4a0a:	99 f7       	brne	.-26     	; 0x49f2 <mmc_disk_initialize+0x13c>
    4a0c:	80 91 da 01 	lds	r24, 0x01DA
    4a10:	88 23       	and	r24, r24
    4a12:	41 f0       	breq	.+16     	; 0x4a24 <mmc_disk_initialize+0x16e>
    4a14:	80 e1       	ldi	r24, 0x10	; 16
    4a16:	40 e0       	ldi	r20, 0x00	; 0
    4a18:	52 e0       	ldi	r21, 0x02	; 2
    4a1a:	60 e0       	ldi	r22, 0x00	; 0
    4a1c:	70 e0       	ldi	r23, 0x00	; 0
    4a1e:	0e 94 ef 23 	call	0x47de	; 0x47de <send_cmd>
    4a22:	81 11       	cpse	r24, r1
    4a24:	10 e0       	ldi	r17, 0x00	; 0
    4a26:	10 93 dd 01 	sts	0x01DD, r17
    4a2a:	c4 9a       	sbi	0x18, 4	; 24
    4a2c:	8f ef       	ldi	r24, 0xFF	; 255
    4a2e:	8f b9       	out	0x0f, r24	; 15
    4a30:	77 9b       	sbis	0x0e, 7	; 14
    4a32:	fe cf       	rjmp	.-4      	; 0x4a30 <mmc_disk_initialize+0x17a>
    4a34:	8f b1       	in	r24, 0x0f	; 15
    4a36:	11 23       	and	r17, r17
    4a38:	41 f0       	breq	.+16     	; 0x4a4a <mmc_disk_initialize+0x194>
    4a3a:	80 91 48 01 	lds	r24, 0x0148
    4a3e:	8e 7f       	andi	r24, 0xFE	; 254
    4a40:	80 93 48 01 	sts	0x0148, r24
    4a44:	80 e5       	ldi	r24, 0x50	; 80
    4a46:	8d b9       	out	0x0d, r24	; 13
    4a48:	0a c0       	rjmp	.+20     	; 0x4a5e <mmc_disk_initialize+0x1a8>
    4a4a:	1d b8       	out	0x0d, r1	; 13
    4a4c:	87 b3       	in	r24, 0x17	; 23
    4a4e:	8f 74       	andi	r24, 0x4F	; 79
    4a50:	87 bb       	out	0x17, r24	; 23
    4a52:	88 b3       	in	r24, 0x18	; 24
    4a54:	8f 74       	andi	r24, 0x4F	; 79
    4a56:	88 bb       	out	0x18, r24	; 24
    4a58:	88 b3       	in	r24, 0x18	; 24
    4a5a:	8c 60       	ori	r24, 0x0C	; 12
    4a5c:	88 bb       	out	0x18, r24	; 24
    4a5e:	80 91 48 01 	lds	r24, 0x0148
    4a62:	0f 90       	pop	r0
    4a64:	0f 90       	pop	r0
    4a66:	0f 90       	pop	r0
    4a68:	0f 90       	pop	r0
    4a6a:	cf 91       	pop	r28
    4a6c:	df 91       	pop	r29
    4a6e:	1f 91       	pop	r17
    4a70:	0f 91       	pop	r16
    4a72:	ff 90       	pop	r15
    4a74:	ef 90       	pop	r14
    4a76:	08 95       	ret

00004a78 <mmc_disk_status>:
    4a78:	80 91 48 01 	lds	r24, 0x0148
    4a7c:	08 95       	ret

00004a7e <mmc_disk_read>:
    4a7e:	ff 92       	push	r15
    4a80:	0f 93       	push	r16
    4a82:	1f 93       	push	r17
    4a84:	cf 93       	push	r28
    4a86:	df 93       	push	r29
    4a88:	8c 01       	movw	r16, r24
    4a8a:	e9 01       	movw	r28, r18
    4a8c:	21 15       	cp	r18, r1
    4a8e:	31 05       	cpc	r19, r1
    4a90:	11 f4       	brne	.+4      	; 0x4a96 <mmc_disk_read+0x18>
    4a92:	84 e0       	ldi	r24, 0x04	; 4
    4a94:	3e c0       	rjmp	.+124    	; 0x4b12 <mmc_disk_read+0x94>
    4a96:	80 91 48 01 	lds	r24, 0x0148
    4a9a:	80 ff       	sbrs	r24, 0
    4a9c:	02 c0       	rjmp	.+4      	; 0x4aa2 <mmc_disk_read+0x24>
    4a9e:	83 e0       	ldi	r24, 0x03	; 3
    4aa0:	38 c0       	rjmp	.+112    	; 0x4b12 <mmc_disk_read+0x94>
    4aa2:	80 91 dd 01 	lds	r24, 0x01DD
    4aa6:	84 fd       	sbrc	r24, 4
    4aa8:	07 c0       	rjmp	.+14     	; 0x4ab8 <mmc_disk_read+0x3a>
    4aaa:	f9 e0       	ldi	r31, 0x09	; 9
    4aac:	44 0f       	add	r20, r20
    4aae:	55 1f       	adc	r21, r21
    4ab0:	66 1f       	adc	r22, r22
    4ab2:	77 1f       	adc	r23, r23
    4ab4:	fa 95       	dec	r31
    4ab6:	d1 f7       	brne	.-12     	; 0x4aac <mmc_disk_read+0x2e>
    4ab8:	c2 30       	cpi	r28, 0x02	; 2
    4aba:	d1 05       	cpc	r29, r1
    4abc:	18 f4       	brcc	.+6      	; 0x4ac4 <mmc_disk_read+0x46>
    4abe:	e1 e1       	ldi	r30, 0x11	; 17
    4ac0:	fe 2e       	mov	r15, r30
    4ac2:	02 c0       	rjmp	.+4      	; 0x4ac8 <mmc_disk_read+0x4a>
    4ac4:	32 e1       	ldi	r19, 0x12	; 18
    4ac6:	f3 2e       	mov	r15, r19
    4ac8:	8f 2d       	mov	r24, r15
    4aca:	0e 94 ef 23 	call	0x47de	; 0x47de <send_cmd>
    4ace:	88 23       	and	r24, r24
    4ad0:	b1 f4       	brne	.+44     	; 0x4afe <mmc_disk_read+0x80>
    4ad2:	c8 01       	movw	r24, r16
    4ad4:	60 e0       	ldi	r22, 0x00	; 0
    4ad6:	72 e0       	ldi	r23, 0x02	; 2
    4ad8:	0e 94 7e 23 	call	0x46fc	; 0x46fc <rcvr_datablock>
    4adc:	89 2b       	or	r24, r25
    4ade:	29 f0       	breq	.+10     	; 0x4aea <mmc_disk_read+0x6c>
    4ae0:	21 97       	sbiw	r28, 0x01	; 1
    4ae2:	19 f0       	breq	.+6      	; 0x4aea <mmc_disk_read+0x6c>
    4ae4:	00 50       	subi	r16, 0x00	; 0
    4ae6:	1e 4f       	sbci	r17, 0xFE	; 254
    4ae8:	f4 cf       	rjmp	.-24     	; 0x4ad2 <mmc_disk_read+0x54>
    4aea:	82 e1       	ldi	r24, 0x12	; 18
    4aec:	f8 16       	cp	r15, r24
    4aee:	39 f4       	brne	.+14     	; 0x4afe <mmc_disk_read+0x80>
    4af0:	8c e0       	ldi	r24, 0x0C	; 12
    4af2:	40 e0       	ldi	r20, 0x00	; 0
    4af4:	50 e0       	ldi	r21, 0x00	; 0
    4af6:	60 e0       	ldi	r22, 0x00	; 0
    4af8:	70 e0       	ldi	r23, 0x00	; 0
    4afa:	0e 94 ef 23 	call	0x47de	; 0x47de <send_cmd>
    4afe:	c4 9a       	sbi	0x18, 4	; 24
    4b00:	8f ef       	ldi	r24, 0xFF	; 255
    4b02:	8f b9       	out	0x0f, r24	; 15
    4b04:	77 9b       	sbis	0x0e, 7	; 14
    4b06:	fe cf       	rjmp	.-4      	; 0x4b04 <mmc_disk_read+0x86>
    4b08:	8f b1       	in	r24, 0x0f	; 15
    4b0a:	80 e0       	ldi	r24, 0x00	; 0
    4b0c:	cd 2b       	or	r28, r29
    4b0e:	09 f0       	breq	.+2      	; 0x4b12 <mmc_disk_read+0x94>
    4b10:	81 e0       	ldi	r24, 0x01	; 1
    4b12:	df 91       	pop	r29
    4b14:	cf 91       	pop	r28
    4b16:	1f 91       	pop	r17
    4b18:	0f 91       	pop	r16
    4b1a:	ff 90       	pop	r15
    4b1c:	08 95       	ret

00004b1e <mmc_disk_write>:
    4b1e:	cf 92       	push	r12
    4b20:	df 92       	push	r13
    4b22:	ef 92       	push	r14
    4b24:	ff 92       	push	r15
    4b26:	0f 93       	push	r16
    4b28:	1f 93       	push	r17
    4b2a:	cf 93       	push	r28
    4b2c:	df 93       	push	r29
    4b2e:	6c 01       	movw	r12, r24
    4b30:	e9 01       	movw	r28, r18
    4b32:	21 15       	cp	r18, r1
    4b34:	31 05       	cpc	r19, r1
    4b36:	11 f4       	brne	.+4      	; 0x4b3c <mmc_disk_write+0x1e>
    4b38:	84 e0       	ldi	r24, 0x04	; 4
    4b3a:	5f c0       	rjmp	.+190    	; 0x4bfa <mmc_disk_write+0xdc>
    4b3c:	80 91 48 01 	lds	r24, 0x0148
    4b40:	80 ff       	sbrs	r24, 0
    4b42:	02 c0       	rjmp	.+4      	; 0x4b48 <mmc_disk_write+0x2a>
    4b44:	83 e0       	ldi	r24, 0x03	; 3
    4b46:	59 c0       	rjmp	.+178    	; 0x4bfa <mmc_disk_write+0xdc>
    4b48:	80 91 48 01 	lds	r24, 0x0148
    4b4c:	82 ff       	sbrs	r24, 2
    4b4e:	02 c0       	rjmp	.+4      	; 0x4b54 <mmc_disk_write+0x36>
    4b50:	82 e0       	ldi	r24, 0x02	; 2
    4b52:	53 c0       	rjmp	.+166    	; 0x4bfa <mmc_disk_write+0xdc>
    4b54:	80 91 dd 01 	lds	r24, 0x01DD
    4b58:	90 e0       	ldi	r25, 0x00	; 0
    4b5a:	84 ff       	sbrs	r24, 4
    4b5c:	03 c0       	rjmp	.+6      	; 0x4b64 <mmc_disk_write+0x46>
    4b5e:	7a 01       	movw	r14, r20
    4b60:	8b 01       	movw	r16, r22
    4b62:	09 c0       	rjmp	.+18     	; 0x4b76 <mmc_disk_write+0x58>
    4b64:	7a 01       	movw	r14, r20
    4b66:	8b 01       	movw	r16, r22
    4b68:	a9 e0       	ldi	r26, 0x09	; 9
    4b6a:	ee 0c       	add	r14, r14
    4b6c:	ff 1c       	adc	r15, r15
    4b6e:	00 1f       	adc	r16, r16
    4b70:	11 1f       	adc	r17, r17
    4b72:	aa 95       	dec	r26
    4b74:	d1 f7       	brne	.-12     	; 0x4b6a <mmc_disk_write+0x4c>
    4b76:	c1 30       	cpi	r28, 0x01	; 1
    4b78:	d1 05       	cpc	r29, r1
    4b7a:	71 f4       	brne	.+28     	; 0x4b98 <mmc_disk_write+0x7a>
    4b7c:	88 e1       	ldi	r24, 0x18	; 24
    4b7e:	b8 01       	movw	r22, r16
    4b80:	a7 01       	movw	r20, r14
    4b82:	0e 94 ef 23 	call	0x47de	; 0x47de <send_cmd>
    4b86:	88 23       	and	r24, r24
    4b88:	71 f5       	brne	.+92     	; 0x4be6 <mmc_disk_write+0xc8>
    4b8a:	c6 01       	movw	r24, r12
    4b8c:	6e ef       	ldi	r22, 0xFE	; 254
    4b8e:	0e 94 b1 23 	call	0x4762	; 0x4762 <xmit_datablock>
    4b92:	c0 e0       	ldi	r28, 0x00	; 0
    4b94:	d0 e0       	ldi	r29, 0x00	; 0
    4b96:	23 c0       	rjmp	.+70     	; 0x4bde <mmc_disk_write+0xc0>
    4b98:	8c 70       	andi	r24, 0x0C	; 12
    4b9a:	90 70       	andi	r25, 0x00	; 0
    4b9c:	89 2b       	or	r24, r25
    4b9e:	31 f0       	breq	.+12     	; 0x4bac <mmc_disk_write+0x8e>
    4ba0:	ae 01       	movw	r20, r28
    4ba2:	60 e0       	ldi	r22, 0x00	; 0
    4ba4:	70 e0       	ldi	r23, 0x00	; 0
    4ba6:	87 e9       	ldi	r24, 0x97	; 151
    4ba8:	0e 94 ef 23 	call	0x47de	; 0x47de <send_cmd>
    4bac:	89 e1       	ldi	r24, 0x19	; 25
    4bae:	b8 01       	movw	r22, r16
    4bb0:	a7 01       	movw	r20, r14
    4bb2:	0e 94 ef 23 	call	0x47de	; 0x47de <send_cmd>
    4bb6:	88 23       	and	r24, r24
    4bb8:	b1 f4       	brne	.+44     	; 0x4be6 <mmc_disk_write+0xc8>
    4bba:	c6 01       	movw	r24, r12
    4bbc:	6c ef       	ldi	r22, 0xFC	; 252
    4bbe:	0e 94 b1 23 	call	0x4762	; 0x4762 <xmit_datablock>
    4bc2:	89 2b       	or	r24, r25
    4bc4:	39 f0       	breq	.+14     	; 0x4bd4 <mmc_disk_write+0xb6>
    4bc6:	21 97       	sbiw	r28, 0x01	; 1
    4bc8:	29 f0       	breq	.+10     	; 0x4bd4 <mmc_disk_write+0xb6>
    4bca:	80 e0       	ldi	r24, 0x00	; 0
    4bcc:	92 e0       	ldi	r25, 0x02	; 2
    4bce:	c8 0e       	add	r12, r24
    4bd0:	d9 1e       	adc	r13, r25
    4bd2:	f3 cf       	rjmp	.-26     	; 0x4bba <mmc_disk_write+0x9c>
    4bd4:	80 e0       	ldi	r24, 0x00	; 0
    4bd6:	90 e0       	ldi	r25, 0x00	; 0
    4bd8:	6d ef       	ldi	r22, 0xFD	; 253
    4bda:	0e 94 b1 23 	call	0x4762	; 0x4762 <xmit_datablock>
    4bde:	89 2b       	or	r24, r25
    4be0:	11 f4       	brne	.+4      	; 0x4be6 <mmc_disk_write+0xc8>
    4be2:	c1 e0       	ldi	r28, 0x01	; 1
    4be4:	d0 e0       	ldi	r29, 0x00	; 0
    4be6:	c4 9a       	sbi	0x18, 4	; 24
    4be8:	8f ef       	ldi	r24, 0xFF	; 255
    4bea:	8f b9       	out	0x0f, r24	; 15
    4bec:	77 9b       	sbis	0x0e, 7	; 14
    4bee:	fe cf       	rjmp	.-4      	; 0x4bec <mmc_disk_write+0xce>
    4bf0:	8f b1       	in	r24, 0x0f	; 15
    4bf2:	80 e0       	ldi	r24, 0x00	; 0
    4bf4:	cd 2b       	or	r28, r29
    4bf6:	09 f0       	breq	.+2      	; 0x4bfa <mmc_disk_write+0xdc>
    4bf8:	81 e0       	ldi	r24, 0x01	; 1
    4bfa:	df 91       	pop	r29
    4bfc:	cf 91       	pop	r28
    4bfe:	1f 91       	pop	r17
    4c00:	0f 91       	pop	r16
    4c02:	ff 90       	pop	r15
    4c04:	ef 90       	pop	r14
    4c06:	df 90       	pop	r13
    4c08:	cf 90       	pop	r12
    4c0a:	08 95       	ret

00004c0c <mmc_disk_ioctl>:
    4c0c:	ff 92       	push	r15
    4c0e:	0f 93       	push	r16
    4c10:	1f 93       	push	r17
    4c12:	df 93       	push	r29
    4c14:	cf 93       	push	r28
    4c16:	cd b7       	in	r28, 0x3d	; 61
    4c18:	de b7       	in	r29, 0x3e	; 62
    4c1a:	60 97       	sbiw	r28, 0x10	; 16
    4c1c:	0f b6       	in	r0, 0x3f	; 63
    4c1e:	f8 94       	cli
    4c20:	de bf       	out	0x3e, r29	; 62
    4c22:	0f be       	out	0x3f, r0	; 63
    4c24:	cd bf       	out	0x3d, r28	; 61
    4c26:	98 2f       	mov	r25, r24
    4c28:	8b 01       	movw	r16, r22
    4c2a:	80 91 48 01 	lds	r24, 0x0148
    4c2e:	80 ff       	sbrs	r24, 0
    4c30:	02 c0       	rjmp	.+4      	; 0x4c36 <mmc_disk_ioctl+0x2a>
    4c32:	23 e0       	ldi	r18, 0x03	; 3
    4c34:	02 c3       	rjmp	.+1540   	; 0x523a <mmc_disk_ioctl+0x62e>
    4c36:	93 33       	cpi	r25, 0x33	; 51
    4c38:	09 f4       	brne	.+2      	; 0x4c3c <mmc_disk_ioctl+0x30>
    4c3a:	50 c1       	rjmp	.+672    	; 0x4edc <mmc_disk_ioctl+0x2d0>
    4c3c:	94 33       	cpi	r25, 0x34	; 52
    4c3e:	80 f4       	brcc	.+32     	; 0x4c60 <mmc_disk_ioctl+0x54>
    4c40:	93 30       	cpi	r25, 0x03	; 3
    4c42:	09 f4       	brne	.+2      	; 0x4c46 <mmc_disk_ioctl+0x3a>
    4c44:	af c0       	rjmp	.+350    	; 0x4da4 <mmc_disk_ioctl+0x198>
    4c46:	94 30       	cpi	r25, 0x04	; 4
    4c48:	28 f4       	brcc	.+10     	; 0x4c54 <mmc_disk_ioctl+0x48>
    4c4a:	99 23       	and	r25, r25
    4c4c:	f9 f0       	breq	.+62     	; 0x4c8c <mmc_disk_ioctl+0x80>
    4c4e:	91 30       	cpi	r25, 0x01	; 1
    4c50:	d9 f4       	brne	.+54     	; 0x4c88 <mmc_disk_ioctl+0x7c>
    4c52:	2a c0       	rjmp	.+84     	; 0x4ca8 <mmc_disk_ioctl+0x9c>
    4c54:	97 30       	cpi	r25, 0x07	; 7
    4c56:	09 f4       	brne	.+2      	; 0x4c5a <mmc_disk_ioctl+0x4e>
    4c58:	af c1       	rjmp	.+862    	; 0x4fb8 <mmc_disk_ioctl+0x3ac>
    4c5a:	92 33       	cpi	r25, 0x32	; 50
    4c5c:	a9 f4       	brne	.+42     	; 0x4c88 <mmc_disk_ioctl+0x7c>
    4c5e:	39 c1       	rjmp	.+626    	; 0x4ed2 <mmc_disk_ioctl+0x2c6>
    4c60:	96 33       	cpi	r25, 0x36	; 54
    4c62:	09 f4       	brne	.+2      	; 0x4c66 <mmc_disk_ioctl+0x5a>
    4c64:	8c c1       	rjmp	.+792    	; 0x4f7e <mmc_disk_ioctl+0x372>
    4c66:	97 33       	cpi	r25, 0x37	; 55
    4c68:	30 f4       	brcc	.+12     	; 0x4c76 <mmc_disk_ioctl+0x6a>
    4c6a:	94 33       	cpi	r25, 0x34	; 52
    4c6c:	09 f4       	brne	.+2      	; 0x4c70 <mmc_disk_ioctl+0x64>
    4c6e:	4e c1       	rjmp	.+668    	; 0x4f0c <mmc_disk_ioctl+0x300>
    4c70:	95 33       	cpi	r25, 0x35	; 53
    4c72:	51 f4       	brne	.+20     	; 0x4c88 <mmc_disk_ioctl+0x7c>
    4c74:	63 c1       	rjmp	.+710    	; 0x4f3c <mmc_disk_ioctl+0x330>
    4c76:	98 33       	cpi	r25, 0x38	; 56
    4c78:	09 f4       	brne	.+2      	; 0x4c7c <mmc_disk_ioctl+0x70>
    4c7a:	1d c2       	rjmp	.+1082   	; 0x50b6 <mmc_disk_ioctl+0x4aa>
    4c7c:	98 33       	cpi	r25, 0x38	; 56
    4c7e:	08 f4       	brcc	.+2      	; 0x4c82 <mmc_disk_ioctl+0x76>
    4c80:	ac c1       	rjmp	.+856    	; 0x4fda <mmc_disk_ioctl+0x3ce>
    4c82:	99 33       	cpi	r25, 0x39	; 57
    4c84:	09 f4       	brne	.+2      	; 0x4c88 <mmc_disk_ioctl+0x7c>
    4c86:	86 c2       	rjmp	.+1292   	; 0x5194 <mmc_disk_ioctl+0x588>
    4c88:	24 e0       	ldi	r18, 0x04	; 4
    4c8a:	d7 c2       	rjmp	.+1454   	; 0x523a <mmc_disk_ioctl+0x62e>
    4c8c:	0e 94 65 23 	call	0x46ca	; 0x46ca <select>
    4c90:	ac 01       	movw	r20, r24
    4c92:	c4 9a       	sbi	0x18, 4	; 24
    4c94:	8f ef       	ldi	r24, 0xFF	; 255
    4c96:	8f b9       	out	0x0f, r24	; 15
    4c98:	77 9b       	sbis	0x0e, 7	; 14
    4c9a:	fe cf       	rjmp	.-4      	; 0x4c98 <mmc_disk_ioctl+0x8c>
    4c9c:	20 e0       	ldi	r18, 0x00	; 0
    4c9e:	45 2b       	or	r20, r21
    4ca0:	09 f0       	breq	.+2      	; 0x4ca4 <mmc_disk_ioctl+0x98>
    4ca2:	ca c2       	rjmp	.+1428   	; 0x5238 <mmc_disk_ioctl+0x62c>
    4ca4:	21 e0       	ldi	r18, 0x01	; 1
    4ca6:	c8 c2       	rjmp	.+1424   	; 0x5238 <mmc_disk_ioctl+0x62c>
    4ca8:	89 e0       	ldi	r24, 0x09	; 9
    4caa:	40 e0       	ldi	r20, 0x00	; 0
    4cac:	50 e0       	ldi	r21, 0x00	; 0
    4cae:	60 e0       	ldi	r22, 0x00	; 0
    4cb0:	70 e0       	ldi	r23, 0x00	; 0
    4cb2:	0e 94 ef 23 	call	0x47de	; 0x47de <send_cmd>
    4cb6:	88 23       	and	r24, r24
    4cb8:	09 f0       	breq	.+2      	; 0x4cbc <mmc_disk_ioctl+0xb0>
    4cba:	6d c0       	rjmp	.+218    	; 0x4d96 <mmc_disk_ioctl+0x18a>
    4cbc:	ce 01       	movw	r24, r28
    4cbe:	01 96       	adiw	r24, 0x01	; 1
    4cc0:	60 e1       	ldi	r22, 0x10	; 16
    4cc2:	70 e0       	ldi	r23, 0x00	; 0
    4cc4:	0e 94 7e 23 	call	0x46fc	; 0x46fc <rcvr_datablock>
    4cc8:	89 2b       	or	r24, r25
    4cca:	09 f4       	brne	.+2      	; 0x4cce <mmc_disk_ioctl+0xc2>
    4ccc:	64 c0       	rjmp	.+200    	; 0x4d96 <mmc_disk_ioctl+0x18a>
    4cce:	89 81       	ldd	r24, Y+1	; 0x01
    4cd0:	82 95       	swap	r24
    4cd2:	86 95       	lsr	r24
    4cd4:	86 95       	lsr	r24
    4cd6:	83 70       	andi	r24, 0x03	; 3
    4cd8:	28 85       	ldd	r18, Y+8	; 0x08
    4cda:	69 85       	ldd	r22, Y+9	; 0x09
    4cdc:	7a 85       	ldd	r23, Y+10	; 0x0a
    4cde:	81 30       	cpi	r24, 0x01	; 1
    4ce0:	31 f5       	brne	.+76     	; 0x4d2e <mmc_disk_ioctl+0x122>
    4ce2:	30 e0       	ldi	r19, 0x00	; 0
    4ce4:	40 e0       	ldi	r20, 0x00	; 0
    4ce6:	50 e0       	ldi	r21, 0x00	; 0
    4ce8:	2f 73       	andi	r18, 0x3F	; 63
    4cea:	30 70       	andi	r19, 0x00	; 0
    4cec:	40 70       	andi	r20, 0x00	; 0
    4cee:	50 70       	andi	r21, 0x00	; 0
    4cf0:	a9 01       	movw	r20, r18
    4cf2:	33 27       	eor	r19, r19
    4cf4:	22 27       	eor	r18, r18
    4cf6:	2f 5f       	subi	r18, 0xFF	; 255
    4cf8:	3f 4f       	sbci	r19, 0xFF	; 255
    4cfa:	4f 4f       	sbci	r20, 0xFF	; 255
    4cfc:	5f 4f       	sbci	r21, 0xFF	; 255
    4cfe:	96 2f       	mov	r25, r22
    4d00:	80 e0       	ldi	r24, 0x00	; 0
    4d02:	87 0f       	add	r24, r23
    4d04:	91 1d       	adc	r25, r1
    4d06:	a0 e0       	ldi	r26, 0x00	; 0
    4d08:	b0 e0       	ldi	r27, 0x00	; 0
    4d0a:	28 0f       	add	r18, r24
    4d0c:	39 1f       	adc	r19, r25
    4d0e:	4a 1f       	adc	r20, r26
    4d10:	5b 1f       	adc	r21, r27
    4d12:	aa e0       	ldi	r26, 0x0A	; 10
    4d14:	22 0f       	add	r18, r18
    4d16:	33 1f       	adc	r19, r19
    4d18:	44 1f       	adc	r20, r20
    4d1a:	55 1f       	adc	r21, r21
    4d1c:	aa 95       	dec	r26
    4d1e:	d1 f7       	brne	.-12     	; 0x4d14 <mmc_disk_ioctl+0x108>
    4d20:	d8 01       	movw	r26, r16
    4d22:	2d 93       	st	X+, r18
    4d24:	3d 93       	st	X+, r19
    4d26:	4d 93       	st	X+, r20
    4d28:	5c 93       	st	X, r21
    4d2a:	13 97       	sbiw	r26, 0x03	; 3
    4d2c:	32 c0       	rjmp	.+100    	; 0x4d92 <mmc_disk_ioctl+0x186>
    4d2e:	62 95       	swap	r22
    4d30:	66 95       	lsr	r22
    4d32:	66 95       	lsr	r22
    4d34:	63 70       	andi	r22, 0x03	; 3
    4d36:	30 e0       	ldi	r19, 0x00	; 0
    4d38:	22 0f       	add	r18, r18
    4d3a:	33 1f       	adc	r19, r19
    4d3c:	22 0f       	add	r18, r18
    4d3e:	33 1f       	adc	r19, r19
    4d40:	26 0f       	add	r18, r22
    4d42:	31 1d       	adc	r19, r1
    4d44:	2f 5f       	subi	r18, 0xFF	; 255
    4d46:	3f 4f       	sbci	r19, 0xFF	; 255
    4d48:	8f 81       	ldd	r24, Y+7	; 0x07
    4d4a:	90 e0       	ldi	r25, 0x00	; 0
    4d4c:	83 70       	andi	r24, 0x03	; 3
    4d4e:	90 70       	andi	r25, 0x00	; 0
    4d50:	98 2f       	mov	r25, r24
    4d52:	88 27       	eor	r24, r24
    4d54:	99 0f       	add	r25, r25
    4d56:	99 0f       	add	r25, r25
    4d58:	28 0f       	add	r18, r24
    4d5a:	39 1f       	adc	r19, r25
    4d5c:	40 e0       	ldi	r20, 0x00	; 0
    4d5e:	50 e0       	ldi	r21, 0x00	; 0
    4d60:	8e 81       	ldd	r24, Y+6	; 0x06
    4d62:	8f 70       	andi	r24, 0x0F	; 15
    4d64:	6b 85       	ldd	r22, Y+11	; 0x0b
    4d66:	66 1f       	adc	r22, r22
    4d68:	66 27       	eor	r22, r22
    4d6a:	66 1f       	adc	r22, r22
    4d6c:	86 0f       	add	r24, r22
    4d6e:	8e 5f       	subi	r24, 0xFE	; 254
    4d70:	73 70       	andi	r23, 0x03	; 3
    4d72:	77 0f       	add	r23, r23
    4d74:	87 0f       	add	r24, r23
    4d76:	90 e0       	ldi	r25, 0x00	; 0
    4d78:	09 97       	sbiw	r24, 0x09	; 9
    4d7a:	04 c0       	rjmp	.+8      	; 0x4d84 <mmc_disk_ioctl+0x178>
    4d7c:	22 0f       	add	r18, r18
    4d7e:	33 1f       	adc	r19, r19
    4d80:	44 1f       	adc	r20, r20
    4d82:	55 1f       	adc	r21, r21
    4d84:	8a 95       	dec	r24
    4d86:	d2 f7       	brpl	.-12     	; 0x4d7c <mmc_disk_ioctl+0x170>
    4d88:	f8 01       	movw	r30, r16
    4d8a:	20 83       	st	Z, r18
    4d8c:	31 83       	std	Z+1, r19	; 0x01
    4d8e:	42 83       	std	Z+2, r20	; 0x02
    4d90:	53 83       	std	Z+3, r21	; 0x03
    4d92:	20 e0       	ldi	r18, 0x00	; 0
    4d94:	01 c0       	rjmp	.+2      	; 0x4d98 <mmc_disk_ioctl+0x18c>
    4d96:	21 e0       	ldi	r18, 0x01	; 1
    4d98:	c4 9a       	sbi	0x18, 4	; 24
    4d9a:	8f ef       	ldi	r24, 0xFF	; 255
    4d9c:	8f b9       	out	0x0f, r24	; 15
    4d9e:	77 9b       	sbis	0x0e, 7	; 14
    4da0:	fe cf       	rjmp	.-4      	; 0x4d9e <mmc_disk_ioctl+0x192>
    4da2:	4a c2       	rjmp	.+1172   	; 0x5238 <mmc_disk_ioctl+0x62c>
    4da4:	80 91 dd 01 	lds	r24, 0x01DD
    4da8:	f8 2e       	mov	r15, r24
    4daa:	83 ff       	sbrs	r24, 3
    4dac:	2f c0       	rjmp	.+94     	; 0x4e0c <mmc_disk_ioctl+0x200>
    4dae:	8d e8       	ldi	r24, 0x8D	; 141
    4db0:	40 e0       	ldi	r20, 0x00	; 0
    4db2:	50 e0       	ldi	r21, 0x00	; 0
    4db4:	60 e0       	ldi	r22, 0x00	; 0
    4db6:	70 e0       	ldi	r23, 0x00	; 0
    4db8:	0e 94 ef 23 	call	0x47de	; 0x47de <send_cmd>
    4dbc:	88 23       	and	r24, r24
    4dbe:	09 f0       	breq	.+2      	; 0x4dc2 <mmc_disk_ioctl+0x1b6>
    4dc0:	81 c0       	rjmp	.+258    	; 0x4ec4 <mmc_disk_ioctl+0x2b8>
    4dc2:	8f ef       	ldi	r24, 0xFF	; 255
    4dc4:	8f b9       	out	0x0f, r24	; 15
    4dc6:	77 9b       	sbis	0x0e, 7	; 14
    4dc8:	fe cf       	rjmp	.-4      	; 0x4dc6 <mmc_disk_ioctl+0x1ba>
    4dca:	8f b1       	in	r24, 0x0f	; 15
    4dcc:	ce 01       	movw	r24, r28
    4dce:	01 96       	adiw	r24, 0x01	; 1
    4dd0:	60 e1       	ldi	r22, 0x10	; 16
    4dd2:	70 e0       	ldi	r23, 0x00	; 0
    4dd4:	0e 94 7e 23 	call	0x46fc	; 0x46fc <rcvr_datablock>
    4dd8:	89 2b       	or	r24, r25
    4dda:	09 f4       	brne	.+2      	; 0x4dde <mmc_disk_ioctl+0x1d2>
    4ddc:	73 c0       	rjmp	.+230    	; 0x4ec4 <mmc_disk_ioctl+0x2b8>
    4dde:	80 e3       	ldi	r24, 0x30	; 48
    4de0:	9f ef       	ldi	r25, 0xFF	; 255
    4de2:	9f b9       	out	0x0f, r25	; 15
    4de4:	77 9b       	sbis	0x0e, 7	; 14
    4de6:	fe cf       	rjmp	.-4      	; 0x4de4 <mmc_disk_ioctl+0x1d8>
    4de8:	2f b1       	in	r18, 0x0f	; 15
    4dea:	81 50       	subi	r24, 0x01	; 1
    4dec:	d1 f7       	brne	.-12     	; 0x4de2 <mmc_disk_ioctl+0x1d6>
    4dee:	2b 85       	ldd	r18, Y+11	; 0x0b
    4df0:	22 95       	swap	r18
    4df2:	2f 70       	andi	r18, 0x0F	; 15
    4df4:	80 e1       	ldi	r24, 0x10	; 16
    4df6:	90 e0       	ldi	r25, 0x00	; 0
    4df8:	a0 e0       	ldi	r26, 0x00	; 0
    4dfa:	b0 e0       	ldi	r27, 0x00	; 0
    4dfc:	04 c0       	rjmp	.+8      	; 0x4e06 <mmc_disk_ioctl+0x1fa>
    4dfe:	88 0f       	add	r24, r24
    4e00:	99 1f       	adc	r25, r25
    4e02:	aa 1f       	adc	r26, r26
    4e04:	bb 1f       	adc	r27, r27
    4e06:	2a 95       	dec	r18
    4e08:	d2 f7       	brpl	.-12     	; 0x4dfe <mmc_disk_ioctl+0x1f2>
    4e0a:	55 c0       	rjmp	.+170    	; 0x4eb6 <mmc_disk_ioctl+0x2aa>
    4e0c:	89 e0       	ldi	r24, 0x09	; 9
    4e0e:	40 e0       	ldi	r20, 0x00	; 0
    4e10:	50 e0       	ldi	r21, 0x00	; 0
    4e12:	60 e0       	ldi	r22, 0x00	; 0
    4e14:	70 e0       	ldi	r23, 0x00	; 0
    4e16:	0e 94 ef 23 	call	0x47de	; 0x47de <send_cmd>
    4e1a:	88 23       	and	r24, r24
    4e1c:	09 f0       	breq	.+2      	; 0x4e20 <mmc_disk_ioctl+0x214>
    4e1e:	52 c0       	rjmp	.+164    	; 0x4ec4 <mmc_disk_ioctl+0x2b8>
    4e20:	ce 01       	movw	r24, r28
    4e22:	01 96       	adiw	r24, 0x01	; 1
    4e24:	60 e1       	ldi	r22, 0x10	; 16
    4e26:	70 e0       	ldi	r23, 0x00	; 0
    4e28:	0e 94 7e 23 	call	0x46fc	; 0x46fc <rcvr_datablock>
    4e2c:	89 2b       	or	r24, r25
    4e2e:	09 f4       	brne	.+2      	; 0x4e32 <mmc_disk_ioctl+0x226>
    4e30:	49 c0       	rjmp	.+146    	; 0x4ec4 <mmc_disk_ioctl+0x2b8>
    4e32:	4b 85       	ldd	r20, Y+11	; 0x0b
    4e34:	8c 85       	ldd	r24, Y+12	; 0x0c
    4e36:	f2 fe       	sbrs	r15, 2
    4e38:	1b c0       	rjmp	.+54     	; 0x4e70 <mmc_disk_ioctl+0x264>
    4e3a:	88 1f       	adc	r24, r24
    4e3c:	88 27       	eor	r24, r24
    4e3e:	88 1f       	adc	r24, r24
    4e40:	90 e0       	ldi	r25, 0x00	; 0
    4e42:	01 96       	adiw	r24, 0x01	; 1
    4e44:	24 2f       	mov	r18, r20
    4e46:	30 e0       	ldi	r19, 0x00	; 0
    4e48:	2f 73       	andi	r18, 0x3F	; 63
    4e4a:	30 70       	andi	r19, 0x00	; 0
    4e4c:	22 0f       	add	r18, r18
    4e4e:	33 1f       	adc	r19, r19
    4e50:	82 0f       	add	r24, r18
    4e52:	93 1f       	adc	r25, r19
    4e54:	2e 85       	ldd	r18, Y+14	; 0x0e
    4e56:	22 95       	swap	r18
    4e58:	26 95       	lsr	r18
    4e5a:	26 95       	lsr	r18
    4e5c:	23 70       	andi	r18, 0x03	; 3
    4e5e:	30 e0       	ldi	r19, 0x00	; 0
    4e60:	21 50       	subi	r18, 0x01	; 1
    4e62:	30 40       	sbci	r19, 0x00	; 0
    4e64:	02 c0       	rjmp	.+4      	; 0x4e6a <mmc_disk_ioctl+0x25e>
    4e66:	88 0f       	add	r24, r24
    4e68:	99 1f       	adc	r25, r25
    4e6a:	2a 95       	dec	r18
    4e6c:	e2 f7       	brpl	.-8      	; 0x4e66 <mmc_disk_ioctl+0x25a>
    4e6e:	21 c0       	rjmp	.+66     	; 0x4eb2 <mmc_disk_ioctl+0x2a6>
    4e70:	28 2f       	mov	r18, r24
    4e72:	30 e0       	ldi	r19, 0x00	; 0
    4e74:	23 70       	andi	r18, 0x03	; 3
    4e76:	30 70       	andi	r19, 0x00	; 0
    4e78:	53 e0       	ldi	r21, 0x03	; 3
    4e7a:	22 0f       	add	r18, r18
    4e7c:	33 1f       	adc	r19, r19
    4e7e:	5a 95       	dec	r21
    4e80:	e1 f7       	brne	.-8      	; 0x4e7a <mmc_disk_ioctl+0x26e>
    4e82:	82 95       	swap	r24
    4e84:	86 95       	lsr	r24
    4e86:	87 70       	andi	r24, 0x07	; 7
    4e88:	28 0f       	add	r18, r24
    4e8a:	31 1d       	adc	r19, r1
    4e8c:	2f 5f       	subi	r18, 0xFF	; 255
    4e8e:	3f 4f       	sbci	r19, 0xFF	; 255
    4e90:	84 2f       	mov	r24, r20
    4e92:	90 e0       	ldi	r25, 0x00	; 0
    4e94:	8c 77       	andi	r24, 0x7C	; 124
    4e96:	90 70       	andi	r25, 0x00	; 0
    4e98:	95 95       	asr	r25
    4e9a:	87 95       	ror	r24
    4e9c:	95 95       	asr	r25
    4e9e:	87 95       	ror	r24
    4ea0:	01 96       	adiw	r24, 0x01	; 1
    4ea2:	ac 01       	movw	r20, r24
    4ea4:	24 9f       	mul	r18, r20
    4ea6:	c0 01       	movw	r24, r0
    4ea8:	25 9f       	mul	r18, r21
    4eaa:	90 0d       	add	r25, r0
    4eac:	34 9f       	mul	r19, r20
    4eae:	90 0d       	add	r25, r0
    4eb0:	11 24       	eor	r1, r1
    4eb2:	a0 e0       	ldi	r26, 0x00	; 0
    4eb4:	b0 e0       	ldi	r27, 0x00	; 0
    4eb6:	f8 01       	movw	r30, r16
    4eb8:	80 83       	st	Z, r24
    4eba:	91 83       	std	Z+1, r25	; 0x01
    4ebc:	a2 83       	std	Z+2, r26	; 0x02
    4ebe:	b3 83       	std	Z+3, r27	; 0x03
    4ec0:	20 e0       	ldi	r18, 0x00	; 0
    4ec2:	01 c0       	rjmp	.+2      	; 0x4ec6 <mmc_disk_ioctl+0x2ba>
    4ec4:	21 e0       	ldi	r18, 0x01	; 1
    4ec6:	c4 9a       	sbi	0x18, 4	; 24
    4ec8:	8f ef       	ldi	r24, 0xFF	; 255
    4eca:	8f b9       	out	0x0f, r24	; 15
    4ecc:	77 9b       	sbis	0x0e, 7	; 14
    4ece:	fe cf       	rjmp	.-4      	; 0x4ecc <mmc_disk_ioctl+0x2c0>
    4ed0:	b3 c1       	rjmp	.+870    	; 0x5238 <mmc_disk_ioctl+0x62c>
    4ed2:	80 91 dd 01 	lds	r24, 0x01DD
    4ed6:	db 01       	movw	r26, r22
    4ed8:	8c 93       	st	X, r24
    4eda:	7d c0       	rjmp	.+250    	; 0x4fd6 <mmc_disk_ioctl+0x3ca>
    4edc:	89 e0       	ldi	r24, 0x09	; 9
    4ede:	40 e0       	ldi	r20, 0x00	; 0
    4ee0:	50 e0       	ldi	r21, 0x00	; 0
    4ee2:	60 e0       	ldi	r22, 0x00	; 0
    4ee4:	70 e0       	ldi	r23, 0x00	; 0
    4ee6:	0e 94 ef 23 	call	0x47de	; 0x47de <send_cmd>
    4eea:	88 23       	and	r24, r24
    4eec:	41 f4       	brne	.+16     	; 0x4efe <mmc_disk_ioctl+0x2f2>
    4eee:	c8 01       	movw	r24, r16
    4ef0:	60 e1       	ldi	r22, 0x10	; 16
    4ef2:	70 e0       	ldi	r23, 0x00	; 0
    4ef4:	0e 94 7e 23 	call	0x46fc	; 0x46fc <rcvr_datablock>
    4ef8:	20 e0       	ldi	r18, 0x00	; 0
    4efa:	89 2b       	or	r24, r25
    4efc:	09 f4       	brne	.+2      	; 0x4f00 <mmc_disk_ioctl+0x2f4>
    4efe:	21 e0       	ldi	r18, 0x01	; 1
    4f00:	c4 9a       	sbi	0x18, 4	; 24
    4f02:	8f ef       	ldi	r24, 0xFF	; 255
    4f04:	8f b9       	out	0x0f, r24	; 15
    4f06:	77 9b       	sbis	0x0e, 7	; 14
    4f08:	fe cf       	rjmp	.-4      	; 0x4f06 <mmc_disk_ioctl+0x2fa>
    4f0a:	96 c1       	rjmp	.+812    	; 0x5238 <mmc_disk_ioctl+0x62c>
    4f0c:	8a e0       	ldi	r24, 0x0A	; 10
    4f0e:	40 e0       	ldi	r20, 0x00	; 0
    4f10:	50 e0       	ldi	r21, 0x00	; 0
    4f12:	60 e0       	ldi	r22, 0x00	; 0
    4f14:	70 e0       	ldi	r23, 0x00	; 0
    4f16:	0e 94 ef 23 	call	0x47de	; 0x47de <send_cmd>
    4f1a:	88 23       	and	r24, r24
    4f1c:	41 f4       	brne	.+16     	; 0x4f2e <mmc_disk_ioctl+0x322>
    4f1e:	c8 01       	movw	r24, r16
    4f20:	60 e1       	ldi	r22, 0x10	; 16
    4f22:	70 e0       	ldi	r23, 0x00	; 0
    4f24:	0e 94 7e 23 	call	0x46fc	; 0x46fc <rcvr_datablock>
    4f28:	20 e0       	ldi	r18, 0x00	; 0
    4f2a:	89 2b       	or	r24, r25
    4f2c:	09 f4       	brne	.+2      	; 0x4f30 <mmc_disk_ioctl+0x324>
    4f2e:	21 e0       	ldi	r18, 0x01	; 1
    4f30:	c4 9a       	sbi	0x18, 4	; 24
    4f32:	8f ef       	ldi	r24, 0xFF	; 255
    4f34:	8f b9       	out	0x0f, r24	; 15
    4f36:	77 9b       	sbis	0x0e, 7	; 14
    4f38:	fe cf       	rjmp	.-4      	; 0x4f36 <mmc_disk_ioctl+0x32a>
    4f3a:	7e c1       	rjmp	.+764    	; 0x5238 <mmc_disk_ioctl+0x62c>
    4f3c:	8a e3       	ldi	r24, 0x3A	; 58
    4f3e:	40 e0       	ldi	r20, 0x00	; 0
    4f40:	50 e0       	ldi	r21, 0x00	; 0
    4f42:	60 e0       	ldi	r22, 0x00	; 0
    4f44:	70 e0       	ldi	r23, 0x00	; 0
    4f46:	0e 94 ef 23 	call	0x47de	; 0x47de <send_cmd>
    4f4a:	88 23       	and	r24, r24
    4f4c:	89 f4       	brne	.+34     	; 0x4f70 <mmc_disk_ioctl+0x364>
    4f4e:	f8 01       	movw	r30, r16
    4f50:	9f ef       	ldi	r25, 0xFF	; 255
    4f52:	98 01       	movw	r18, r16
    4f54:	2d 5f       	subi	r18, 0xFD	; 253
    4f56:	3f 4f       	sbci	r19, 0xFF	; 255
    4f58:	9f b9       	out	0x0f, r25	; 15
    4f5a:	77 9b       	sbis	0x0e, 7	; 14
    4f5c:	fe cf       	rjmp	.-4      	; 0x4f5a <mmc_disk_ioctl+0x34e>
    4f5e:	8f b1       	in	r24, 0x0f	; 15
    4f60:	80 83       	st	Z, r24
    4f62:	e2 17       	cp	r30, r18
    4f64:	f3 07       	cpc	r31, r19
    4f66:	11 f4       	brne	.+4      	; 0x4f6c <mmc_disk_ioctl+0x360>
    4f68:	20 e0       	ldi	r18, 0x00	; 0
    4f6a:	03 c0       	rjmp	.+6      	; 0x4f72 <mmc_disk_ioctl+0x366>
    4f6c:	31 96       	adiw	r30, 0x01	; 1
    4f6e:	f4 cf       	rjmp	.-24     	; 0x4f58 <mmc_disk_ioctl+0x34c>
    4f70:	21 e0       	ldi	r18, 0x01	; 1
    4f72:	c4 9a       	sbi	0x18, 4	; 24
    4f74:	8f ef       	ldi	r24, 0xFF	; 255
    4f76:	8f b9       	out	0x0f, r24	; 15
    4f78:	77 9b       	sbis	0x0e, 7	; 14
    4f7a:	fe cf       	rjmp	.-4      	; 0x4f78 <mmc_disk_ioctl+0x36c>
    4f7c:	5d c1       	rjmp	.+698    	; 0x5238 <mmc_disk_ioctl+0x62c>
    4f7e:	8d e8       	ldi	r24, 0x8D	; 141
    4f80:	40 e0       	ldi	r20, 0x00	; 0
    4f82:	50 e0       	ldi	r21, 0x00	; 0
    4f84:	60 e0       	ldi	r22, 0x00	; 0
    4f86:	70 e0       	ldi	r23, 0x00	; 0
    4f88:	0e 94 ef 23 	call	0x47de	; 0x47de <send_cmd>
    4f8c:	88 23       	and	r24, r24
    4f8e:	69 f4       	brne	.+26     	; 0x4faa <mmc_disk_ioctl+0x39e>
    4f90:	8f ef       	ldi	r24, 0xFF	; 255
    4f92:	8f b9       	out	0x0f, r24	; 15
    4f94:	77 9b       	sbis	0x0e, 7	; 14
    4f96:	fe cf       	rjmp	.-4      	; 0x4f94 <mmc_disk_ioctl+0x388>
    4f98:	8f b1       	in	r24, 0x0f	; 15
    4f9a:	c8 01       	movw	r24, r16
    4f9c:	60 e4       	ldi	r22, 0x40	; 64
    4f9e:	70 e0       	ldi	r23, 0x00	; 0
    4fa0:	0e 94 7e 23 	call	0x46fc	; 0x46fc <rcvr_datablock>
    4fa4:	20 e0       	ldi	r18, 0x00	; 0
    4fa6:	89 2b       	or	r24, r25
    4fa8:	09 f4       	brne	.+2      	; 0x4fac <mmc_disk_ioctl+0x3a0>
    4faa:	21 e0       	ldi	r18, 0x01	; 1
    4fac:	c4 9a       	sbi	0x18, 4	; 24
    4fae:	8f ef       	ldi	r24, 0xFF	; 255
    4fb0:	8f b9       	out	0x0f, r24	; 15
    4fb2:	77 9b       	sbis	0x0e, 7	; 14
    4fb4:	fe cf       	rjmp	.-4      	; 0x4fb2 <mmc_disk_ioctl+0x3a6>
    4fb6:	40 c1       	rjmp	.+640    	; 0x5238 <mmc_disk_ioctl+0x62c>
    4fb8:	1d b8       	out	0x0d, r1	; 13
    4fba:	87 b3       	in	r24, 0x17	; 23
    4fbc:	8f 74       	andi	r24, 0x4F	; 79
    4fbe:	87 bb       	out	0x17, r24	; 23
    4fc0:	88 b3       	in	r24, 0x18	; 24
    4fc2:	8f 74       	andi	r24, 0x4F	; 79
    4fc4:	88 bb       	out	0x18, r24	; 24
    4fc6:	88 b3       	in	r24, 0x18	; 24
    4fc8:	8c 60       	ori	r24, 0x0C	; 12
    4fca:	88 bb       	out	0x18, r24	; 24
    4fcc:	80 91 48 01 	lds	r24, 0x0148
    4fd0:	81 60       	ori	r24, 0x01	; 1
    4fd2:	80 93 48 01 	sts	0x0148, r24
    4fd6:	20 e0       	ldi	r18, 0x00	; 0
    4fd8:	30 c1       	rjmp	.+608    	; 0x523a <mmc_disk_ioctl+0x62e>
    4fda:	fb 01       	movw	r30, r22
    4fdc:	43 81       	ldd	r20, Z+3	; 0x03
    4fde:	54 81       	ldd	r21, Z+4	; 0x04
    4fe0:	65 81       	ldd	r22, Z+5	; 0x05
    4fe2:	76 81       	ldd	r23, Z+6	; 0x06
    4fe4:	39 e0       	ldi	r19, 0x09	; 9
    4fe6:	44 0f       	add	r20, r20
    4fe8:	55 1f       	adc	r21, r21
    4fea:	66 1f       	adc	r22, r22
    4fec:	77 1f       	adc	r23, r23
    4fee:	3a 95       	dec	r19
    4ff0:	d1 f7       	brne	.-12     	; 0x4fe6 <mmc_disk_ioctl+0x3da>
    4ff2:	70 68       	ori	r23, 0x80	; 128
    4ff4:	80 81       	ld	r24, Z
    4ff6:	90 e0       	ldi	r25, 0x00	; 0
    4ff8:	a0 e0       	ldi	r26, 0x00	; 0
    4ffa:	b0 e0       	ldi	r27, 0x00	; 0
    4ffc:	2c e1       	ldi	r18, 0x1C	; 28
    4ffe:	88 0f       	add	r24, r24
    5000:	99 1f       	adc	r25, r25
    5002:	aa 1f       	adc	r26, r26
    5004:	bb 1f       	adc	r27, r27
    5006:	2a 95       	dec	r18
    5008:	d1 f7       	brne	.-12     	; 0x4ffe <mmc_disk_ioctl+0x3f2>
    500a:	48 2b       	or	r20, r24
    500c:	59 2b       	or	r21, r25
    500e:	6a 2b       	or	r22, r26
    5010:	7b 2b       	or	r23, r27
    5012:	81 81       	ldd	r24, Z+1	; 0x01
    5014:	92 81       	ldd	r25, Z+2	; 0x02
    5016:	01 97       	sbiw	r24, 0x01	; 1
    5018:	a0 e0       	ldi	r26, 0x00	; 0
    501a:	b0 e0       	ldi	r27, 0x00	; 0
    501c:	91 70       	andi	r25, 0x01	; 1
    501e:	a0 70       	andi	r26, 0x00	; 0
    5020:	b0 70       	andi	r27, 0x00	; 0
    5022:	48 2b       	or	r20, r24
    5024:	59 2b       	or	r21, r25
    5026:	6a 2b       	or	r22, r26
    5028:	7b 2b       	or	r23, r27
    502a:	80 e3       	ldi	r24, 0x30	; 48
    502c:	0e 94 ef 23 	call	0x47de	; 0x47de <send_cmd>
    5030:	88 23       	and	r24, r24
    5032:	d1 f5       	brne	.+116    	; 0x50a8 <mmc_disk_ioctl+0x49c>
    5034:	84 e6       	ldi	r24, 0x64	; 100
    5036:	80 93 da 01 	sts	0x01DA, r24
    503a:	9f ef       	ldi	r25, 0xFF	; 255
    503c:	9f b9       	out	0x0f, r25	; 15
    503e:	77 9b       	sbis	0x0e, 7	; 14
    5040:	fe cf       	rjmp	.-4      	; 0x503e <mmc_disk_ioctl+0x432>
    5042:	8f b1       	in	r24, 0x0f	; 15
    5044:	8f 3f       	cpi	r24, 0xFF	; 255
    5046:	29 f4       	brne	.+10     	; 0x5052 <mmc_disk_ioctl+0x446>
    5048:	80 91 da 01 	lds	r24, 0x01DA
    504c:	88 23       	and	r24, r24
    504e:	b1 f7       	brne	.-20     	; 0x503c <mmc_disk_ioctl+0x430>
    5050:	2b c0       	rjmp	.+86     	; 0x50a8 <mmc_disk_ioctl+0x49c>
    5052:	8e 3f       	cpi	r24, 0xFE	; 254
    5054:	49 f5       	brne	.+82     	; 0x50a8 <mmc_disk_ioctl+0x49c>
    5056:	d8 01       	movw	r26, r16
    5058:	17 96       	adiw	r26, 0x07	; 7
    505a:	ed 91       	ld	r30, X+
    505c:	fc 91       	ld	r31, X
    505e:	18 97       	sbiw	r26, 0x08	; 8
    5060:	11 96       	adiw	r26, 0x01	; 1
    5062:	2d 91       	ld	r18, X+
    5064:	3c 91       	ld	r19, X
    5066:	12 97       	sbiw	r26, 0x02	; 2
    5068:	9f ef       	ldi	r25, 0xFF	; 255
    506a:	07 c0       	rjmp	.+14     	; 0x507a <mmc_disk_ioctl+0x46e>
    506c:	9f b9       	out	0x0f, r25	; 15
    506e:	77 9b       	sbis	0x0e, 7	; 14
    5070:	fe cf       	rjmp	.-4      	; 0x506e <mmc_disk_ioctl+0x462>
    5072:	8f b1       	in	r24, 0x0f	; 15
    5074:	81 93       	st	Z+, r24
    5076:	21 50       	subi	r18, 0x01	; 1
    5078:	30 40       	sbci	r19, 0x00	; 0
    507a:	21 15       	cp	r18, r1
    507c:	31 05       	cpc	r19, r1
    507e:	b1 f7       	brne	.-20     	; 0x506c <mmc_disk_ioctl+0x460>
    5080:	22 e0       	ldi	r18, 0x02	; 2
    5082:	32 e0       	ldi	r19, 0x02	; 2
    5084:	f8 01       	movw	r30, r16
    5086:	81 81       	ldd	r24, Z+1	; 0x01
    5088:	92 81       	ldd	r25, Z+2	; 0x02
    508a:	28 1b       	sub	r18, r24
    508c:	39 0b       	sbc	r19, r25
    508e:	8f ef       	ldi	r24, 0xFF	; 255
    5090:	06 c0       	rjmp	.+12     	; 0x509e <mmc_disk_ioctl+0x492>
    5092:	8f b9       	out	0x0f, r24	; 15
    5094:	77 9b       	sbis	0x0e, 7	; 14
    5096:	fe cf       	rjmp	.-4      	; 0x5094 <mmc_disk_ioctl+0x488>
    5098:	9f b1       	in	r25, 0x0f	; 15
    509a:	21 50       	subi	r18, 0x01	; 1
    509c:	30 40       	sbci	r19, 0x00	; 0
    509e:	21 15       	cp	r18, r1
    50a0:	31 05       	cpc	r19, r1
    50a2:	b9 f7       	brne	.-18     	; 0x5092 <mmc_disk_ioctl+0x486>
    50a4:	20 e0       	ldi	r18, 0x00	; 0
    50a6:	01 c0       	rjmp	.+2      	; 0x50aa <mmc_disk_ioctl+0x49e>
    50a8:	21 e0       	ldi	r18, 0x01	; 1
    50aa:	c4 9a       	sbi	0x18, 4	; 24
    50ac:	8f ef       	ldi	r24, 0xFF	; 255
    50ae:	8f b9       	out	0x0f, r24	; 15
    50b0:	77 9b       	sbis	0x0e, 7	; 14
    50b2:	fe cf       	rjmp	.-4      	; 0x50b0 <mmc_disk_ioctl+0x4a4>
    50b4:	c1 c0       	rjmp	.+386    	; 0x5238 <mmc_disk_ioctl+0x62c>
    50b6:	db 01       	movw	r26, r22
    50b8:	13 96       	adiw	r26, 0x03	; 3
    50ba:	4d 91       	ld	r20, X+
    50bc:	5d 91       	ld	r21, X+
    50be:	6d 91       	ld	r22, X+
    50c0:	7c 91       	ld	r23, X
    50c2:	16 97       	sbiw	r26, 0x06	; 6
    50c4:	f9 e0       	ldi	r31, 0x09	; 9
    50c6:	44 0f       	add	r20, r20
    50c8:	55 1f       	adc	r21, r21
    50ca:	66 1f       	adc	r22, r22
    50cc:	77 1f       	adc	r23, r23
    50ce:	fa 95       	dec	r31
    50d0:	d1 f7       	brne	.-12     	; 0x50c6 <mmc_disk_ioctl+0x4ba>
    50d2:	70 68       	ori	r23, 0x80	; 128
    50d4:	8c 91       	ld	r24, X
    50d6:	90 e0       	ldi	r25, 0x00	; 0
    50d8:	a0 e0       	ldi	r26, 0x00	; 0
    50da:	b0 e0       	ldi	r27, 0x00	; 0
    50dc:	ec e1       	ldi	r30, 0x1C	; 28
    50de:	88 0f       	add	r24, r24
    50e0:	99 1f       	adc	r25, r25
    50e2:	aa 1f       	adc	r26, r26
    50e4:	bb 1f       	adc	r27, r27
    50e6:	ea 95       	dec	r30
    50e8:	d1 f7       	brne	.-12     	; 0x50de <mmc_disk_ioctl+0x4d2>
    50ea:	48 2b       	or	r20, r24
    50ec:	59 2b       	or	r21, r25
    50ee:	6a 2b       	or	r22, r26
    50f0:	7b 2b       	or	r23, r27
    50f2:	f8 01       	movw	r30, r16
    50f4:	81 81       	ldd	r24, Z+1	; 0x01
    50f6:	92 81       	ldd	r25, Z+2	; 0x02
    50f8:	01 97       	sbiw	r24, 0x01	; 1
    50fa:	a0 e0       	ldi	r26, 0x00	; 0
    50fc:	b0 e0       	ldi	r27, 0x00	; 0
    50fe:	91 70       	andi	r25, 0x01	; 1
    5100:	a0 70       	andi	r26, 0x00	; 0
    5102:	b0 70       	andi	r27, 0x00	; 0
    5104:	48 2b       	or	r20, r24
    5106:	59 2b       	or	r21, r25
    5108:	6a 2b       	or	r22, r26
    510a:	7b 2b       	or	r23, r27
    510c:	81 e3       	ldi	r24, 0x31	; 49
    510e:	0e 94 ef 23 	call	0x47de	; 0x47de <send_cmd>
    5112:	88 23       	and	r24, r24
    5114:	c1 f5       	brne	.+112    	; 0x5186 <mmc_disk_ioctl+0x57a>
    5116:	8f ef       	ldi	r24, 0xFF	; 255
    5118:	8f b9       	out	0x0f, r24	; 15
    511a:	77 9b       	sbis	0x0e, 7	; 14
    511c:	fe cf       	rjmp	.-4      	; 0x511a <mmc_disk_ioctl+0x50e>
    511e:	8f b1       	in	r24, 0x0f	; 15
    5120:	8e ef       	ldi	r24, 0xFE	; 254
    5122:	8f b9       	out	0x0f, r24	; 15
    5124:	77 9b       	sbis	0x0e, 7	; 14
    5126:	fe cf       	rjmp	.-4      	; 0x5124 <mmc_disk_ioctl+0x518>
    5128:	8f b1       	in	r24, 0x0f	; 15
    512a:	d8 01       	movw	r26, r16
    512c:	17 96       	adiw	r26, 0x07	; 7
    512e:	ed 91       	ld	r30, X+
    5130:	fc 91       	ld	r31, X
    5132:	18 97       	sbiw	r26, 0x08	; 8
    5134:	11 96       	adiw	r26, 0x01	; 1
    5136:	6d 91       	ld	r22, X+
    5138:	7c 91       	ld	r23, X
    513a:	12 97       	sbiw	r26, 0x02	; 2
    513c:	9b 01       	movw	r18, r22
    513e:	08 c0       	rjmp	.+16     	; 0x5150 <mmc_disk_ioctl+0x544>
    5140:	80 81       	ld	r24, Z
    5142:	8f b9       	out	0x0f, r24	; 15
    5144:	77 9b       	sbis	0x0e, 7	; 14
    5146:	fe cf       	rjmp	.-4      	; 0x5144 <mmc_disk_ioctl+0x538>
    5148:	31 96       	adiw	r30, 0x01	; 1
    514a:	8f b1       	in	r24, 0x0f	; 15
    514c:	21 50       	subi	r18, 0x01	; 1
    514e:	30 40       	sbci	r19, 0x00	; 0
    5150:	21 15       	cp	r18, r1
    5152:	31 05       	cpc	r19, r1
    5154:	a9 f7       	brne	.-22     	; 0x5140 <mmc_disk_ioctl+0x534>
    5156:	22 e0       	ldi	r18, 0x02	; 2
    5158:	32 e0       	ldi	r19, 0x02	; 2
    515a:	26 1b       	sub	r18, r22
    515c:	37 0b       	sbc	r19, r23
    515e:	8f ef       	ldi	r24, 0xFF	; 255
    5160:	06 c0       	rjmp	.+12     	; 0x516e <mmc_disk_ioctl+0x562>
    5162:	8f b9       	out	0x0f, r24	; 15
    5164:	77 9b       	sbis	0x0e, 7	; 14
    5166:	fe cf       	rjmp	.-4      	; 0x5164 <mmc_disk_ioctl+0x558>
    5168:	9f b1       	in	r25, 0x0f	; 15
    516a:	21 50       	subi	r18, 0x01	; 1
    516c:	30 40       	sbci	r19, 0x00	; 0
    516e:	21 15       	cp	r18, r1
    5170:	31 05       	cpc	r19, r1
    5172:	b9 f7       	brne	.-18     	; 0x5162 <mmc_disk_ioctl+0x556>
    5174:	8f ef       	ldi	r24, 0xFF	; 255
    5176:	8f b9       	out	0x0f, r24	; 15
    5178:	77 9b       	sbis	0x0e, 7	; 14
    517a:	fe cf       	rjmp	.-4      	; 0x5178 <mmc_disk_ioctl+0x56c>
    517c:	8f b1       	in	r24, 0x0f	; 15
    517e:	20 e0       	ldi	r18, 0x00	; 0
    5180:	8f 71       	andi	r24, 0x1F	; 31
    5182:	85 30       	cpi	r24, 0x05	; 5
    5184:	09 f0       	breq	.+2      	; 0x5188 <mmc_disk_ioctl+0x57c>
    5186:	21 e0       	ldi	r18, 0x01	; 1
    5188:	c4 9a       	sbi	0x18, 4	; 24
    518a:	8f ef       	ldi	r24, 0xFF	; 255
    518c:	8f b9       	out	0x0f, r24	; 15
    518e:	77 9b       	sbis	0x0e, 7	; 14
    5190:	fe cf       	rjmp	.-4      	; 0x518e <mmc_disk_ioctl+0x582>
    5192:	52 c0       	rjmp	.+164    	; 0x5238 <mmc_disk_ioctl+0x62c>
    5194:	fb 01       	movw	r30, r22
    5196:	43 81       	ldd	r20, Z+3	; 0x03
    5198:	54 81       	ldd	r21, Z+4	; 0x04
    519a:	65 81       	ldd	r22, Z+5	; 0x05
    519c:	76 81       	ldd	r23, Z+6	; 0x06
    519e:	39 e0       	ldi	r19, 0x09	; 9
    51a0:	44 0f       	add	r20, r20
    51a2:	55 1f       	adc	r21, r21
    51a4:	66 1f       	adc	r22, r22
    51a6:	77 1f       	adc	r23, r23
    51a8:	3a 95       	dec	r19
    51aa:	d1 f7       	brne	.-12     	; 0x51a0 <mmc_disk_ioctl+0x594>
    51ac:	74 68       	ori	r23, 0x84	; 132
    51ae:	80 81       	ld	r24, Z
    51b0:	90 e0       	ldi	r25, 0x00	; 0
    51b2:	a0 e0       	ldi	r26, 0x00	; 0
    51b4:	b0 e0       	ldi	r27, 0x00	; 0
    51b6:	2c e1       	ldi	r18, 0x1C	; 28
    51b8:	88 0f       	add	r24, r24
    51ba:	99 1f       	adc	r25, r25
    51bc:	aa 1f       	adc	r26, r26
    51be:	bb 1f       	adc	r27, r27
    51c0:	2a 95       	dec	r18
    51c2:	d1 f7       	brne	.-12     	; 0x51b8 <mmc_disk_ioctl+0x5ac>
    51c4:	48 2b       	or	r20, r24
    51c6:	59 2b       	or	r21, r25
    51c8:	6a 2b       	or	r22, r26
    51ca:	7b 2b       	or	r23, r27
    51cc:	82 81       	ldd	r24, Z+2	; 0x02
    51ce:	90 e0       	ldi	r25, 0x00	; 0
    51d0:	a0 e0       	ldi	r26, 0x00	; 0
    51d2:	b0 e0       	ldi	r27, 0x00	; 0
    51d4:	48 2b       	or	r20, r24
    51d6:	59 2b       	or	r21, r25
    51d8:	6a 2b       	or	r22, r26
    51da:	7b 2b       	or	r23, r27
    51dc:	81 e3       	ldi	r24, 0x31	; 49
    51de:	0e 94 ef 23 	call	0x47de	; 0x47de <send_cmd>
    51e2:	88 23       	and	r24, r24
    51e4:	19 f5       	brne	.+70     	; 0x522c <mmc_disk_ioctl+0x620>
    51e6:	8f ef       	ldi	r24, 0xFF	; 255
    51e8:	8f b9       	out	0x0f, r24	; 15
    51ea:	77 9b       	sbis	0x0e, 7	; 14
    51ec:	fe cf       	rjmp	.-4      	; 0x51ea <mmc_disk_ioctl+0x5de>
    51ee:	8f b1       	in	r24, 0x0f	; 15
    51f0:	8e ef       	ldi	r24, 0xFE	; 254
    51f2:	8f b9       	out	0x0f, r24	; 15
    51f4:	77 9b       	sbis	0x0e, 7	; 14
    51f6:	fe cf       	rjmp	.-4      	; 0x51f4 <mmc_disk_ioctl+0x5e8>
    51f8:	8f b1       	in	r24, 0x0f	; 15
    51fa:	d8 01       	movw	r26, r16
    51fc:	11 96       	adiw	r26, 0x01	; 1
    51fe:	8c 91       	ld	r24, X
    5200:	8f b9       	out	0x0f, r24	; 15
    5202:	77 9b       	sbis	0x0e, 7	; 14
    5204:	fe cf       	rjmp	.-4      	; 0x5202 <mmc_disk_ioctl+0x5f6>
    5206:	8f b1       	in	r24, 0x0f	; 15
    5208:	81 e0       	ldi	r24, 0x01	; 1
    520a:	92 e0       	ldi	r25, 0x02	; 2
    520c:	2f ef       	ldi	r18, 0xFF	; 255
    520e:	2f b9       	out	0x0f, r18	; 15
    5210:	77 9b       	sbis	0x0e, 7	; 14
    5212:	fe cf       	rjmp	.-4      	; 0x5210 <mmc_disk_ioctl+0x604>
    5214:	3f b1       	in	r19, 0x0f	; 15
    5216:	01 97       	sbiw	r24, 0x01	; 1
    5218:	d1 f7       	brne	.-12     	; 0x520e <mmc_disk_ioctl+0x602>
    521a:	8f ef       	ldi	r24, 0xFF	; 255
    521c:	8f b9       	out	0x0f, r24	; 15
    521e:	77 9b       	sbis	0x0e, 7	; 14
    5220:	fe cf       	rjmp	.-4      	; 0x521e <mmc_disk_ioctl+0x612>
    5222:	8f b1       	in	r24, 0x0f	; 15
    5224:	20 e0       	ldi	r18, 0x00	; 0
    5226:	8f 71       	andi	r24, 0x1F	; 31
    5228:	85 30       	cpi	r24, 0x05	; 5
    522a:	09 f0       	breq	.+2      	; 0x522e <mmc_disk_ioctl+0x622>
    522c:	21 e0       	ldi	r18, 0x01	; 1
    522e:	c4 9a       	sbi	0x18, 4	; 24
    5230:	8f ef       	ldi	r24, 0xFF	; 255
    5232:	8f b9       	out	0x0f, r24	; 15
    5234:	77 9b       	sbis	0x0e, 7	; 14
    5236:	fe cf       	rjmp	.-4      	; 0x5234 <mmc_disk_ioctl+0x628>
    5238:	8f b1       	in	r24, 0x0f	; 15
    523a:	82 2f       	mov	r24, r18
    523c:	60 96       	adiw	r28, 0x10	; 16
    523e:	0f b6       	in	r0, 0x3f	; 63
    5240:	f8 94       	cli
    5242:	de bf       	out	0x3e, r29	; 62
    5244:	0f be       	out	0x3f, r0	; 63
    5246:	cd bf       	out	0x3d, r28	; 61
    5248:	cf 91       	pop	r28
    524a:	df 91       	pop	r29
    524c:	1f 91       	pop	r17
    524e:	0f 91       	pop	r16
    5250:	ff 90       	pop	r15
    5252:	08 95       	ret

00005254 <mmc_disk_timerproc>:
    5254:	80 91 da 01 	lds	r24, 0x01DA
    5258:	88 23       	and	r24, r24
    525a:	19 f0       	breq	.+6      	; 0x5262 <mmc_disk_timerproc+0xe>
    525c:	81 50       	subi	r24, 0x01	; 1
    525e:	80 93 da 01 	sts	0x01DA, r24
    5262:	80 91 db 01 	lds	r24, 0x01DB
    5266:	90 91 dc 01 	lds	r25, 0x01DC
    526a:	00 97       	sbiw	r24, 0x00	; 0
    526c:	29 f0       	breq	.+10     	; 0x5278 <mmc_disk_timerproc+0x24>
    526e:	01 97       	sbiw	r24, 0x01	; 1
    5270:	90 93 dc 01 	sts	0x01DC, r25
    5274:	80 93 db 01 	sts	0x01DB, r24
    5278:	80 91 48 01 	lds	r24, 0x0148
    527c:	89 7f       	andi	r24, 0xF9	; 249
    527e:	80 93 48 01 	sts	0x0148, r24
    5282:	08 95       	ret

00005284 <__cmpsf2>:
    5284:	6f d0       	rcall	.+222    	; 0x5364 <__fp_cmp>
    5286:	08 f4       	brcc	.+2      	; 0x528a <__cmpsf2+0x6>
    5288:	81 e0       	ldi	r24, 0x01	; 1
    528a:	08 95       	ret

0000528c <cos>:
    528c:	90 d0       	rcall	.+288    	; 0x53ae <__fp_rempio2>
    528e:	e3 95       	inc	r30
    5290:	b5 c0       	rjmp	.+362    	; 0x53fc <__fp_sinus>

00005292 <__fixunssfsi>:
    5292:	cd d0       	rcall	.+410    	; 0x542e <__fp_splitA>
    5294:	88 f0       	brcs	.+34     	; 0x52b8 <__fixunssfsi+0x26>
    5296:	9f 57       	subi	r25, 0x7F	; 127
    5298:	90 f0       	brcs	.+36     	; 0x52be <__fixunssfsi+0x2c>
    529a:	b9 2f       	mov	r27, r25
    529c:	99 27       	eor	r25, r25
    529e:	b7 51       	subi	r27, 0x17	; 23
    52a0:	a0 f0       	brcs	.+40     	; 0x52ca <__fixunssfsi+0x38>
    52a2:	d1 f0       	breq	.+52     	; 0x52d8 <__fixunssfsi+0x46>
    52a4:	66 0f       	add	r22, r22
    52a6:	77 1f       	adc	r23, r23
    52a8:	88 1f       	adc	r24, r24
    52aa:	99 1f       	adc	r25, r25
    52ac:	1a f0       	brmi	.+6      	; 0x52b4 <__fixunssfsi+0x22>
    52ae:	ba 95       	dec	r27
    52b0:	c9 f7       	brne	.-14     	; 0x52a4 <__fixunssfsi+0x12>
    52b2:	12 c0       	rjmp	.+36     	; 0x52d8 <__fixunssfsi+0x46>
    52b4:	b1 30       	cpi	r27, 0x01	; 1
    52b6:	81 f0       	breq	.+32     	; 0x52d8 <__fixunssfsi+0x46>
    52b8:	d4 d0       	rcall	.+424    	; 0x5462 <__fp_zero>
    52ba:	b1 e0       	ldi	r27, 0x01	; 1
    52bc:	08 95       	ret
    52be:	d1 c0       	rjmp	.+418    	; 0x5462 <__fp_zero>
    52c0:	67 2f       	mov	r22, r23
    52c2:	78 2f       	mov	r23, r24
    52c4:	88 27       	eor	r24, r24
    52c6:	b8 5f       	subi	r27, 0xF8	; 248
    52c8:	39 f0       	breq	.+14     	; 0x52d8 <__fixunssfsi+0x46>
    52ca:	b9 3f       	cpi	r27, 0xF9	; 249
    52cc:	cc f3       	brlt	.-14     	; 0x52c0 <__fixunssfsi+0x2e>
    52ce:	86 95       	lsr	r24
    52d0:	77 95       	ror	r23
    52d2:	67 95       	ror	r22
    52d4:	b3 95       	inc	r27
    52d6:	d9 f7       	brne	.-10     	; 0x52ce <__fixunssfsi+0x3c>
    52d8:	3e f4       	brtc	.+14     	; 0x52e8 <__fixunssfsi+0x56>
    52da:	90 95       	com	r25
    52dc:	80 95       	com	r24
    52de:	70 95       	com	r23
    52e0:	61 95       	neg	r22
    52e2:	7f 4f       	sbci	r23, 0xFF	; 255
    52e4:	8f 4f       	sbci	r24, 0xFF	; 255
    52e6:	9f 4f       	sbci	r25, 0xFF	; 255
    52e8:	08 95       	ret

000052ea <__floatunsisf>:
    52ea:	e8 94       	clt
    52ec:	09 c0       	rjmp	.+18     	; 0x5300 <__floatsisf+0x12>

000052ee <__floatsisf>:
    52ee:	97 fb       	bst	r25, 7
    52f0:	3e f4       	brtc	.+14     	; 0x5300 <__floatsisf+0x12>
    52f2:	90 95       	com	r25
    52f4:	80 95       	com	r24
    52f6:	70 95       	com	r23
    52f8:	61 95       	neg	r22
    52fa:	7f 4f       	sbci	r23, 0xFF	; 255
    52fc:	8f 4f       	sbci	r24, 0xFF	; 255
    52fe:	9f 4f       	sbci	r25, 0xFF	; 255
    5300:	99 23       	and	r25, r25
    5302:	a9 f0       	breq	.+42     	; 0x532e <__floatsisf+0x40>
    5304:	f9 2f       	mov	r31, r25
    5306:	96 e9       	ldi	r25, 0x96	; 150
    5308:	bb 27       	eor	r27, r27
    530a:	93 95       	inc	r25
    530c:	f6 95       	lsr	r31
    530e:	87 95       	ror	r24
    5310:	77 95       	ror	r23
    5312:	67 95       	ror	r22
    5314:	b7 95       	ror	r27
    5316:	f1 11       	cpse	r31, r1
    5318:	f8 cf       	rjmp	.-16     	; 0x530a <__floatsisf+0x1c>
    531a:	fa f4       	brpl	.+62     	; 0x535a <__floatsisf+0x6c>
    531c:	bb 0f       	add	r27, r27
    531e:	11 f4       	brne	.+4      	; 0x5324 <__floatsisf+0x36>
    5320:	60 ff       	sbrs	r22, 0
    5322:	1b c0       	rjmp	.+54     	; 0x535a <__floatsisf+0x6c>
    5324:	6f 5f       	subi	r22, 0xFF	; 255
    5326:	7f 4f       	sbci	r23, 0xFF	; 255
    5328:	8f 4f       	sbci	r24, 0xFF	; 255
    532a:	9f 4f       	sbci	r25, 0xFF	; 255
    532c:	16 c0       	rjmp	.+44     	; 0x535a <__floatsisf+0x6c>
    532e:	88 23       	and	r24, r24
    5330:	11 f0       	breq	.+4      	; 0x5336 <__floatsisf+0x48>
    5332:	96 e9       	ldi	r25, 0x96	; 150
    5334:	11 c0       	rjmp	.+34     	; 0x5358 <__floatsisf+0x6a>
    5336:	77 23       	and	r23, r23
    5338:	21 f0       	breq	.+8      	; 0x5342 <__floatsisf+0x54>
    533a:	9e e8       	ldi	r25, 0x8E	; 142
    533c:	87 2f       	mov	r24, r23
    533e:	76 2f       	mov	r23, r22
    5340:	05 c0       	rjmp	.+10     	; 0x534c <__floatsisf+0x5e>
    5342:	66 23       	and	r22, r22
    5344:	71 f0       	breq	.+28     	; 0x5362 <__floatsisf+0x74>
    5346:	96 e8       	ldi	r25, 0x86	; 134
    5348:	86 2f       	mov	r24, r22
    534a:	70 e0       	ldi	r23, 0x00	; 0
    534c:	60 e0       	ldi	r22, 0x00	; 0
    534e:	2a f0       	brmi	.+10     	; 0x535a <__floatsisf+0x6c>
    5350:	9a 95       	dec	r25
    5352:	66 0f       	add	r22, r22
    5354:	77 1f       	adc	r23, r23
    5356:	88 1f       	adc	r24, r24
    5358:	da f7       	brpl	.-10     	; 0x5350 <__floatsisf+0x62>
    535a:	88 0f       	add	r24, r24
    535c:	96 95       	lsr	r25
    535e:	87 95       	ror	r24
    5360:	97 f9       	bld	r25, 7
    5362:	08 95       	ret

00005364 <__fp_cmp>:
    5364:	99 0f       	add	r25, r25
    5366:	00 08       	sbc	r0, r0
    5368:	55 0f       	add	r21, r21
    536a:	aa 0b       	sbc	r26, r26
    536c:	e0 e8       	ldi	r30, 0x80	; 128
    536e:	fe ef       	ldi	r31, 0xFE	; 254
    5370:	16 16       	cp	r1, r22
    5372:	17 06       	cpc	r1, r23
    5374:	e8 07       	cpc	r30, r24
    5376:	f9 07       	cpc	r31, r25
    5378:	c0 f0       	brcs	.+48     	; 0x53aa <__fp_cmp+0x46>
    537a:	12 16       	cp	r1, r18
    537c:	13 06       	cpc	r1, r19
    537e:	e4 07       	cpc	r30, r20
    5380:	f5 07       	cpc	r31, r21
    5382:	98 f0       	brcs	.+38     	; 0x53aa <__fp_cmp+0x46>
    5384:	62 1b       	sub	r22, r18
    5386:	73 0b       	sbc	r23, r19
    5388:	84 0b       	sbc	r24, r20
    538a:	95 0b       	sbc	r25, r21
    538c:	39 f4       	brne	.+14     	; 0x539c <__fp_cmp+0x38>
    538e:	0a 26       	eor	r0, r26
    5390:	61 f0       	breq	.+24     	; 0x53aa <__fp_cmp+0x46>
    5392:	23 2b       	or	r18, r19
    5394:	24 2b       	or	r18, r20
    5396:	25 2b       	or	r18, r21
    5398:	21 f4       	brne	.+8      	; 0x53a2 <__fp_cmp+0x3e>
    539a:	08 95       	ret
    539c:	0a 26       	eor	r0, r26
    539e:	09 f4       	brne	.+2      	; 0x53a2 <__fp_cmp+0x3e>
    53a0:	a1 40       	sbci	r26, 0x01	; 1
    53a2:	a6 95       	lsr	r26
    53a4:	8f ef       	ldi	r24, 0xFF	; 255
    53a6:	81 1d       	adc	r24, r1
    53a8:	81 1d       	adc	r24, r1
    53aa:	08 95       	ret
    53ac:	42 c1       	rjmp	.+644    	; 0x5632 <__fp_nan>

000053ae <__fp_rempio2>:
    53ae:	3f d0       	rcall	.+126    	; 0x542e <__fp_splitA>
    53b0:	e8 f3       	brcs	.-6      	; 0x53ac <__fp_cmp+0x48>
    53b2:	e8 94       	clt
    53b4:	e0 e0       	ldi	r30, 0x00	; 0
    53b6:	bb 27       	eor	r27, r27
    53b8:	9f 57       	subi	r25, 0x7F	; 127
    53ba:	f0 f0       	brcs	.+60     	; 0x53f8 <__fp_rempio2+0x4a>
    53bc:	2a ed       	ldi	r18, 0xDA	; 218
    53be:	3f e0       	ldi	r19, 0x0F	; 15
    53c0:	49 ec       	ldi	r20, 0xC9	; 201
    53c2:	06 c0       	rjmp	.+12     	; 0x53d0 <__fp_rempio2+0x22>
    53c4:	ee 0f       	add	r30, r30
    53c6:	bb 0f       	add	r27, r27
    53c8:	66 1f       	adc	r22, r22
    53ca:	77 1f       	adc	r23, r23
    53cc:	88 1f       	adc	r24, r24
    53ce:	28 f0       	brcs	.+10     	; 0x53da <__fp_rempio2+0x2c>
    53d0:	b2 3a       	cpi	r27, 0xA2	; 162
    53d2:	62 07       	cpc	r22, r18
    53d4:	73 07       	cpc	r23, r19
    53d6:	84 07       	cpc	r24, r20
    53d8:	28 f0       	brcs	.+10     	; 0x53e4 <__fp_rempio2+0x36>
    53da:	b2 5a       	subi	r27, 0xA2	; 162
    53dc:	62 0b       	sbc	r22, r18
    53de:	73 0b       	sbc	r23, r19
    53e0:	84 0b       	sbc	r24, r20
    53e2:	e3 95       	inc	r30
    53e4:	9a 95       	dec	r25
    53e6:	72 f7       	brpl	.-36     	; 0x53c4 <__fp_rempio2+0x16>
    53e8:	80 38       	cpi	r24, 0x80	; 128
    53ea:	30 f4       	brcc	.+12     	; 0x53f8 <__fp_rempio2+0x4a>
    53ec:	9a 95       	dec	r25
    53ee:	bb 0f       	add	r27, r27
    53f0:	66 1f       	adc	r22, r22
    53f2:	77 1f       	adc	r23, r23
    53f4:	88 1f       	adc	r24, r24
    53f6:	d2 f7       	brpl	.-12     	; 0x53ec <__fp_rempio2+0x3e>
    53f8:	90 48       	sbci	r25, 0x80	; 128
    53fa:	0f c1       	rjmp	.+542    	; 0x561a <__fp_mpack_finite>

000053fc <__fp_sinus>:
    53fc:	ef 93       	push	r30
    53fe:	e0 ff       	sbrs	r30, 0
    5400:	06 c0       	rjmp	.+12     	; 0x540e <__fp_sinus+0x12>
    5402:	a2 ea       	ldi	r26, 0xA2	; 162
    5404:	2a ed       	ldi	r18, 0xDA	; 218
    5406:	3f e0       	ldi	r19, 0x0F	; 15
    5408:	49 ec       	ldi	r20, 0xC9	; 201
    540a:	5f eb       	ldi	r21, 0xBF	; 191
    540c:	ab d0       	rcall	.+342    	; 0x5564 <__addsf3x>
    540e:	33 d1       	rcall	.+614    	; 0x5676 <__fp_round>
    5410:	0f 90       	pop	r0
    5412:	03 94       	inc	r0
    5414:	01 fc       	sbrc	r0, 1
    5416:	90 58       	subi	r25, 0x80	; 128
    5418:	e4 e5       	ldi	r30, 0x54	; 84
    541a:	f0 e0       	ldi	r31, 0x00	; 0
    541c:	0d c1       	rjmp	.+538    	; 0x5638 <__fp_powsodd>

0000541e <__fp_split3>:
    541e:	57 fd       	sbrc	r21, 7
    5420:	90 58       	subi	r25, 0x80	; 128
    5422:	44 0f       	add	r20, r20
    5424:	55 1f       	adc	r21, r21
    5426:	59 f0       	breq	.+22     	; 0x543e <__fp_splitA+0x10>
    5428:	5f 3f       	cpi	r21, 0xFF	; 255
    542a:	71 f0       	breq	.+28     	; 0x5448 <__fp_splitA+0x1a>
    542c:	47 95       	ror	r20

0000542e <__fp_splitA>:
    542e:	88 0f       	add	r24, r24
    5430:	97 fb       	bst	r25, 7
    5432:	99 1f       	adc	r25, r25
    5434:	61 f0       	breq	.+24     	; 0x544e <__fp_splitA+0x20>
    5436:	9f 3f       	cpi	r25, 0xFF	; 255
    5438:	79 f0       	breq	.+30     	; 0x5458 <__fp_splitA+0x2a>
    543a:	87 95       	ror	r24
    543c:	08 95       	ret
    543e:	12 16       	cp	r1, r18
    5440:	13 06       	cpc	r1, r19
    5442:	14 06       	cpc	r1, r20
    5444:	55 1f       	adc	r21, r21
    5446:	f2 cf       	rjmp	.-28     	; 0x542c <__fp_split3+0xe>
    5448:	46 95       	lsr	r20
    544a:	f1 df       	rcall	.-30     	; 0x542e <__fp_splitA>
    544c:	08 c0       	rjmp	.+16     	; 0x545e <__fp_splitA+0x30>
    544e:	16 16       	cp	r1, r22
    5450:	17 06       	cpc	r1, r23
    5452:	18 06       	cpc	r1, r24
    5454:	99 1f       	adc	r25, r25
    5456:	f1 cf       	rjmp	.-30     	; 0x543a <__fp_splitA+0xc>
    5458:	86 95       	lsr	r24
    545a:	71 05       	cpc	r23, r1
    545c:	61 05       	cpc	r22, r1
    545e:	08 94       	sec
    5460:	08 95       	ret

00005462 <__fp_zero>:
    5462:	e8 94       	clt

00005464 <__fp_szero>:
    5464:	bb 27       	eor	r27, r27
    5466:	66 27       	eor	r22, r22
    5468:	77 27       	eor	r23, r23
    546a:	cb 01       	movw	r24, r22
    546c:	97 f9       	bld	r25, 7
    546e:	08 95       	ret

00005470 <__gesf2>:
    5470:	79 df       	rcall	.-270    	; 0x5364 <__fp_cmp>
    5472:	08 f4       	brcc	.+2      	; 0x5476 <__gesf2+0x6>
    5474:	8f ef       	ldi	r24, 0xFF	; 255
    5476:	08 95       	ret

00005478 <__mulsf3>:
    5478:	0b d0       	rcall	.+22     	; 0x5490 <__mulsf3x>
    547a:	fd c0       	rjmp	.+506    	; 0x5676 <__fp_round>
    547c:	ee d0       	rcall	.+476    	; 0x565a <__fp_pscA>
    547e:	28 f0       	brcs	.+10     	; 0x548a <__mulsf3+0x12>
    5480:	f3 d0       	rcall	.+486    	; 0x5668 <__fp_pscB>
    5482:	18 f0       	brcs	.+6      	; 0x548a <__mulsf3+0x12>
    5484:	95 23       	and	r25, r21
    5486:	09 f0       	breq	.+2      	; 0x548a <__mulsf3+0x12>
    5488:	c0 c0       	rjmp	.+384    	; 0x560a <__fp_inf>
    548a:	d3 c0       	rjmp	.+422    	; 0x5632 <__fp_nan>
    548c:	11 24       	eor	r1, r1
    548e:	ea cf       	rjmp	.-44     	; 0x5464 <__fp_szero>

00005490 <__mulsf3x>:
    5490:	c6 df       	rcall	.-116    	; 0x541e <__fp_split3>
    5492:	a0 f3       	brcs	.-24     	; 0x547c <__mulsf3+0x4>

00005494 <__mulsf3_pse>:
    5494:	95 9f       	mul	r25, r21
    5496:	d1 f3       	breq	.-12     	; 0x548c <__mulsf3+0x14>
    5498:	95 0f       	add	r25, r21
    549a:	50 e0       	ldi	r21, 0x00	; 0
    549c:	55 1f       	adc	r21, r21
    549e:	62 9f       	mul	r22, r18
    54a0:	f0 01       	movw	r30, r0
    54a2:	72 9f       	mul	r23, r18
    54a4:	bb 27       	eor	r27, r27
    54a6:	f0 0d       	add	r31, r0
    54a8:	b1 1d       	adc	r27, r1
    54aa:	63 9f       	mul	r22, r19
    54ac:	aa 27       	eor	r26, r26
    54ae:	f0 0d       	add	r31, r0
    54b0:	b1 1d       	adc	r27, r1
    54b2:	aa 1f       	adc	r26, r26
    54b4:	64 9f       	mul	r22, r20
    54b6:	66 27       	eor	r22, r22
    54b8:	b0 0d       	add	r27, r0
    54ba:	a1 1d       	adc	r26, r1
    54bc:	66 1f       	adc	r22, r22
    54be:	82 9f       	mul	r24, r18
    54c0:	22 27       	eor	r18, r18
    54c2:	b0 0d       	add	r27, r0
    54c4:	a1 1d       	adc	r26, r1
    54c6:	62 1f       	adc	r22, r18
    54c8:	73 9f       	mul	r23, r19
    54ca:	b0 0d       	add	r27, r0
    54cc:	a1 1d       	adc	r26, r1
    54ce:	62 1f       	adc	r22, r18
    54d0:	83 9f       	mul	r24, r19
    54d2:	a0 0d       	add	r26, r0
    54d4:	61 1d       	adc	r22, r1
    54d6:	22 1f       	adc	r18, r18
    54d8:	74 9f       	mul	r23, r20
    54da:	33 27       	eor	r19, r19
    54dc:	a0 0d       	add	r26, r0
    54de:	61 1d       	adc	r22, r1
    54e0:	23 1f       	adc	r18, r19
    54e2:	84 9f       	mul	r24, r20
    54e4:	60 0d       	add	r22, r0
    54e6:	21 1d       	adc	r18, r1
    54e8:	82 2f       	mov	r24, r18
    54ea:	76 2f       	mov	r23, r22
    54ec:	6a 2f       	mov	r22, r26
    54ee:	11 24       	eor	r1, r1
    54f0:	9f 57       	subi	r25, 0x7F	; 127
    54f2:	50 40       	sbci	r21, 0x00	; 0
    54f4:	8a f0       	brmi	.+34     	; 0x5518 <__mulsf3_pse+0x84>
    54f6:	e1 f0       	breq	.+56     	; 0x5530 <__mulsf3_pse+0x9c>
    54f8:	88 23       	and	r24, r24
    54fa:	4a f0       	brmi	.+18     	; 0x550e <__mulsf3_pse+0x7a>
    54fc:	ee 0f       	add	r30, r30
    54fe:	ff 1f       	adc	r31, r31
    5500:	bb 1f       	adc	r27, r27
    5502:	66 1f       	adc	r22, r22
    5504:	77 1f       	adc	r23, r23
    5506:	88 1f       	adc	r24, r24
    5508:	91 50       	subi	r25, 0x01	; 1
    550a:	50 40       	sbci	r21, 0x00	; 0
    550c:	a9 f7       	brne	.-22     	; 0x54f8 <__mulsf3_pse+0x64>
    550e:	9e 3f       	cpi	r25, 0xFE	; 254
    5510:	51 05       	cpc	r21, r1
    5512:	70 f0       	brcs	.+28     	; 0x5530 <__mulsf3_pse+0x9c>
    5514:	7a c0       	rjmp	.+244    	; 0x560a <__fp_inf>
    5516:	a6 cf       	rjmp	.-180    	; 0x5464 <__fp_szero>
    5518:	5f 3f       	cpi	r21, 0xFF	; 255
    551a:	ec f3       	brlt	.-6      	; 0x5516 <__mulsf3_pse+0x82>
    551c:	98 3e       	cpi	r25, 0xE8	; 232
    551e:	dc f3       	brlt	.-10     	; 0x5516 <__mulsf3_pse+0x82>
    5520:	86 95       	lsr	r24
    5522:	77 95       	ror	r23
    5524:	67 95       	ror	r22
    5526:	b7 95       	ror	r27
    5528:	f7 95       	ror	r31
    552a:	e7 95       	ror	r30
    552c:	9f 5f       	subi	r25, 0xFF	; 255
    552e:	c1 f7       	brne	.-16     	; 0x5520 <__mulsf3_pse+0x8c>
    5530:	fe 2b       	or	r31, r30
    5532:	88 0f       	add	r24, r24
    5534:	91 1d       	adc	r25, r1
    5536:	96 95       	lsr	r25
    5538:	87 95       	ror	r24
    553a:	97 f9       	bld	r25, 7
    553c:	08 95       	ret

0000553e <sin>:
    553e:	9f 93       	push	r25
    5540:	36 df       	rcall	.-404    	; 0x53ae <__fp_rempio2>
    5542:	0f 90       	pop	r0
    5544:	07 fc       	sbrc	r0, 7
    5546:	ee 5f       	subi	r30, 0xFE	; 254
    5548:	59 cf       	rjmp	.-334    	; 0x53fc <__fp_sinus>
    554a:	87 d0       	rcall	.+270    	; 0x565a <__fp_pscA>
    554c:	30 f0       	brcs	.+12     	; 0x555a <sin+0x1c>
    554e:	8c d0       	rcall	.+280    	; 0x5668 <__fp_pscB>
    5550:	20 f0       	brcs	.+8      	; 0x555a <sin+0x1c>
    5552:	31 f4       	brne	.+12     	; 0x5560 <sin+0x22>
    5554:	9f 3f       	cpi	r25, 0xFF	; 255
    5556:	11 f4       	brne	.+4      	; 0x555c <sin+0x1e>
    5558:	1e f4       	brtc	.+6      	; 0x5560 <sin+0x22>
    555a:	6b c0       	rjmp	.+214    	; 0x5632 <__fp_nan>
    555c:	0e f4       	brtc	.+2      	; 0x5560 <sin+0x22>
    555e:	e0 95       	com	r30
    5560:	e7 fb       	bst	r30, 7
    5562:	53 c0       	rjmp	.+166    	; 0x560a <__fp_inf>

00005564 <__addsf3x>:
    5564:	e9 2f       	mov	r30, r25
    5566:	5b df       	rcall	.-330    	; 0x541e <__fp_split3>
    5568:	80 f3       	brcs	.-32     	; 0x554a <sin+0xc>
    556a:	ba 17       	cp	r27, r26
    556c:	62 07       	cpc	r22, r18
    556e:	73 07       	cpc	r23, r19
    5570:	84 07       	cpc	r24, r20
    5572:	95 07       	cpc	r25, r21
    5574:	18 f0       	brcs	.+6      	; 0x557c <__addsf3x+0x18>
    5576:	71 f4       	brne	.+28     	; 0x5594 <__addsf3x+0x30>
    5578:	9e f5       	brtc	.+102    	; 0x55e0 <__addsf3x+0x7c>
    557a:	73 cf       	rjmp	.-282    	; 0x5462 <__fp_zero>
    557c:	0e f4       	brtc	.+2      	; 0x5580 <__addsf3x+0x1c>
    557e:	e0 95       	com	r30
    5580:	0b 2e       	mov	r0, r27
    5582:	ba 2f       	mov	r27, r26
    5584:	a0 2d       	mov	r26, r0
    5586:	0b 01       	movw	r0, r22
    5588:	b9 01       	movw	r22, r18
    558a:	90 01       	movw	r18, r0
    558c:	0c 01       	movw	r0, r24
    558e:	ca 01       	movw	r24, r20
    5590:	a0 01       	movw	r20, r0
    5592:	11 24       	eor	r1, r1
    5594:	ff 27       	eor	r31, r31
    5596:	59 1b       	sub	r21, r25
    5598:	99 f0       	breq	.+38     	; 0x55c0 <__addsf3x+0x5c>
    559a:	59 3f       	cpi	r21, 0xF9	; 249
    559c:	50 f4       	brcc	.+20     	; 0x55b2 <__addsf3x+0x4e>
    559e:	50 3e       	cpi	r21, 0xE0	; 224
    55a0:	68 f1       	brcs	.+90     	; 0x55fc <__addsf3x+0x98>
    55a2:	1a 16       	cp	r1, r26
    55a4:	f0 40       	sbci	r31, 0x00	; 0
    55a6:	a2 2f       	mov	r26, r18
    55a8:	23 2f       	mov	r18, r19
    55aa:	34 2f       	mov	r19, r20
    55ac:	44 27       	eor	r20, r20
    55ae:	58 5f       	subi	r21, 0xF8	; 248
    55b0:	f3 cf       	rjmp	.-26     	; 0x5598 <__addsf3x+0x34>
    55b2:	46 95       	lsr	r20
    55b4:	37 95       	ror	r19
    55b6:	27 95       	ror	r18
    55b8:	a7 95       	ror	r26
    55ba:	f0 40       	sbci	r31, 0x00	; 0
    55bc:	53 95       	inc	r21
    55be:	c9 f7       	brne	.-14     	; 0x55b2 <__addsf3x+0x4e>
    55c0:	7e f4       	brtc	.+30     	; 0x55e0 <__addsf3x+0x7c>
    55c2:	1f 16       	cp	r1, r31
    55c4:	ba 0b       	sbc	r27, r26
    55c6:	62 0b       	sbc	r22, r18
    55c8:	73 0b       	sbc	r23, r19
    55ca:	84 0b       	sbc	r24, r20
    55cc:	ba f0       	brmi	.+46     	; 0x55fc <__addsf3x+0x98>
    55ce:	91 50       	subi	r25, 0x01	; 1
    55d0:	a1 f0       	breq	.+40     	; 0x55fa <__addsf3x+0x96>
    55d2:	ff 0f       	add	r31, r31
    55d4:	bb 1f       	adc	r27, r27
    55d6:	66 1f       	adc	r22, r22
    55d8:	77 1f       	adc	r23, r23
    55da:	88 1f       	adc	r24, r24
    55dc:	c2 f7       	brpl	.-16     	; 0x55ce <__addsf3x+0x6a>
    55de:	0e c0       	rjmp	.+28     	; 0x55fc <__addsf3x+0x98>
    55e0:	ba 0f       	add	r27, r26
    55e2:	62 1f       	adc	r22, r18
    55e4:	73 1f       	adc	r23, r19
    55e6:	84 1f       	adc	r24, r20
    55e8:	48 f4       	brcc	.+18     	; 0x55fc <__addsf3x+0x98>
    55ea:	87 95       	ror	r24
    55ec:	77 95       	ror	r23
    55ee:	67 95       	ror	r22
    55f0:	b7 95       	ror	r27
    55f2:	f7 95       	ror	r31
    55f4:	9e 3f       	cpi	r25, 0xFE	; 254
    55f6:	08 f0       	brcs	.+2      	; 0x55fa <__addsf3x+0x96>
    55f8:	b3 cf       	rjmp	.-154    	; 0x5560 <sin+0x22>
    55fa:	93 95       	inc	r25
    55fc:	88 0f       	add	r24, r24
    55fe:	08 f0       	brcs	.+2      	; 0x5602 <__addsf3x+0x9e>
    5600:	99 27       	eor	r25, r25
    5602:	ee 0f       	add	r30, r30
    5604:	97 95       	ror	r25
    5606:	87 95       	ror	r24
    5608:	08 95       	ret

0000560a <__fp_inf>:
    560a:	97 f9       	bld	r25, 7
    560c:	9f 67       	ori	r25, 0x7F	; 127
    560e:	80 e8       	ldi	r24, 0x80	; 128
    5610:	70 e0       	ldi	r23, 0x00	; 0
    5612:	60 e0       	ldi	r22, 0x00	; 0
    5614:	08 95       	ret

00005616 <__fp_mpack>:
    5616:	9f 3f       	cpi	r25, 0xFF	; 255
    5618:	31 f0       	breq	.+12     	; 0x5626 <__fp_mpack_finite+0xc>

0000561a <__fp_mpack_finite>:
    561a:	91 50       	subi	r25, 0x01	; 1
    561c:	20 f4       	brcc	.+8      	; 0x5626 <__fp_mpack_finite+0xc>
    561e:	87 95       	ror	r24
    5620:	77 95       	ror	r23
    5622:	67 95       	ror	r22
    5624:	b7 95       	ror	r27
    5626:	88 0f       	add	r24, r24
    5628:	91 1d       	adc	r25, r1
    562a:	96 95       	lsr	r25
    562c:	87 95       	ror	r24
    562e:	97 f9       	bld	r25, 7
    5630:	08 95       	ret

00005632 <__fp_nan>:
    5632:	9f ef       	ldi	r25, 0xFF	; 255
    5634:	80 ec       	ldi	r24, 0xC0	; 192
    5636:	08 95       	ret

00005638 <__fp_powsodd>:
    5638:	9f 93       	push	r25
    563a:	8f 93       	push	r24
    563c:	7f 93       	push	r23
    563e:	6f 93       	push	r22
    5640:	ff 93       	push	r31
    5642:	ef 93       	push	r30
    5644:	9b 01       	movw	r18, r22
    5646:	ac 01       	movw	r20, r24
    5648:	17 df       	rcall	.-466    	; 0x5478 <__mulsf3>
    564a:	ef 91       	pop	r30
    564c:	ff 91       	pop	r31
    564e:	24 d0       	rcall	.+72     	; 0x5698 <__fp_powser>
    5650:	2f 91       	pop	r18
    5652:	3f 91       	pop	r19
    5654:	4f 91       	pop	r20
    5656:	5f 91       	pop	r21
    5658:	0f cf       	rjmp	.-482    	; 0x5478 <__mulsf3>

0000565a <__fp_pscA>:
    565a:	00 24       	eor	r0, r0
    565c:	0a 94       	dec	r0
    565e:	16 16       	cp	r1, r22
    5660:	17 06       	cpc	r1, r23
    5662:	18 06       	cpc	r1, r24
    5664:	09 06       	cpc	r0, r25
    5666:	08 95       	ret

00005668 <__fp_pscB>:
    5668:	00 24       	eor	r0, r0
    566a:	0a 94       	dec	r0
    566c:	12 16       	cp	r1, r18
    566e:	13 06       	cpc	r1, r19
    5670:	14 06       	cpc	r1, r20
    5672:	05 06       	cpc	r0, r21
    5674:	08 95       	ret

00005676 <__fp_round>:
    5676:	09 2e       	mov	r0, r25
    5678:	03 94       	inc	r0
    567a:	00 0c       	add	r0, r0
    567c:	11 f4       	brne	.+4      	; 0x5682 <__fp_round+0xc>
    567e:	88 23       	and	r24, r24
    5680:	52 f0       	brmi	.+20     	; 0x5696 <__fp_round+0x20>
    5682:	bb 0f       	add	r27, r27
    5684:	40 f4       	brcc	.+16     	; 0x5696 <__fp_round+0x20>
    5686:	bf 2b       	or	r27, r31
    5688:	11 f4       	brne	.+4      	; 0x568e <__fp_round+0x18>
    568a:	60 ff       	sbrs	r22, 0
    568c:	04 c0       	rjmp	.+8      	; 0x5696 <__fp_round+0x20>
    568e:	6f 5f       	subi	r22, 0xFF	; 255
    5690:	7f 4f       	sbci	r23, 0xFF	; 255
    5692:	8f 4f       	sbci	r24, 0xFF	; 255
    5694:	9f 4f       	sbci	r25, 0xFF	; 255
    5696:	08 95       	ret

00005698 <__fp_powser>:
    5698:	df 93       	push	r29
    569a:	cf 93       	push	r28
    569c:	1f 93       	push	r17
    569e:	0f 93       	push	r16
    56a0:	ff 92       	push	r15
    56a2:	ef 92       	push	r14
    56a4:	df 92       	push	r13
    56a6:	7b 01       	movw	r14, r22
    56a8:	8c 01       	movw	r16, r24
    56aa:	68 94       	set
    56ac:	05 c0       	rjmp	.+10     	; 0x56b8 <__fp_powser+0x20>
    56ae:	da 2e       	mov	r13, r26
    56b0:	ef 01       	movw	r28, r30
    56b2:	ee de       	rcall	.-548    	; 0x5490 <__mulsf3x>
    56b4:	fe 01       	movw	r30, r28
    56b6:	e8 94       	clt
    56b8:	a5 91       	lpm	r26, Z+
    56ba:	25 91       	lpm	r18, Z+
    56bc:	35 91       	lpm	r19, Z+
    56be:	45 91       	lpm	r20, Z+
    56c0:	55 91       	lpm	r21, Z+
    56c2:	ae f3       	brts	.-22     	; 0x56ae <__fp_powser+0x16>
    56c4:	ef 01       	movw	r28, r30
    56c6:	4e df       	rcall	.-356    	; 0x5564 <__addsf3x>
    56c8:	fe 01       	movw	r30, r28
    56ca:	97 01       	movw	r18, r14
    56cc:	a8 01       	movw	r20, r16
    56ce:	da 94       	dec	r13
    56d0:	79 f7       	brne	.-34     	; 0x56b0 <__fp_powser+0x18>
    56d2:	df 90       	pop	r13
    56d4:	ef 90       	pop	r14
    56d6:	ff 90       	pop	r15
    56d8:	0f 91       	pop	r16
    56da:	1f 91       	pop	r17
    56dc:	cf 91       	pop	r28
    56de:	df 91       	pop	r29
    56e0:	08 95       	ret

000056e2 <__mulsi3>:
    56e2:	62 9f       	mul	r22, r18
    56e4:	d0 01       	movw	r26, r0
    56e6:	73 9f       	mul	r23, r19
    56e8:	f0 01       	movw	r30, r0
    56ea:	82 9f       	mul	r24, r18
    56ec:	e0 0d       	add	r30, r0
    56ee:	f1 1d       	adc	r31, r1
    56f0:	64 9f       	mul	r22, r20
    56f2:	e0 0d       	add	r30, r0
    56f4:	f1 1d       	adc	r31, r1
    56f6:	92 9f       	mul	r25, r18
    56f8:	f0 0d       	add	r31, r0
    56fa:	83 9f       	mul	r24, r19
    56fc:	f0 0d       	add	r31, r0
    56fe:	74 9f       	mul	r23, r20
    5700:	f0 0d       	add	r31, r0
    5702:	65 9f       	mul	r22, r21
    5704:	f0 0d       	add	r31, r0
    5706:	99 27       	eor	r25, r25
    5708:	72 9f       	mul	r23, r18
    570a:	b0 0d       	add	r27, r0
    570c:	e1 1d       	adc	r30, r1
    570e:	f9 1f       	adc	r31, r25
    5710:	63 9f       	mul	r22, r19
    5712:	b0 0d       	add	r27, r0
    5714:	e1 1d       	adc	r30, r1
    5716:	f9 1f       	adc	r31, r25
    5718:	bd 01       	movw	r22, r26
    571a:	cf 01       	movw	r24, r30
    571c:	11 24       	eor	r1, r1
    571e:	08 95       	ret

00005720 <__udivmodhi4>:
    5720:	aa 1b       	sub	r26, r26
    5722:	bb 1b       	sub	r27, r27
    5724:	51 e1       	ldi	r21, 0x11	; 17
    5726:	07 c0       	rjmp	.+14     	; 0x5736 <__udivmodhi4_ep>

00005728 <__udivmodhi4_loop>:
    5728:	aa 1f       	adc	r26, r26
    572a:	bb 1f       	adc	r27, r27
    572c:	a6 17       	cp	r26, r22
    572e:	b7 07       	cpc	r27, r23
    5730:	10 f0       	brcs	.+4      	; 0x5736 <__udivmodhi4_ep>
    5732:	a6 1b       	sub	r26, r22
    5734:	b7 0b       	sbc	r27, r23

00005736 <__udivmodhi4_ep>:
    5736:	88 1f       	adc	r24, r24
    5738:	99 1f       	adc	r25, r25
    573a:	5a 95       	dec	r21
    573c:	a9 f7       	brne	.-22     	; 0x5728 <__udivmodhi4_loop>
    573e:	80 95       	com	r24
    5740:	90 95       	com	r25
    5742:	bc 01       	movw	r22, r24
    5744:	cd 01       	movw	r24, r26
    5746:	08 95       	ret

00005748 <__udivmodsi4>:
    5748:	a1 e2       	ldi	r26, 0x21	; 33
    574a:	1a 2e       	mov	r1, r26
    574c:	aa 1b       	sub	r26, r26
    574e:	bb 1b       	sub	r27, r27
    5750:	fd 01       	movw	r30, r26
    5752:	0d c0       	rjmp	.+26     	; 0x576e <__udivmodsi4_ep>

00005754 <__udivmodsi4_loop>:
    5754:	aa 1f       	adc	r26, r26
    5756:	bb 1f       	adc	r27, r27
    5758:	ee 1f       	adc	r30, r30
    575a:	ff 1f       	adc	r31, r31
    575c:	a2 17       	cp	r26, r18
    575e:	b3 07       	cpc	r27, r19
    5760:	e4 07       	cpc	r30, r20
    5762:	f5 07       	cpc	r31, r21
    5764:	20 f0       	brcs	.+8      	; 0x576e <__udivmodsi4_ep>
    5766:	a2 1b       	sub	r26, r18
    5768:	b3 0b       	sbc	r27, r19
    576a:	e4 0b       	sbc	r30, r20
    576c:	f5 0b       	sbc	r31, r21

0000576e <__udivmodsi4_ep>:
    576e:	66 1f       	adc	r22, r22
    5770:	77 1f       	adc	r23, r23
    5772:	88 1f       	adc	r24, r24
    5774:	99 1f       	adc	r25, r25
    5776:	1a 94       	dec	r1
    5778:	69 f7       	brne	.-38     	; 0x5754 <__udivmodsi4_loop>
    577a:	60 95       	com	r22
    577c:	70 95       	com	r23
    577e:	80 95       	com	r24
    5780:	90 95       	com	r25
    5782:	9b 01       	movw	r18, r22
    5784:	ac 01       	movw	r20, r24
    5786:	bd 01       	movw	r22, r26
    5788:	cf 01       	movw	r24, r30
    578a:	08 95       	ret

0000578c <memcmp>:
    578c:	fb 01       	movw	r30, r22
    578e:	dc 01       	movw	r26, r24
    5790:	04 c0       	rjmp	.+8      	; 0x579a <memcmp+0xe>
    5792:	8d 91       	ld	r24, X+
    5794:	01 90       	ld	r0, Z+
    5796:	80 19       	sub	r24, r0
    5798:	21 f4       	brne	.+8      	; 0x57a2 <memcmp+0x16>
    579a:	41 50       	subi	r20, 0x01	; 1
    579c:	50 40       	sbci	r21, 0x00	; 0
    579e:	c8 f7       	brcc	.-14     	; 0x5792 <memcmp+0x6>
    57a0:	88 1b       	sub	r24, r24
    57a2:	99 0b       	sbc	r25, r25
    57a4:	08 95       	ret

000057a6 <memcpy>:
    57a6:	fb 01       	movw	r30, r22
    57a8:	dc 01       	movw	r26, r24
    57aa:	02 c0       	rjmp	.+4      	; 0x57b0 <memcpy+0xa>
    57ac:	01 90       	ld	r0, Z+
    57ae:	0d 92       	st	X+, r0
    57b0:	41 50       	subi	r20, 0x01	; 1
    57b2:	50 40       	sbci	r21, 0x00	; 0
    57b4:	d8 f7       	brcc	.-10     	; 0x57ac <memcpy+0x6>
    57b6:	08 95       	ret

000057b8 <memset>:
    57b8:	dc 01       	movw	r26, r24
    57ba:	01 c0       	rjmp	.+2      	; 0x57be <memset+0x6>
    57bc:	6d 93       	st	X+, r22
    57be:	41 50       	subi	r20, 0x01	; 1
    57c0:	50 40       	sbci	r21, 0x00	; 0
    57c2:	e0 f7       	brcc	.-8      	; 0x57bc <memset+0x4>
    57c4:	08 95       	ret

000057c6 <strchr>:
    57c6:	fc 01       	movw	r30, r24
    57c8:	81 91       	ld	r24, Z+
    57ca:	86 17       	cp	r24, r22
    57cc:	21 f0       	breq	.+8      	; 0x57d6 <strchr+0x10>
    57ce:	88 23       	and	r24, r24
    57d0:	d9 f7       	brne	.-10     	; 0x57c8 <strchr+0x2>
    57d2:	99 27       	eor	r25, r25
    57d4:	08 95       	ret
    57d6:	31 97       	sbiw	r30, 0x01	; 1
    57d8:	cf 01       	movw	r24, r30
    57da:	08 95       	ret

000057dc <strcpy>:
    57dc:	fb 01       	movw	r30, r22
    57de:	dc 01       	movw	r26, r24
    57e0:	01 90       	ld	r0, Z+
    57e2:	0d 92       	st	X+, r0
    57e4:	00 20       	and	r0, r0
    57e6:	e1 f7       	brne	.-8      	; 0x57e0 <strcpy+0x4>
    57e8:	08 95       	ret

000057ea <sprintf>:
    57ea:	ae e0       	ldi	r26, 0x0E	; 14
    57ec:	b0 e0       	ldi	r27, 0x00	; 0
    57ee:	eb ef       	ldi	r30, 0xFB	; 251
    57f0:	fb e2       	ldi	r31, 0x2B	; 43
    57f2:	0c 94 a4 2e 	jmp	0x5d48	; 0x5d48 <__prologue_saves__+0x1c>
    57f6:	0d 89       	ldd	r16, Y+21	; 0x15
    57f8:	1e 89       	ldd	r17, Y+22	; 0x16
    57fa:	86 e0       	ldi	r24, 0x06	; 6
    57fc:	8c 83       	std	Y+4, r24	; 0x04
    57fe:	1a 83       	std	Y+2, r17	; 0x02
    5800:	09 83       	std	Y+1, r16	; 0x01
    5802:	8f ef       	ldi	r24, 0xFF	; 255
    5804:	9f e7       	ldi	r25, 0x7F	; 127
    5806:	9e 83       	std	Y+6, r25	; 0x06
    5808:	8d 83       	std	Y+5, r24	; 0x05
    580a:	9e 01       	movw	r18, r28
    580c:	27 5e       	subi	r18, 0xE7	; 231
    580e:	3f 4f       	sbci	r19, 0xFF	; 255
    5810:	ce 01       	movw	r24, r28
    5812:	01 96       	adiw	r24, 0x01	; 1
    5814:	6f 89       	ldd	r22, Y+23	; 0x17
    5816:	78 8d       	ldd	r23, Y+24	; 0x18
    5818:	a9 01       	movw	r20, r18
    581a:	0e 94 19 2c 	call	0x5832	; 0x5832 <vfprintf>
    581e:	2f 81       	ldd	r18, Y+7	; 0x07
    5820:	38 85       	ldd	r19, Y+8	; 0x08
    5822:	02 0f       	add	r16, r18
    5824:	13 1f       	adc	r17, r19
    5826:	f8 01       	movw	r30, r16
    5828:	10 82       	st	Z, r1
    582a:	2e 96       	adiw	r28, 0x0e	; 14
    582c:	e4 e0       	ldi	r30, 0x04	; 4
    582e:	0c 94 c0 2e 	jmp	0x5d80	; 0x5d80 <__epilogue_restores__+0x1c>

00005832 <vfprintf>:
    5832:	ab e0       	ldi	r26, 0x0B	; 11
    5834:	b0 e0       	ldi	r27, 0x00	; 0
    5836:	ef e1       	ldi	r30, 0x1F	; 31
    5838:	fc e2       	ldi	r31, 0x2C	; 44
    583a:	0c 94 96 2e 	jmp	0x5d2c	; 0x5d2c <__prologue_saves__>
    583e:	3c 01       	movw	r6, r24
    5840:	2b 01       	movw	r4, r22
    5842:	5a 01       	movw	r10, r20
    5844:	fc 01       	movw	r30, r24
    5846:	17 82       	std	Z+7, r1	; 0x07
    5848:	16 82       	std	Z+6, r1	; 0x06
    584a:	83 81       	ldd	r24, Z+3	; 0x03
    584c:	81 fd       	sbrc	r24, 1
    584e:	03 c0       	rjmp	.+6      	; 0x5856 <vfprintf+0x24>
    5850:	6f ef       	ldi	r22, 0xFF	; 255
    5852:	7f ef       	ldi	r23, 0xFF	; 255
    5854:	c6 c1       	rjmp	.+908    	; 0x5be2 <vfprintf+0x3b0>
    5856:	9a e0       	ldi	r25, 0x0A	; 10
    5858:	89 2e       	mov	r8, r25
    585a:	1e 01       	movw	r2, r28
    585c:	08 94       	sec
    585e:	21 1c       	adc	r2, r1
    5860:	31 1c       	adc	r3, r1
    5862:	f3 01       	movw	r30, r6
    5864:	23 81       	ldd	r18, Z+3	; 0x03
    5866:	f2 01       	movw	r30, r4
    5868:	23 fd       	sbrc	r18, 3
    586a:	85 91       	lpm	r24, Z+
    586c:	23 ff       	sbrs	r18, 3
    586e:	81 91       	ld	r24, Z+
    5870:	2f 01       	movw	r4, r30
    5872:	88 23       	and	r24, r24
    5874:	09 f4       	brne	.+2      	; 0x5878 <vfprintf+0x46>
    5876:	b2 c1       	rjmp	.+868    	; 0x5bdc <vfprintf+0x3aa>
    5878:	85 32       	cpi	r24, 0x25	; 37
    587a:	39 f4       	brne	.+14     	; 0x588a <vfprintf+0x58>
    587c:	23 fd       	sbrc	r18, 3
    587e:	85 91       	lpm	r24, Z+
    5880:	23 ff       	sbrs	r18, 3
    5882:	81 91       	ld	r24, Z+
    5884:	2f 01       	movw	r4, r30
    5886:	85 32       	cpi	r24, 0x25	; 37
    5888:	29 f4       	brne	.+10     	; 0x5894 <vfprintf+0x62>
    588a:	90 e0       	ldi	r25, 0x00	; 0
    588c:	b3 01       	movw	r22, r6
    588e:	0e 94 0c 2e 	call	0x5c18	; 0x5c18 <fputc>
    5892:	e7 cf       	rjmp	.-50     	; 0x5862 <vfprintf+0x30>
    5894:	98 2f       	mov	r25, r24
    5896:	ff 24       	eor	r15, r15
    5898:	ee 24       	eor	r14, r14
    589a:	99 24       	eor	r9, r9
    589c:	ff e1       	ldi	r31, 0x1F	; 31
    589e:	ff 15       	cp	r31, r15
    58a0:	d0 f0       	brcs	.+52     	; 0x58d6 <vfprintf+0xa4>
    58a2:	9b 32       	cpi	r25, 0x2B	; 43
    58a4:	69 f0       	breq	.+26     	; 0x58c0 <vfprintf+0x8e>
    58a6:	9c 32       	cpi	r25, 0x2C	; 44
    58a8:	28 f4       	brcc	.+10     	; 0x58b4 <vfprintf+0x82>
    58aa:	90 32       	cpi	r25, 0x20	; 32
    58ac:	59 f0       	breq	.+22     	; 0x58c4 <vfprintf+0x92>
    58ae:	93 32       	cpi	r25, 0x23	; 35
    58b0:	91 f4       	brne	.+36     	; 0x58d6 <vfprintf+0xa4>
    58b2:	0e c0       	rjmp	.+28     	; 0x58d0 <vfprintf+0x9e>
    58b4:	9d 32       	cpi	r25, 0x2D	; 45
    58b6:	49 f0       	breq	.+18     	; 0x58ca <vfprintf+0x98>
    58b8:	90 33       	cpi	r25, 0x30	; 48
    58ba:	69 f4       	brne	.+26     	; 0x58d6 <vfprintf+0xa4>
    58bc:	41 e0       	ldi	r20, 0x01	; 1
    58be:	24 c0       	rjmp	.+72     	; 0x5908 <vfprintf+0xd6>
    58c0:	52 e0       	ldi	r21, 0x02	; 2
    58c2:	f5 2a       	or	r15, r21
    58c4:	84 e0       	ldi	r24, 0x04	; 4
    58c6:	f8 2a       	or	r15, r24
    58c8:	28 c0       	rjmp	.+80     	; 0x591a <vfprintf+0xe8>
    58ca:	98 e0       	ldi	r25, 0x08	; 8
    58cc:	f9 2a       	or	r15, r25
    58ce:	25 c0       	rjmp	.+74     	; 0x591a <vfprintf+0xe8>
    58d0:	e0 e1       	ldi	r30, 0x10	; 16
    58d2:	fe 2a       	or	r15, r30
    58d4:	22 c0       	rjmp	.+68     	; 0x591a <vfprintf+0xe8>
    58d6:	f7 fc       	sbrc	r15, 7
    58d8:	29 c0       	rjmp	.+82     	; 0x592c <vfprintf+0xfa>
    58da:	89 2f       	mov	r24, r25
    58dc:	80 53       	subi	r24, 0x30	; 48
    58de:	8a 30       	cpi	r24, 0x0A	; 10
    58e0:	70 f4       	brcc	.+28     	; 0x58fe <vfprintf+0xcc>
    58e2:	f6 fe       	sbrs	r15, 6
    58e4:	05 c0       	rjmp	.+10     	; 0x58f0 <vfprintf+0xbe>
    58e6:	98 9c       	mul	r9, r8
    58e8:	90 2c       	mov	r9, r0
    58ea:	11 24       	eor	r1, r1
    58ec:	98 0e       	add	r9, r24
    58ee:	15 c0       	rjmp	.+42     	; 0x591a <vfprintf+0xe8>
    58f0:	e8 9c       	mul	r14, r8
    58f2:	e0 2c       	mov	r14, r0
    58f4:	11 24       	eor	r1, r1
    58f6:	e8 0e       	add	r14, r24
    58f8:	f0 e2       	ldi	r31, 0x20	; 32
    58fa:	ff 2a       	or	r15, r31
    58fc:	0e c0       	rjmp	.+28     	; 0x591a <vfprintf+0xe8>
    58fe:	9e 32       	cpi	r25, 0x2E	; 46
    5900:	29 f4       	brne	.+10     	; 0x590c <vfprintf+0xda>
    5902:	f6 fc       	sbrc	r15, 6
    5904:	6b c1       	rjmp	.+726    	; 0x5bdc <vfprintf+0x3aa>
    5906:	40 e4       	ldi	r20, 0x40	; 64
    5908:	f4 2a       	or	r15, r20
    590a:	07 c0       	rjmp	.+14     	; 0x591a <vfprintf+0xe8>
    590c:	9c 36       	cpi	r25, 0x6C	; 108
    590e:	19 f4       	brne	.+6      	; 0x5916 <vfprintf+0xe4>
    5910:	50 e8       	ldi	r21, 0x80	; 128
    5912:	f5 2a       	or	r15, r21
    5914:	02 c0       	rjmp	.+4      	; 0x591a <vfprintf+0xe8>
    5916:	98 36       	cpi	r25, 0x68	; 104
    5918:	49 f4       	brne	.+18     	; 0x592c <vfprintf+0xfa>
    591a:	f2 01       	movw	r30, r4
    591c:	23 fd       	sbrc	r18, 3
    591e:	95 91       	lpm	r25, Z+
    5920:	23 ff       	sbrs	r18, 3
    5922:	91 91       	ld	r25, Z+
    5924:	2f 01       	movw	r4, r30
    5926:	99 23       	and	r25, r25
    5928:	09 f0       	breq	.+2      	; 0x592c <vfprintf+0xfa>
    592a:	b8 cf       	rjmp	.-144    	; 0x589c <vfprintf+0x6a>
    592c:	89 2f       	mov	r24, r25
    592e:	85 54       	subi	r24, 0x45	; 69
    5930:	83 30       	cpi	r24, 0x03	; 3
    5932:	18 f0       	brcs	.+6      	; 0x593a <vfprintf+0x108>
    5934:	80 52       	subi	r24, 0x20	; 32
    5936:	83 30       	cpi	r24, 0x03	; 3
    5938:	38 f4       	brcc	.+14     	; 0x5948 <vfprintf+0x116>
    593a:	44 e0       	ldi	r20, 0x04	; 4
    593c:	50 e0       	ldi	r21, 0x00	; 0
    593e:	a4 0e       	add	r10, r20
    5940:	b5 1e       	adc	r11, r21
    5942:	5f e3       	ldi	r21, 0x3F	; 63
    5944:	59 83       	std	Y+1, r21	; 0x01
    5946:	0f c0       	rjmp	.+30     	; 0x5966 <vfprintf+0x134>
    5948:	93 36       	cpi	r25, 0x63	; 99
    594a:	31 f0       	breq	.+12     	; 0x5958 <vfprintf+0x126>
    594c:	93 37       	cpi	r25, 0x73	; 115
    594e:	79 f0       	breq	.+30     	; 0x596e <vfprintf+0x13c>
    5950:	93 35       	cpi	r25, 0x53	; 83
    5952:	09 f0       	breq	.+2      	; 0x5956 <vfprintf+0x124>
    5954:	56 c0       	rjmp	.+172    	; 0x5a02 <vfprintf+0x1d0>
    5956:	20 c0       	rjmp	.+64     	; 0x5998 <vfprintf+0x166>
    5958:	f5 01       	movw	r30, r10
    595a:	80 81       	ld	r24, Z
    595c:	89 83       	std	Y+1, r24	; 0x01
    595e:	42 e0       	ldi	r20, 0x02	; 2
    5960:	50 e0       	ldi	r21, 0x00	; 0
    5962:	a4 0e       	add	r10, r20
    5964:	b5 1e       	adc	r11, r21
    5966:	61 01       	movw	r12, r2
    5968:	01 e0       	ldi	r16, 0x01	; 1
    596a:	10 e0       	ldi	r17, 0x00	; 0
    596c:	12 c0       	rjmp	.+36     	; 0x5992 <vfprintf+0x160>
    596e:	f5 01       	movw	r30, r10
    5970:	c0 80       	ld	r12, Z
    5972:	d1 80       	ldd	r13, Z+1	; 0x01
    5974:	f6 fc       	sbrc	r15, 6
    5976:	03 c0       	rjmp	.+6      	; 0x597e <vfprintf+0x14c>
    5978:	6f ef       	ldi	r22, 0xFF	; 255
    597a:	7f ef       	ldi	r23, 0xFF	; 255
    597c:	02 c0       	rjmp	.+4      	; 0x5982 <vfprintf+0x150>
    597e:	69 2d       	mov	r22, r9
    5980:	70 e0       	ldi	r23, 0x00	; 0
    5982:	42 e0       	ldi	r20, 0x02	; 2
    5984:	50 e0       	ldi	r21, 0x00	; 0
    5986:	a4 0e       	add	r10, r20
    5988:	b5 1e       	adc	r11, r21
    598a:	c6 01       	movw	r24, r12
    598c:	0e 94 01 2e 	call	0x5c02	; 0x5c02 <strnlen>
    5990:	8c 01       	movw	r16, r24
    5992:	5f e7       	ldi	r21, 0x7F	; 127
    5994:	f5 22       	and	r15, r21
    5996:	14 c0       	rjmp	.+40     	; 0x59c0 <vfprintf+0x18e>
    5998:	f5 01       	movw	r30, r10
    599a:	c0 80       	ld	r12, Z
    599c:	d1 80       	ldd	r13, Z+1	; 0x01
    599e:	f6 fc       	sbrc	r15, 6
    59a0:	03 c0       	rjmp	.+6      	; 0x59a8 <vfprintf+0x176>
    59a2:	6f ef       	ldi	r22, 0xFF	; 255
    59a4:	7f ef       	ldi	r23, 0xFF	; 255
    59a6:	02 c0       	rjmp	.+4      	; 0x59ac <vfprintf+0x17a>
    59a8:	69 2d       	mov	r22, r9
    59aa:	70 e0       	ldi	r23, 0x00	; 0
    59ac:	42 e0       	ldi	r20, 0x02	; 2
    59ae:	50 e0       	ldi	r21, 0x00	; 0
    59b0:	a4 0e       	add	r10, r20
    59b2:	b5 1e       	adc	r11, r21
    59b4:	c6 01       	movw	r24, r12
    59b6:	0e 94 f6 2d 	call	0x5bec	; 0x5bec <strnlen_P>
    59ba:	8c 01       	movw	r16, r24
    59bc:	50 e8       	ldi	r21, 0x80	; 128
    59be:	f5 2a       	or	r15, r21
    59c0:	f3 fe       	sbrs	r15, 3
    59c2:	07 c0       	rjmp	.+14     	; 0x59d2 <vfprintf+0x1a0>
    59c4:	1a c0       	rjmp	.+52     	; 0x59fa <vfprintf+0x1c8>
    59c6:	80 e2       	ldi	r24, 0x20	; 32
    59c8:	90 e0       	ldi	r25, 0x00	; 0
    59ca:	b3 01       	movw	r22, r6
    59cc:	0e 94 0c 2e 	call	0x5c18	; 0x5c18 <fputc>
    59d0:	ea 94       	dec	r14
    59d2:	8e 2d       	mov	r24, r14
    59d4:	90 e0       	ldi	r25, 0x00	; 0
    59d6:	08 17       	cp	r16, r24
    59d8:	19 07       	cpc	r17, r25
    59da:	a8 f3       	brcs	.-22     	; 0x59c6 <vfprintf+0x194>
    59dc:	0e c0       	rjmp	.+28     	; 0x59fa <vfprintf+0x1c8>
    59de:	f6 01       	movw	r30, r12
    59e0:	f7 fc       	sbrc	r15, 7
    59e2:	85 91       	lpm	r24, Z+
    59e4:	f7 fe       	sbrs	r15, 7
    59e6:	81 91       	ld	r24, Z+
    59e8:	6f 01       	movw	r12, r30
    59ea:	90 e0       	ldi	r25, 0x00	; 0
    59ec:	b3 01       	movw	r22, r6
    59ee:	0e 94 0c 2e 	call	0x5c18	; 0x5c18 <fputc>
    59f2:	e1 10       	cpse	r14, r1
    59f4:	ea 94       	dec	r14
    59f6:	01 50       	subi	r16, 0x01	; 1
    59f8:	10 40       	sbci	r17, 0x00	; 0
    59fa:	01 15       	cp	r16, r1
    59fc:	11 05       	cpc	r17, r1
    59fe:	79 f7       	brne	.-34     	; 0x59de <vfprintf+0x1ac>
    5a00:	ea c0       	rjmp	.+468    	; 0x5bd6 <vfprintf+0x3a4>
    5a02:	94 36       	cpi	r25, 0x64	; 100
    5a04:	11 f0       	breq	.+4      	; 0x5a0a <vfprintf+0x1d8>
    5a06:	99 36       	cpi	r25, 0x69	; 105
    5a08:	69 f5       	brne	.+90     	; 0x5a64 <vfprintf+0x232>
    5a0a:	f7 fe       	sbrs	r15, 7
    5a0c:	08 c0       	rjmp	.+16     	; 0x5a1e <vfprintf+0x1ec>
    5a0e:	f5 01       	movw	r30, r10
    5a10:	20 81       	ld	r18, Z
    5a12:	31 81       	ldd	r19, Z+1	; 0x01
    5a14:	42 81       	ldd	r20, Z+2	; 0x02
    5a16:	53 81       	ldd	r21, Z+3	; 0x03
    5a18:	84 e0       	ldi	r24, 0x04	; 4
    5a1a:	90 e0       	ldi	r25, 0x00	; 0
    5a1c:	0a c0       	rjmp	.+20     	; 0x5a32 <vfprintf+0x200>
    5a1e:	f5 01       	movw	r30, r10
    5a20:	80 81       	ld	r24, Z
    5a22:	91 81       	ldd	r25, Z+1	; 0x01
    5a24:	9c 01       	movw	r18, r24
    5a26:	44 27       	eor	r20, r20
    5a28:	37 fd       	sbrc	r19, 7
    5a2a:	40 95       	com	r20
    5a2c:	54 2f       	mov	r21, r20
    5a2e:	82 e0       	ldi	r24, 0x02	; 2
    5a30:	90 e0       	ldi	r25, 0x00	; 0
    5a32:	a8 0e       	add	r10, r24
    5a34:	b9 1e       	adc	r11, r25
    5a36:	9f e6       	ldi	r25, 0x6F	; 111
    5a38:	f9 22       	and	r15, r25
    5a3a:	57 ff       	sbrs	r21, 7
    5a3c:	09 c0       	rjmp	.+18     	; 0x5a50 <vfprintf+0x21e>
    5a3e:	50 95       	com	r21
    5a40:	40 95       	com	r20
    5a42:	30 95       	com	r19
    5a44:	21 95       	neg	r18
    5a46:	3f 4f       	sbci	r19, 0xFF	; 255
    5a48:	4f 4f       	sbci	r20, 0xFF	; 255
    5a4a:	5f 4f       	sbci	r21, 0xFF	; 255
    5a4c:	e0 e8       	ldi	r30, 0x80	; 128
    5a4e:	fe 2a       	or	r15, r30
    5a50:	ca 01       	movw	r24, r20
    5a52:	b9 01       	movw	r22, r18
    5a54:	a1 01       	movw	r20, r2
    5a56:	2a e0       	ldi	r18, 0x0A	; 10
    5a58:	30 e0       	ldi	r19, 0x00	; 0
    5a5a:	0e 94 38 2e 	call	0x5c70	; 0x5c70 <__ultoa_invert>
    5a5e:	d8 2e       	mov	r13, r24
    5a60:	d2 18       	sub	r13, r2
    5a62:	40 c0       	rjmp	.+128    	; 0x5ae4 <vfprintf+0x2b2>
    5a64:	95 37       	cpi	r25, 0x75	; 117
    5a66:	29 f4       	brne	.+10     	; 0x5a72 <vfprintf+0x240>
    5a68:	1f 2d       	mov	r17, r15
    5a6a:	1f 7e       	andi	r17, 0xEF	; 239
    5a6c:	2a e0       	ldi	r18, 0x0A	; 10
    5a6e:	30 e0       	ldi	r19, 0x00	; 0
    5a70:	1d c0       	rjmp	.+58     	; 0x5aac <vfprintf+0x27a>
    5a72:	1f 2d       	mov	r17, r15
    5a74:	19 7f       	andi	r17, 0xF9	; 249
    5a76:	9f 36       	cpi	r25, 0x6F	; 111
    5a78:	61 f0       	breq	.+24     	; 0x5a92 <vfprintf+0x260>
    5a7a:	90 37       	cpi	r25, 0x70	; 112
    5a7c:	20 f4       	brcc	.+8      	; 0x5a86 <vfprintf+0x254>
    5a7e:	98 35       	cpi	r25, 0x58	; 88
    5a80:	09 f0       	breq	.+2      	; 0x5a84 <vfprintf+0x252>
    5a82:	ac c0       	rjmp	.+344    	; 0x5bdc <vfprintf+0x3aa>
    5a84:	0f c0       	rjmp	.+30     	; 0x5aa4 <vfprintf+0x272>
    5a86:	90 37       	cpi	r25, 0x70	; 112
    5a88:	39 f0       	breq	.+14     	; 0x5a98 <vfprintf+0x266>
    5a8a:	98 37       	cpi	r25, 0x78	; 120
    5a8c:	09 f0       	breq	.+2      	; 0x5a90 <vfprintf+0x25e>
    5a8e:	a6 c0       	rjmp	.+332    	; 0x5bdc <vfprintf+0x3aa>
    5a90:	04 c0       	rjmp	.+8      	; 0x5a9a <vfprintf+0x268>
    5a92:	28 e0       	ldi	r18, 0x08	; 8
    5a94:	30 e0       	ldi	r19, 0x00	; 0
    5a96:	0a c0       	rjmp	.+20     	; 0x5aac <vfprintf+0x27a>
    5a98:	10 61       	ori	r17, 0x10	; 16
    5a9a:	14 fd       	sbrc	r17, 4
    5a9c:	14 60       	ori	r17, 0x04	; 4
    5a9e:	20 e1       	ldi	r18, 0x10	; 16
    5aa0:	30 e0       	ldi	r19, 0x00	; 0
    5aa2:	04 c0       	rjmp	.+8      	; 0x5aac <vfprintf+0x27a>
    5aa4:	14 fd       	sbrc	r17, 4
    5aa6:	16 60       	ori	r17, 0x06	; 6
    5aa8:	20 e1       	ldi	r18, 0x10	; 16
    5aaa:	32 e0       	ldi	r19, 0x02	; 2
    5aac:	17 ff       	sbrs	r17, 7
    5aae:	08 c0       	rjmp	.+16     	; 0x5ac0 <vfprintf+0x28e>
    5ab0:	f5 01       	movw	r30, r10
    5ab2:	60 81       	ld	r22, Z
    5ab4:	71 81       	ldd	r23, Z+1	; 0x01
    5ab6:	82 81       	ldd	r24, Z+2	; 0x02
    5ab8:	93 81       	ldd	r25, Z+3	; 0x03
    5aba:	44 e0       	ldi	r20, 0x04	; 4
    5abc:	50 e0       	ldi	r21, 0x00	; 0
    5abe:	08 c0       	rjmp	.+16     	; 0x5ad0 <vfprintf+0x29e>
    5ac0:	f5 01       	movw	r30, r10
    5ac2:	80 81       	ld	r24, Z
    5ac4:	91 81       	ldd	r25, Z+1	; 0x01
    5ac6:	bc 01       	movw	r22, r24
    5ac8:	80 e0       	ldi	r24, 0x00	; 0
    5aca:	90 e0       	ldi	r25, 0x00	; 0
    5acc:	42 e0       	ldi	r20, 0x02	; 2
    5ace:	50 e0       	ldi	r21, 0x00	; 0
    5ad0:	a4 0e       	add	r10, r20
    5ad2:	b5 1e       	adc	r11, r21
    5ad4:	a1 01       	movw	r20, r2
    5ad6:	0e 94 38 2e 	call	0x5c70	; 0x5c70 <__ultoa_invert>
    5ada:	d8 2e       	mov	r13, r24
    5adc:	d2 18       	sub	r13, r2
    5ade:	8f e7       	ldi	r24, 0x7F	; 127
    5ae0:	f8 2e       	mov	r15, r24
    5ae2:	f1 22       	and	r15, r17
    5ae4:	f6 fe       	sbrs	r15, 6
    5ae6:	0b c0       	rjmp	.+22     	; 0x5afe <vfprintf+0x2cc>
    5ae8:	5e ef       	ldi	r21, 0xFE	; 254
    5aea:	f5 22       	and	r15, r21
    5aec:	d9 14       	cp	r13, r9
    5aee:	38 f4       	brcc	.+14     	; 0x5afe <vfprintf+0x2cc>
    5af0:	f4 fe       	sbrs	r15, 4
    5af2:	07 c0       	rjmp	.+14     	; 0x5b02 <vfprintf+0x2d0>
    5af4:	f2 fc       	sbrc	r15, 2
    5af6:	05 c0       	rjmp	.+10     	; 0x5b02 <vfprintf+0x2d0>
    5af8:	8f ee       	ldi	r24, 0xEF	; 239
    5afa:	f8 22       	and	r15, r24
    5afc:	02 c0       	rjmp	.+4      	; 0x5b02 <vfprintf+0x2d0>
    5afe:	1d 2d       	mov	r17, r13
    5b00:	01 c0       	rjmp	.+2      	; 0x5b04 <vfprintf+0x2d2>
    5b02:	19 2d       	mov	r17, r9
    5b04:	f4 fe       	sbrs	r15, 4
    5b06:	0d c0       	rjmp	.+26     	; 0x5b22 <vfprintf+0x2f0>
    5b08:	fe 01       	movw	r30, r28
    5b0a:	ed 0d       	add	r30, r13
    5b0c:	f1 1d       	adc	r31, r1
    5b0e:	80 81       	ld	r24, Z
    5b10:	80 33       	cpi	r24, 0x30	; 48
    5b12:	19 f4       	brne	.+6      	; 0x5b1a <vfprintf+0x2e8>
    5b14:	99 ee       	ldi	r25, 0xE9	; 233
    5b16:	f9 22       	and	r15, r25
    5b18:	08 c0       	rjmp	.+16     	; 0x5b2a <vfprintf+0x2f8>
    5b1a:	1f 5f       	subi	r17, 0xFF	; 255
    5b1c:	f2 fe       	sbrs	r15, 2
    5b1e:	05 c0       	rjmp	.+10     	; 0x5b2a <vfprintf+0x2f8>
    5b20:	03 c0       	rjmp	.+6      	; 0x5b28 <vfprintf+0x2f6>
    5b22:	8f 2d       	mov	r24, r15
    5b24:	86 78       	andi	r24, 0x86	; 134
    5b26:	09 f0       	breq	.+2      	; 0x5b2a <vfprintf+0x2f8>
    5b28:	1f 5f       	subi	r17, 0xFF	; 255
    5b2a:	0f 2d       	mov	r16, r15
    5b2c:	f3 fc       	sbrc	r15, 3
    5b2e:	14 c0       	rjmp	.+40     	; 0x5b58 <vfprintf+0x326>
    5b30:	f0 fe       	sbrs	r15, 0
    5b32:	0f c0       	rjmp	.+30     	; 0x5b52 <vfprintf+0x320>
    5b34:	1e 15       	cp	r17, r14
    5b36:	10 f0       	brcs	.+4      	; 0x5b3c <vfprintf+0x30a>
    5b38:	9d 2c       	mov	r9, r13
    5b3a:	0b c0       	rjmp	.+22     	; 0x5b52 <vfprintf+0x320>
    5b3c:	9d 2c       	mov	r9, r13
    5b3e:	9e 0c       	add	r9, r14
    5b40:	91 1a       	sub	r9, r17
    5b42:	1e 2d       	mov	r17, r14
    5b44:	06 c0       	rjmp	.+12     	; 0x5b52 <vfprintf+0x320>
    5b46:	80 e2       	ldi	r24, 0x20	; 32
    5b48:	90 e0       	ldi	r25, 0x00	; 0
    5b4a:	b3 01       	movw	r22, r6
    5b4c:	0e 94 0c 2e 	call	0x5c18	; 0x5c18 <fputc>
    5b50:	1f 5f       	subi	r17, 0xFF	; 255
    5b52:	1e 15       	cp	r17, r14
    5b54:	c0 f3       	brcs	.-16     	; 0x5b46 <vfprintf+0x314>
    5b56:	04 c0       	rjmp	.+8      	; 0x5b60 <vfprintf+0x32e>
    5b58:	1e 15       	cp	r17, r14
    5b5a:	10 f4       	brcc	.+4      	; 0x5b60 <vfprintf+0x32e>
    5b5c:	e1 1a       	sub	r14, r17
    5b5e:	01 c0       	rjmp	.+2      	; 0x5b62 <vfprintf+0x330>
    5b60:	ee 24       	eor	r14, r14
    5b62:	04 ff       	sbrs	r16, 4
    5b64:	0f c0       	rjmp	.+30     	; 0x5b84 <vfprintf+0x352>
    5b66:	80 e3       	ldi	r24, 0x30	; 48
    5b68:	90 e0       	ldi	r25, 0x00	; 0
    5b6a:	b3 01       	movw	r22, r6
    5b6c:	0e 94 0c 2e 	call	0x5c18	; 0x5c18 <fputc>
    5b70:	02 ff       	sbrs	r16, 2
    5b72:	1d c0       	rjmp	.+58     	; 0x5bae <vfprintf+0x37c>
    5b74:	01 fd       	sbrc	r16, 1
    5b76:	03 c0       	rjmp	.+6      	; 0x5b7e <vfprintf+0x34c>
    5b78:	88 e7       	ldi	r24, 0x78	; 120
    5b7a:	90 e0       	ldi	r25, 0x00	; 0
    5b7c:	0e c0       	rjmp	.+28     	; 0x5b9a <vfprintf+0x368>
    5b7e:	88 e5       	ldi	r24, 0x58	; 88
    5b80:	90 e0       	ldi	r25, 0x00	; 0
    5b82:	0b c0       	rjmp	.+22     	; 0x5b9a <vfprintf+0x368>
    5b84:	80 2f       	mov	r24, r16
    5b86:	86 78       	andi	r24, 0x86	; 134
    5b88:	91 f0       	breq	.+36     	; 0x5bae <vfprintf+0x37c>
    5b8a:	01 ff       	sbrs	r16, 1
    5b8c:	02 c0       	rjmp	.+4      	; 0x5b92 <vfprintf+0x360>
    5b8e:	8b e2       	ldi	r24, 0x2B	; 43
    5b90:	01 c0       	rjmp	.+2      	; 0x5b94 <vfprintf+0x362>
    5b92:	80 e2       	ldi	r24, 0x20	; 32
    5b94:	f7 fc       	sbrc	r15, 7
    5b96:	8d e2       	ldi	r24, 0x2D	; 45
    5b98:	90 e0       	ldi	r25, 0x00	; 0
    5b9a:	b3 01       	movw	r22, r6
    5b9c:	0e 94 0c 2e 	call	0x5c18	; 0x5c18 <fputc>
    5ba0:	06 c0       	rjmp	.+12     	; 0x5bae <vfprintf+0x37c>
    5ba2:	80 e3       	ldi	r24, 0x30	; 48
    5ba4:	90 e0       	ldi	r25, 0x00	; 0
    5ba6:	b3 01       	movw	r22, r6
    5ba8:	0e 94 0c 2e 	call	0x5c18	; 0x5c18 <fputc>
    5bac:	9a 94       	dec	r9
    5bae:	d9 14       	cp	r13, r9
    5bb0:	c0 f3       	brcs	.-16     	; 0x5ba2 <vfprintf+0x370>
    5bb2:	da 94       	dec	r13
    5bb4:	f1 01       	movw	r30, r2
    5bb6:	ed 0d       	add	r30, r13
    5bb8:	f1 1d       	adc	r31, r1
    5bba:	80 81       	ld	r24, Z
    5bbc:	90 e0       	ldi	r25, 0x00	; 0
    5bbe:	b3 01       	movw	r22, r6
    5bc0:	0e 94 0c 2e 	call	0x5c18	; 0x5c18 <fputc>
    5bc4:	dd 20       	and	r13, r13
    5bc6:	a9 f7       	brne	.-22     	; 0x5bb2 <vfprintf+0x380>
    5bc8:	06 c0       	rjmp	.+12     	; 0x5bd6 <vfprintf+0x3a4>
    5bca:	80 e2       	ldi	r24, 0x20	; 32
    5bcc:	90 e0       	ldi	r25, 0x00	; 0
    5bce:	b3 01       	movw	r22, r6
    5bd0:	0e 94 0c 2e 	call	0x5c18	; 0x5c18 <fputc>
    5bd4:	ea 94       	dec	r14
    5bd6:	ee 20       	and	r14, r14
    5bd8:	c1 f7       	brne	.-16     	; 0x5bca <vfprintf+0x398>
    5bda:	43 ce       	rjmp	.-890    	; 0x5862 <vfprintf+0x30>
    5bdc:	f3 01       	movw	r30, r6
    5bde:	66 81       	ldd	r22, Z+6	; 0x06
    5be0:	77 81       	ldd	r23, Z+7	; 0x07
    5be2:	cb 01       	movw	r24, r22
    5be4:	2b 96       	adiw	r28, 0x0b	; 11
    5be6:	e2 e1       	ldi	r30, 0x12	; 18
    5be8:	0c 94 b2 2e 	jmp	0x5d64	; 0x5d64 <__epilogue_restores__>

00005bec <strnlen_P>:
    5bec:	fc 01       	movw	r30, r24
    5bee:	05 90       	lpm	r0, Z+
    5bf0:	61 50       	subi	r22, 0x01	; 1
    5bf2:	70 40       	sbci	r23, 0x00	; 0
    5bf4:	01 10       	cpse	r0, r1
    5bf6:	d8 f7       	brcc	.-10     	; 0x5bee <strnlen_P+0x2>
    5bf8:	80 95       	com	r24
    5bfa:	90 95       	com	r25
    5bfc:	8e 0f       	add	r24, r30
    5bfe:	9f 1f       	adc	r25, r31
    5c00:	08 95       	ret

00005c02 <strnlen>:
    5c02:	fc 01       	movw	r30, r24
    5c04:	61 50       	subi	r22, 0x01	; 1
    5c06:	70 40       	sbci	r23, 0x00	; 0
    5c08:	01 90       	ld	r0, Z+
    5c0a:	01 10       	cpse	r0, r1
    5c0c:	d8 f7       	brcc	.-10     	; 0x5c04 <strnlen+0x2>
    5c0e:	80 95       	com	r24
    5c10:	90 95       	com	r25
    5c12:	8e 0f       	add	r24, r30
    5c14:	9f 1f       	adc	r25, r31
    5c16:	08 95       	ret

00005c18 <fputc>:
    5c18:	0f 93       	push	r16
    5c1a:	1f 93       	push	r17
    5c1c:	cf 93       	push	r28
    5c1e:	df 93       	push	r29
    5c20:	8c 01       	movw	r16, r24
    5c22:	eb 01       	movw	r28, r22
    5c24:	8b 81       	ldd	r24, Y+3	; 0x03
    5c26:	81 ff       	sbrs	r24, 1
    5c28:	1b c0       	rjmp	.+54     	; 0x5c60 <fputc+0x48>
    5c2a:	82 ff       	sbrs	r24, 2
    5c2c:	0d c0       	rjmp	.+26     	; 0x5c48 <fputc+0x30>
    5c2e:	2e 81       	ldd	r18, Y+6	; 0x06
    5c30:	3f 81       	ldd	r19, Y+7	; 0x07
    5c32:	8c 81       	ldd	r24, Y+4	; 0x04
    5c34:	9d 81       	ldd	r25, Y+5	; 0x05
    5c36:	28 17       	cp	r18, r24
    5c38:	39 07       	cpc	r19, r25
    5c3a:	64 f4       	brge	.+24     	; 0x5c54 <fputc+0x3c>
    5c3c:	e8 81       	ld	r30, Y
    5c3e:	f9 81       	ldd	r31, Y+1	; 0x01
    5c40:	01 93       	st	Z+, r16
    5c42:	f9 83       	std	Y+1, r31	; 0x01
    5c44:	e8 83       	st	Y, r30
    5c46:	06 c0       	rjmp	.+12     	; 0x5c54 <fputc+0x3c>
    5c48:	e8 85       	ldd	r30, Y+8	; 0x08
    5c4a:	f9 85       	ldd	r31, Y+9	; 0x09
    5c4c:	80 2f       	mov	r24, r16
    5c4e:	09 95       	icall
    5c50:	89 2b       	or	r24, r25
    5c52:	31 f4       	brne	.+12     	; 0x5c60 <fputc+0x48>
    5c54:	8e 81       	ldd	r24, Y+6	; 0x06
    5c56:	9f 81       	ldd	r25, Y+7	; 0x07
    5c58:	01 96       	adiw	r24, 0x01	; 1
    5c5a:	9f 83       	std	Y+7, r25	; 0x07
    5c5c:	8e 83       	std	Y+6, r24	; 0x06
    5c5e:	02 c0       	rjmp	.+4      	; 0x5c64 <fputc+0x4c>
    5c60:	0f ef       	ldi	r16, 0xFF	; 255
    5c62:	1f ef       	ldi	r17, 0xFF	; 255
    5c64:	c8 01       	movw	r24, r16
    5c66:	df 91       	pop	r29
    5c68:	cf 91       	pop	r28
    5c6a:	1f 91       	pop	r17
    5c6c:	0f 91       	pop	r16
    5c6e:	08 95       	ret

00005c70 <__ultoa_invert>:
    5c70:	fa 01       	movw	r30, r20
    5c72:	aa 27       	eor	r26, r26
    5c74:	28 30       	cpi	r18, 0x08	; 8
    5c76:	51 f1       	breq	.+84     	; 0x5ccc <__ultoa_invert+0x5c>
    5c78:	20 31       	cpi	r18, 0x10	; 16
    5c7a:	81 f1       	breq	.+96     	; 0x5cdc <__ultoa_invert+0x6c>
    5c7c:	e8 94       	clt
    5c7e:	6f 93       	push	r22
    5c80:	6e 7f       	andi	r22, 0xFE	; 254
    5c82:	6e 5f       	subi	r22, 0xFE	; 254
    5c84:	7f 4f       	sbci	r23, 0xFF	; 255
    5c86:	8f 4f       	sbci	r24, 0xFF	; 255
    5c88:	9f 4f       	sbci	r25, 0xFF	; 255
    5c8a:	af 4f       	sbci	r26, 0xFF	; 255
    5c8c:	b1 e0       	ldi	r27, 0x01	; 1
    5c8e:	3e d0       	rcall	.+124    	; 0x5d0c <__ultoa_invert+0x9c>
    5c90:	b4 e0       	ldi	r27, 0x04	; 4
    5c92:	3c d0       	rcall	.+120    	; 0x5d0c <__ultoa_invert+0x9c>
    5c94:	67 0f       	add	r22, r23
    5c96:	78 1f       	adc	r23, r24
    5c98:	89 1f       	adc	r24, r25
    5c9a:	9a 1f       	adc	r25, r26
    5c9c:	a1 1d       	adc	r26, r1
    5c9e:	68 0f       	add	r22, r24
    5ca0:	79 1f       	adc	r23, r25
    5ca2:	8a 1f       	adc	r24, r26
    5ca4:	91 1d       	adc	r25, r1
    5ca6:	a1 1d       	adc	r26, r1
    5ca8:	6a 0f       	add	r22, r26
    5caa:	71 1d       	adc	r23, r1
    5cac:	81 1d       	adc	r24, r1
    5cae:	91 1d       	adc	r25, r1
    5cb0:	a1 1d       	adc	r26, r1
    5cb2:	20 d0       	rcall	.+64     	; 0x5cf4 <__ultoa_invert+0x84>
    5cb4:	09 f4       	brne	.+2      	; 0x5cb8 <__ultoa_invert+0x48>
    5cb6:	68 94       	set
    5cb8:	3f 91       	pop	r19
    5cba:	2a e0       	ldi	r18, 0x0A	; 10
    5cbc:	26 9f       	mul	r18, r22
    5cbe:	11 24       	eor	r1, r1
    5cc0:	30 19       	sub	r19, r0
    5cc2:	30 5d       	subi	r19, 0xD0	; 208
    5cc4:	31 93       	st	Z+, r19
    5cc6:	de f6       	brtc	.-74     	; 0x5c7e <__ultoa_invert+0xe>
    5cc8:	cf 01       	movw	r24, r30
    5cca:	08 95       	ret
    5ccc:	46 2f       	mov	r20, r22
    5cce:	47 70       	andi	r20, 0x07	; 7
    5cd0:	40 5d       	subi	r20, 0xD0	; 208
    5cd2:	41 93       	st	Z+, r20
    5cd4:	b3 e0       	ldi	r27, 0x03	; 3
    5cd6:	0f d0       	rcall	.+30     	; 0x5cf6 <__ultoa_invert+0x86>
    5cd8:	c9 f7       	brne	.-14     	; 0x5ccc <__ultoa_invert+0x5c>
    5cda:	f6 cf       	rjmp	.-20     	; 0x5cc8 <__ultoa_invert+0x58>
    5cdc:	46 2f       	mov	r20, r22
    5cde:	4f 70       	andi	r20, 0x0F	; 15
    5ce0:	40 5d       	subi	r20, 0xD0	; 208
    5ce2:	4a 33       	cpi	r20, 0x3A	; 58
    5ce4:	18 f0       	brcs	.+6      	; 0x5cec <__ultoa_invert+0x7c>
    5ce6:	49 5d       	subi	r20, 0xD9	; 217
    5ce8:	31 fd       	sbrc	r19, 1
    5cea:	40 52       	subi	r20, 0x20	; 32
    5cec:	41 93       	st	Z+, r20
    5cee:	02 d0       	rcall	.+4      	; 0x5cf4 <__ultoa_invert+0x84>
    5cf0:	a9 f7       	brne	.-22     	; 0x5cdc <__ultoa_invert+0x6c>
    5cf2:	ea cf       	rjmp	.-44     	; 0x5cc8 <__ultoa_invert+0x58>
    5cf4:	b4 e0       	ldi	r27, 0x04	; 4
    5cf6:	a6 95       	lsr	r26
    5cf8:	97 95       	ror	r25
    5cfa:	87 95       	ror	r24
    5cfc:	77 95       	ror	r23
    5cfe:	67 95       	ror	r22
    5d00:	ba 95       	dec	r27
    5d02:	c9 f7       	brne	.-14     	; 0x5cf6 <__ultoa_invert+0x86>
    5d04:	00 97       	sbiw	r24, 0x00	; 0
    5d06:	61 05       	cpc	r22, r1
    5d08:	71 05       	cpc	r23, r1
    5d0a:	08 95       	ret
    5d0c:	9b 01       	movw	r18, r22
    5d0e:	ac 01       	movw	r20, r24
    5d10:	0a 2e       	mov	r0, r26
    5d12:	06 94       	lsr	r0
    5d14:	57 95       	ror	r21
    5d16:	47 95       	ror	r20
    5d18:	37 95       	ror	r19
    5d1a:	27 95       	ror	r18
    5d1c:	ba 95       	dec	r27
    5d1e:	c9 f7       	brne	.-14     	; 0x5d12 <__ultoa_invert+0xa2>
    5d20:	62 0f       	add	r22, r18
    5d22:	73 1f       	adc	r23, r19
    5d24:	84 1f       	adc	r24, r20
    5d26:	95 1f       	adc	r25, r21
    5d28:	a0 1d       	adc	r26, r0
    5d2a:	08 95       	ret

00005d2c <__prologue_saves__>:
    5d2c:	2f 92       	push	r2
    5d2e:	3f 92       	push	r3
    5d30:	4f 92       	push	r4
    5d32:	5f 92       	push	r5
    5d34:	6f 92       	push	r6
    5d36:	7f 92       	push	r7
    5d38:	8f 92       	push	r8
    5d3a:	9f 92       	push	r9
    5d3c:	af 92       	push	r10
    5d3e:	bf 92       	push	r11
    5d40:	cf 92       	push	r12
    5d42:	df 92       	push	r13
    5d44:	ef 92       	push	r14
    5d46:	ff 92       	push	r15
    5d48:	0f 93       	push	r16
    5d4a:	1f 93       	push	r17
    5d4c:	cf 93       	push	r28
    5d4e:	df 93       	push	r29
    5d50:	cd b7       	in	r28, 0x3d	; 61
    5d52:	de b7       	in	r29, 0x3e	; 62
    5d54:	ca 1b       	sub	r28, r26
    5d56:	db 0b       	sbc	r29, r27
    5d58:	0f b6       	in	r0, 0x3f	; 63
    5d5a:	f8 94       	cli
    5d5c:	de bf       	out	0x3e, r29	; 62
    5d5e:	0f be       	out	0x3f, r0	; 63
    5d60:	cd bf       	out	0x3d, r28	; 61
    5d62:	09 94       	ijmp

00005d64 <__epilogue_restores__>:
    5d64:	2a 88       	ldd	r2, Y+18	; 0x12
    5d66:	39 88       	ldd	r3, Y+17	; 0x11
    5d68:	48 88       	ldd	r4, Y+16	; 0x10
    5d6a:	5f 84       	ldd	r5, Y+15	; 0x0f
    5d6c:	6e 84       	ldd	r6, Y+14	; 0x0e
    5d6e:	7d 84       	ldd	r7, Y+13	; 0x0d
    5d70:	8c 84       	ldd	r8, Y+12	; 0x0c
    5d72:	9b 84       	ldd	r9, Y+11	; 0x0b
    5d74:	aa 84       	ldd	r10, Y+10	; 0x0a
    5d76:	b9 84       	ldd	r11, Y+9	; 0x09
    5d78:	c8 84       	ldd	r12, Y+8	; 0x08
    5d7a:	df 80       	ldd	r13, Y+7	; 0x07
    5d7c:	ee 80       	ldd	r14, Y+6	; 0x06
    5d7e:	fd 80       	ldd	r15, Y+5	; 0x05
    5d80:	0c 81       	ldd	r16, Y+4	; 0x04
    5d82:	1b 81       	ldd	r17, Y+3	; 0x03
    5d84:	aa 81       	ldd	r26, Y+2	; 0x02
    5d86:	b9 81       	ldd	r27, Y+1	; 0x01
    5d88:	ce 0f       	add	r28, r30
    5d8a:	d1 1d       	adc	r29, r1
    5d8c:	0f b6       	in	r0, 0x3f	; 63
    5d8e:	f8 94       	cli
    5d90:	de bf       	out	0x3e, r29	; 62
    5d92:	0f be       	out	0x3f, r0	; 63
    5d94:	cd bf       	out	0x3d, r28	; 61
    5d96:	ed 01       	movw	r28, r26
    5d98:	08 95       	ret

00005d9a <_exit>:
    5d9a:	f8 94       	cli

00005d9c <__stop_program>:
    5d9c:	ff cf       	rjmp	.-2      	; 0x5d9c <__stop_program>
